

Microchip MPLAB XC8 Assembler V2.45 build 20230818022343 
                                                                                               Mon Oct 30 18:15:57 2023

Microchip MPLAB XC8 C Compiler v2.45 (Free license) build 20230818022343 Og1 
     1                           	processor	18F26K83
     2                           	fnconf	rparam,??,?,0
     3                           	pagewidth 120
     4                           	opt	flic
     5                           	psect	mediumconst,global,reloc=2,class=MEDIUMCONST,delta=1,noexec
     6                           	psect	nvCOMRAM,global,class=COMRAM,space=1,delta=1,lowdata,noexec
     7                           	psect	nvBANK0,global,class=BANK0,space=1,delta=1,lowdata,noexec
     8                           	psect	cinit,global,reloc=2,class=CODE,delta=1
     9                           	psect	bssCOMRAM,global,class=COMRAM,space=1,delta=1,lowdata,noexec
    10                           	psect	bssBANK0,global,class=BANK0,space=1,delta=1,lowdata,noexec
    11                           	psect	bssBANK1,global,class=BANK1,space=1,delta=1,lowdata,noexec
    12                           	psect	cstackCOMRAM,global,class=COMRAM,space=1,delta=1,lowdata,noexec
    13                           	psect	text0,global,reloc=2,class=CODE,delta=1
    14                           	psect	text1,global,reloc=2,class=CODE,delta=1
    15                           	psect	text2,global,reloc=2,class=CODE,delta=1
    16                           	psect	text3,global,reloc=2,class=CODE,delta=1
    17                           	psect	text4,global,reloc=2,class=CODE,delta=1
    18                           	psect	text5,global,reloc=2,class=CODE,delta=1
    19                           	psect	text6,global,reloc=2,class=CODE,delta=1
    20                           	psect	text7,global,reloc=2,class=CODE,delta=1,group=2
    21                           	psect	text8,global,reloc=2,class=CODE,delta=1
    22                           	psect	text9,global,reloc=2,class=CODE,delta=1
    23                           	psect	text10,global,reloc=2,class=CODE,delta=1
    24                           	psect	text11,global,reloc=2,class=CODE,delta=1
    25                           	psect	text12,global,reloc=2,class=CODE,delta=1
    26                           	psect	text13,global,reloc=2,class=CODE,delta=1
    27                           	psect	text14,global,reloc=2,class=CODE,delta=1,group=3
    28                           	psect	text15,global,reloc=2,class=CODE,delta=1,group=1
    29                           	psect	text16,global,reloc=2,class=CODE,delta=1,group=1
    30                           	psect	text17,global,reloc=2,class=CODE,delta=1,group=3
    31                           	psect	text18,global,reloc=2,class=CODE,delta=1
    32                           	psect	text19,global,reloc=2,class=CODE,delta=1
    33                           	psect	text20,global,reloc=2,class=CODE,delta=1,group=3
    34                           	psect	text21,global,reloc=2,class=CODE,delta=1,group=2
    35                           	psect	text22,global,reloc=2,class=CODE,delta=1,group=2
    36                           	psect	text23,global,reloc=2,class=CODE,delta=1
    37                           	psect	text24,global,reloc=2,class=CODE,delta=1
    38                           	psect	text25,global,reloc=2,class=CODE,delta=1
    39                           	psect	text26,global,reloc=2,class=CODE,delta=1,inline
    40                           	psect	text27,global,reloc=2,class=CODE,delta=1
    41                           	psect	text28,global,reloc=2,class=CODE,delta=1
    42                           	psect	text29,global,reloc=2,class=CODE,delta=1
    43                           	psect	text30,global,reloc=2,class=CODE,delta=1,inline
    44                           	psect	text31,global,reloc=2,class=CODE,delta=1,inline
    45                           	psect	text32,global,reloc=2,class=CODE,delta=1
    46                           	psect	text33,global,reloc=2,class=CODE,delta=1
    47                           	psect	text34,global,reloc=2,class=CODE,delta=1
    48                           	psect	text35,global,reloc=2,class=CODE,delta=1
    49                           	psect	text36,global,reloc=2,class=CODE,delta=1
    50                           	psect	text37,global,reloc=2,class=CODE,delta=1
    51                           	psect	text38,global,reloc=2,class=CODE,delta=1
    52                           	psect	text39,global,reloc=2,class=CODE,delta=1
    53                           	psect	text40,global,reloc=2,class=CODE,delta=1
    54                           	psect	text41,global,reloc=2,class=CODE,delta=1
    55                           	psect	text42,global,reloc=2,class=CODE,delta=1
    56                           	psect	text43,global,reloc=2,class=CODE,delta=1
    57                           	psect	text44,global,reloc=2,class=CODE,delta=1
    58                           	psect	text45,global,reloc=2,class=CODE,delta=1
    59                           	psect	text46,global,reloc=2,class=CODE,delta=1
    60                           	psect	text47,global,reloc=2,class=CODE,delta=1
    61                           	psect	text48,global,reloc=2,class=CODE,delta=1
    62                           	psect	text49,global,reloc=2,class=CODE,delta=1
    63                           	psect	text50,global,reloc=2,class=CODE,delta=1
    64                           	psect	text51,global,reloc=2,class=CODE,delta=1,inline
    65                           	psect	text52,global,reloc=2,class=CODE,delta=1,inline
    66                           	psect	text53,global,reloc=2,class=CODE,delta=1,inline
    67                           	psect	text54,global,reloc=2,class=CODE,delta=1,inline
    68                           	psect	text55,global,reloc=2,class=CODE,delta=1,inline
    69                           	psect	text56,global,reloc=2,class=CODE,delta=1,inline
    70                           	psect	text57,global,reloc=2,class=CODE,delta=1,inline
    71                           	psect	text58,global,reloc=2,class=CODE,delta=1,inline
    72                           	psect	text59,global,reloc=2,class=CODE,delta=1,inline
    73                           	psect	text60,global,reloc=2,class=CODE,delta=1,inline
    74                           	psect	text61,global,reloc=2,class=CODE,delta=1,inline
    75                           	psect	text62,global,reloc=2,class=CODE,delta=1,inline
    76                           	psect	text63,global,reloc=2,class=CODE,delta=1,inline
    77                           	psect	text64,global,reloc=2,class=CODE,delta=1
    78                           	psect	text65,global,reloc=2,class=CODE,delta=1
    79                           	psect	text66,global,reloc=2,class=CODE,delta=1
    80                           	psect	text67,global,reloc=2,class=CODE,delta=1
    81                           	psect	text68,global,reloc=2,class=CODE,delta=1
    82                           	psect	text69,global,reloc=2,class=CODE,delta=1
    83                           	psect	text70,global,reloc=2,class=CODE,delta=1
    84                           	psect	text71,global,reloc=2,class=CODE,delta=1
    85                           	psect	text72,global,reloc=2,class=CODE,delta=1
    86                           	psect	text73,global,reloc=2,class=CODE,delta=1
    87                           	psect	text74,global,reloc=2,class=CODE,delta=1,inline
    88                           	psect	text75,global,reloc=2,class=CODE,delta=1,inline
    89                           	psect	text76,global,reloc=2,class=CODE,delta=1,inline
    90                           	psect	text77,global,reloc=2,class=CODE,delta=1,inline
    91                           	psect	text78,global,reloc=2,class=CODE,delta=1,inline
    92                           	psect	text79,global,reloc=2,class=CODE,delta=1,inline
    93                           	psect	text80,global,reloc=2,class=CODE,delta=1,inline
    94                           	psect	text81,global,reloc=2,class=CODE,delta=1
    95                           	psect	text82,global,reloc=2,class=CODE,delta=1,inline
    96                           	psect	text83,global,reloc=2,class=CODE,delta=1,inline
    97                           	psect	text84,global,reloc=2,class=CODE,delta=1,inline
    98                           	psect	text85,global,reloc=2,class=CODE,delta=1
    99                           	psect	text86,global,reloc=2,class=CODE,delta=1
   100                           	psect	text87,global,reloc=2,class=CODE,delta=1
   101                           	psect	text88,global,reloc=2,class=CODE,delta=1
   102                           	psect	text89,global,reloc=2,class=CODE,delta=1
   103                           	psect	text90,global,reloc=2,class=CODE,delta=1
   104                           	psect	text91,global,reloc=2,class=CODE,delta=1
   105                           	psect	text92,global,reloc=2,class=CODE,delta=1
   106                           	psect	text93,global,reloc=2,class=CODE,delta=1
   107                           	psect	text94,global,reloc=2,class=CODE,delta=1
   108                           	psect	text95,global,reloc=2,class=CODE,delta=1
   109                           	psect	text96,global,reloc=2,class=CODE,delta=1
   110                           	psect	text97,global,reloc=2,class=CODE,delta=1
   111                           	psect	text98,global,reloc=2,class=CODE,delta=1
   112                           	psect	text99,global,reloc=2,class=CODE,delta=1
   113                           	psect	text100,global,reloc=2,class=CODE,delta=1
   114                           	psect	text101,global,reloc=2,class=CODE,delta=1
   115                           	psect	ivt0x8,global,reloc=2,class=CODE,delta=1,noexec,keep,optim=
   116                           	psect	intsave_regs,global,class=BIGRAM,space=1,delta=1,noexec
   117                           	psect	text102,global,reloc=2,class=CODE,delta=1
   118                           	psect	rparam,global,class=COMRAM,space=1,delta=1,noexec
   119                           	psect	idloc,global,abs,ovrld,class=IDLOC,space=5,delta=1,noexec
   120                           	psect	config,global,abs,ovrld,class=CONFIG,space=4,delta=1,noexec
   121   000000                     
   122                           ; Generated 06/04/2022 GMT
   123                           ; 
   124                           ; Copyright © 2022, Microchip Technology Inc. and its subsidiaries ("Microchip")
   125                           ; All rights reserved.
   126                           ; 
   127                           ; This software is developed by Microchip Technology Inc. and its subsidiaries ("Microch
      +                          ip").
   128                           ; 
   129                           ; Redistribution and use in source and binary forms, with or without modification, are
   130                           ; permitted provided that the following conditions are met:
   131                           ; 
   132                           ;     1. Redistributions of source code must retain the above copyright notice, this lis
      +                          t of
   133                           ;        conditions and the following disclaimer.
   134                           ; 
   135                           ;     2. Redistributions in binary form must reproduce the above copyright notice, this 
      +                          list
   136                           ;        of conditions and the following disclaimer in the documentation and/or other
   137                           ;        materials provided with the distribution. Publication is not required when
   138                           ;        this file is used in an embedded application.
   139                           ; 
   140                           ;     3. Microchip's name may not be used to endorse or promote products derived from th
      +                          is
   141                           ;        software without specific prior written permission.
   142                           ; 
   143                           ; THIS SOFTWARE IS PROVIDED BY MICROCHIP "AS IS" AND ANY EXPRESS OR IMPLIED WARRANTIES,
   144                           ; INCLUDING, BUT NOT LIMITED TO, THE IMPLIED WARRANTIES OF MERCHANTABILITY AND FITNESS F
      +                          OR
   145                           ; PURPOSE ARE DISCLAIMED.  IN NO EVENT SHALL MICROCHIP BE LIABLE FOR ANY DIRECT, INDIREC
      +                          T,
   146                           ; INCIDENTAL, SPECIAL, EXEMPLARY, OR CONSEQUENTIAL DAMAGES (INCLUDING BUT NOT LIMITED TO
   147                           ; PROCUREMENT OF SUBSTITUTE GOODS OR SERVICES; LOSS OF USE, DATA OR PROFITS; OR BUSINESS
   148                           ; INTERRUPTION) HOWSOEVER CAUSED AND ON ANY THEORY OF LIABILITY, WHETHER IN CONTRACT, ST
      +                          RICT
   149                           ; LIABILITY, OR TORT (INCLUDING NEGLIGENCE OR OTHERWISE) ARISING IN ANY WAY OUT OF THE U
      +                          SE OF
   150                           ; THIS SOFTWARE, EVEN IF ADVISED OF THE POSSIBILITY OF SUCH DAMAGE.
   151                           ; 
   152                           ; 
   153                           ; Code-generator required, PIC18F26K83 Definitions
   154                           ; 
   155                           ; SFR Addresses
   156   000000                     
   157 ;; Function _UART2_DefaultFramingErrorHandler is unused but had its address taken
   158   000000                     
   159 ;; Function _UART2_DefaultOverrunErrorHandler is unused but had its address taken
   160   000000                     
   161 ;; Function _UART2_DefaultErrorHandler is unused but had its address taken
   162   000000                     
   163                           	psect	mediumconst
   164   00FDA4                     __pmediumconst:
   165                           	callstack 0
   166   00FDA4  00                 	db	0
   167   00FDA5                     _i2c1_fsmStateTable:
   168                           	callstack 0
   169   00FDA5  8E                 	db	low _I2C1_DO_IDLE
   170   00FDA6  19                 	db	high _I2C1_DO_IDLE
   171   00FDA7  FA                 	db	low _I2C1_DO_SEND_ADR_READ
   172   00FDA8  15                 	db	high _I2C1_DO_SEND_ADR_READ
   173   00FDA9  B8                 	db	low _I2C1_DO_SEND_ADR_WRITE
   174   00FDAA  18                 	db	high _I2C1_DO_SEND_ADR_WRITE
   175   00FDAB  B8                 	db	low _I2C1_DO_TX
   176   00FDAC  04                 	db	high _I2C1_DO_TX
   177   00FDAD  98                 	db	low _I2C1_DO_RX
   178   00FDAE  09                 	db	high _I2C1_DO_RX
   179   00FDAF  5C                 	db	low _I2C1_DO_TX_EMPTY
   180   00FDB0  0C                 	db	high _I2C1_DO_TX_EMPTY
   181   00FDB1  F6                 	db	low _I2C1_DO_RX_EMPTY
   182   00FDB2  08                 	db	high _I2C1_DO_RX_EMPTY
   183   00FDB3  80                 	db	low _I2C1_DO_SEND_RESTART_READ
   184   00FDB4  19                 	db	high _I2C1_DO_SEND_RESTART_READ
   185   00FDB5  5E                 	db	low _I2C1_DO_SEND_RESTART_WRITE
   186   00FDB6  1A                 	db	high _I2C1_DO_SEND_RESTART_WRITE
   187   00FDB7  5A                 	db	low _I2C1_DO_SEND_RESTART
   188   00FDB8  1A                 	db	high _I2C1_DO_SEND_RESTART
   189   00FDB9  04                 	db	low _I2C1_DO_SEND_STOP
   190   00FDBA  17                 	db	high _I2C1_DO_SEND_STOP
   191   00FDBB  06                 	db	low _I2C1_DO_RX_ACK
   192   00FDBC  1A                 	db	high _I2C1_DO_RX_ACK
   193   00FDBD  0E                 	db	low _I2C1_DO_TX_ACK
   194   00FDBE  1A                 	db	high _I2C1_DO_TX_ACK
   195   00FDBF  72                 	db	low _I2C1_DO_RX_NACK_STOP
   196   00FDC0  19                 	db	high _I2C1_DO_RX_NACK_STOP
   197   00FDC1  FE                 	db	low _I2C1_DO_RX_NACK_RESTART
   198   00FDC2  19                 	db	high _I2C1_DO_RX_NACK_RESTART
   199   00FDC3  62                 	db	low _I2C1_DO_RESET
   200   00FDC4  19                 	db	high _I2C1_DO_RESET
   201   00FDC5  5E                 	db	low _I2C1_DO_ADDRESS_NACK
   202   00FDC6  10                 	db	high _I2C1_DO_ADDRESS_NACK
   203   00FDC7  A8                 	db	low _I2C1_DO_BUS_COLLISION
   204   00FDC8  0E                 	db	high _I2C1_DO_BUS_COLLISION
   205   00FDC9  52                 	db	low _I2C1_DO_BUS_ERROR
   206   00FDCA  19                 	db	high _I2C1_DO_BUS_ERROR
   207   00FDCB                     __end_of_i2c1_fsmStateTable:
   208                           	callstack 0
   209   000000                     _T2CON	set	16300
   210   000000                     _I2C1TXB	set	15723
   211   000000                     _I2C1PIE	set	15738
   212   000000                     _OSCTUNE	set	14814
   213   000000                     _OSCFRQ	set	14815
   214   000000                     _ADERRL	set	16098
   215   000000                     _ADERRH	set	16099
   216   000000                     _ADPREVL	set	16109
   217   000000                     _ADPREVH	set	16110
   218   000000                     _ADFLTRL	set	16102
   219   000000                     _ADFLTRH	set	16103
   220   000000                     _ADACCL	set	16104
   221   000000                     _ADACCH	set	16105
   222   000000                     _ADCNT	set	16107
   223   000000                     _ADRESL	set	16111
   224   000000                     _ADRESH	set	16112
   225   000000                     _ADCON0	set	16120
   226   000000                     _ADCON1	set	16121
   227   000000                     _ADPREH	set	16119
   228   000000                     _ADPREL	set	16118
   229   000000                     _ADCAP	set	16117
   230   000000                     _ADACQH	set	16116
   231   000000                     _ADPCH	set	16113
   232   000000                     _ADRPT	set	16108
   233   000000                     _ADACCU	set	16106
   234   000000                     _ADSTPTH	set	16101
   235   000000                     _ADSTPTL	set	16100
   236   000000                     _ADUTHH	set	16097
   237   000000                     _ADUTHL	set	16096
   238   000000                     _ADLTHH	set	16095
   239   000000                     _T0CON0	set	16312
   240   00FDCB                     STR_16:
   241   00FDCB  53                 	db	83	;'S'
   242   00FDCC  74                 	db	116	;'t'
   243   00FDCD  61                 	db	97	;'a'
   244   00FDCE  72                 	db	114	;'r'
   245   00FDCF  74                 	db	116	;'t'
   246   00FDD0  20                 	db	32
   247   00FDD1  53                 	db	83	;'S'
   248   00FDD2  79                 	db	121	;'y'
   249   00FDD3  73                 	db	115	;'s'
   250   00FDD4  74                 	db	116	;'t'
   251   00FDD5  65                 	db	101	;'e'
   252   00FDD6  6D                 	db	109	;'m'
   253   00FDD7  20                 	db	32
   254   00FDD8  2D                 	db	45
   255   00FDD9  20                 	db	32
   256   00FDDA  52                 	db	82	;'R'
   257   00FDDB  65                 	db	101	;'e'
   258   00FDDC  6C                 	db	108	;'l'
   259   00FDDD  6F                 	db	111	;'o'
   260   00FDDE  61                 	db	97	;'a'
   261   00FDDF  64                 	db	100	;'d'
   262   00FDE0  69                 	db	105	;'i'
   263   00FDE1  6E                 	db	110	;'n'
   264   00FDE2  67                 	db	103	;'g'
   265   00FDE3  20                 	db	32
   266   00FDE4  44                 	db	68	;'D'
   267   00FDE5  65                 	db	101	;'e'
   268   00FDE6  66                 	db	102	;'f'
   269   00FDE7  61                 	db	97	;'a'
   270   00FDE8  75                 	db	117	;'u'
   271   00FDE9  6C                 	db	108	;'l'
   272   00FDEA  74                 	db	116	;'t'
   273   00FDEB  20                 	db	32
   274   00FDEC  56                 	db	86	;'V'
   275   00FDED  61                 	db	97	;'a'
   276   00FDEE  6C                 	db	108	;'l'
   277   00FDEF  75                 	db	117	;'u'
   278   00FDF0  65                 	db	101	;'e'
   279   00FDF1  73                 	db	115	;'s'
   280   00FDF2  20                 	db	32
   281   00FDF3  0D                 	db	13
   282   00FDF4  0A                 	db	10
   283   00FDF5  00                 	db	0
   284   00FDF6                     STR_8:
   285   00FDF6  53                 	db	83	;'S'
   286   00FDF7  68                 	db	104	;'h'
   287   00FDF8  6F                 	db	111	;'o'
   288   00FDF9  72                 	db	114	;'r'
   289   00FDFA  74                 	db	116	;'t'
   290   00FDFB  20                 	db	32
   291   00FDFC  63                 	db	99	;'c'
   292   00FDFD  69                 	db	105	;'i'
   293   00FDFE  72                 	db	114	;'r'
   294   00FDFF  63                 	db	99	;'c'
   295   00FE00  75                 	db	117	;'u'
   296   00FE01  69                 	db	105	;'i'
   297   00FE02  74                 	db	116	;'t'
   298   00FE03  20                 	db	32
   299   00FE04  77                 	db	119	;'w'
   300   00FE05  69                 	db	105	;'i'
   301   00FE06  74                 	db	116	;'t'
   302   00FE07  68                 	db	104	;'h'
   303   00FE08  20                 	db	32
   304   00FE09  66                 	db	102	;'f'
   305   00FE0A  72                 	db	114	;'r'
   306   00FE0B  61                 	db	97	;'a'
   307   00FE0C  6D                 	db	109	;'m'
   308   00FE0D  65                 	db	101	;'e'
   309   00FE0E  20                 	db	32
   310   00FE0F  64                 	db	100	;'d'
   311   00FE10  65                 	db	101	;'e'
   312   00FE11  74                 	db	116	;'t'
   313   00FE12  65                 	db	101	;'e'
   314   00FE13  63                 	db	99	;'c'
   315   00FE14  74                 	db	116	;'t'
   316   00FE15  65                 	db	101	;'e'
   317   00FE16  64                 	db	100	;'d'
   318   00FE17  20                 	db	32
   319   00FE18  0D                 	db	13
   320   00FE19  0A                 	db	10
   321   00FE1A  00                 	db	0
   322   00FE1B                     STR_18:
   323   00FE1B  53                 	db	83	;'S'
   324   00FE1C  74                 	db	116	;'t'
   325   00FE1D  61                 	db	97	;'a'
   326   00FE1E  72                 	db	114	;'r'
   327   00FE1F  74                 	db	116	;'t'
   328   00FE20  20                 	db	32
   329   00FE21  53                 	db	83	;'S'
   330   00FE22  79                 	db	121	;'y'
   331   00FE23  73                 	db	115	;'s'
   332   00FE24  74                 	db	116	;'t'
   333   00FE25  65                 	db	101	;'e'
   334   00FE26  6D                 	db	109	;'m'
   335   00FE27  20                 	db	32
   336   00FE28  2D                 	db	45
   337   00FE29  20                 	db	32
   338   00FE2A  53                 	db	83	;'S'
   339   00FE2B  74                 	db	116	;'t'
   340   00FE2C  61                 	db	97	;'a'
   341   00FE2D  72                 	db	114	;'r'
   342   00FE2E  74                 	db	116	;'t'
   343   00FE2F  69                 	db	105	;'i'
   344   00FE30  6E                 	db	110	;'n'
   345   00FE31  67                 	db	103	;'g'
   346   00FE32  20                 	db	32
   347   00FE33  50                 	db	80	;'P'
   348   00FE34  53                 	db	83	;'S'
   349   00FE35  20                 	db	32
   350   00FE36  2F                 	db	47
   351   00FE37  20                 	db	32
   352   00FE38  50                 	db	80	;'P'
   353   00FE39  53                 	db	83	;'S'
   354   00FE3A  20                 	db	32
   355   00FE3B  0D                 	db	13
   356   00FE3C  0A                 	db	10
   357   00FE3D  00                 	db	0
   358   00FE3E                     STR_11:
   359   00FE3E  43                 	db	67	;'C'
   360   00FE3F  6F                 	db	111	;'o'
   361   00FE40  6E                 	db	110	;'n'
   362   00FE41  74                 	db	116	;'t'
   363   00FE42  61                 	db	97	;'a'
   364   00FE43  63                 	db	99	;'c'
   365   00FE44  74                 	db	116	;'t'
   366   00FE45  20                 	db	32
   367   00FE46  76                 	db	118	;'v'
   368   00FE47  6F                 	db	111	;'o'
   369   00FE48  6C                 	db	108	;'l'
   370   00FE49  74                 	db	116	;'t'
   371   00FE4A  61                 	db	97	;'a'
   372   00FE4B  67                 	db	103	;'g'
   373   00FE4C  65                 	db	101	;'e'
   374   00FE4D  20                 	db	32
   375   00FE4E  68                 	db	104	;'h'
   376   00FE4F  69                 	db	105	;'i'
   377   00FE50  67                 	db	103	;'g'
   378   00FE51  68                 	db	104	;'h'
   379   00FE52  20                 	db	32
   380   00FE53  64                 	db	100	;'d'
   381   00FE54  65                 	db	101	;'e'
   382   00FE55  74                 	db	116	;'t'
   383   00FE56  65                 	db	101	;'e'
   384   00FE57  63                 	db	99	;'c'
   385   00FE58  74                 	db	116	;'t'
   386   00FE59  65                 	db	101	;'e'
   387   00FE5A  64                 	db	100	;'d'
   388   00FE5B  20                 	db	32
   389   00FE5C  0D                 	db	13
   390   00FE5D  0A                 	db	10
   391   00FE5E  00                 	db	0
   392   00FE5F                     STR_17:
   393   00FE5F  53                 	db	83	;'S'
   394   00FE60  74                 	db	116	;'t'
   395   00FE61  61                 	db	97	;'a'
   396   00FE62  72                 	db	114	;'r'
   397   00FE63  74                 	db	116	;'t'
   398   00FE64  20                 	db	32
   399   00FE65  53                 	db	83	;'S'
   400   00FE66  79                 	db	121	;'y'
   401   00FE67  73                 	db	115	;'s'
   402   00FE68  74                 	db	116	;'t'
   403   00FE69  65                 	db	101	;'e'
   404   00FE6A  6D                 	db	109	;'m'
   405   00FE6B  20                 	db	32
   406   00FE6C  2D                 	db	45
   407   00FE6D  20                 	db	32
   408   00FE6E  53                 	db	83	;'S'
   409   00FE6F  74                 	db	116	;'t'
   410   00FE70  61                 	db	97	;'a'
   411   00FE71  72                 	db	114	;'r'
   412   00FE72  74                 	db	116	;'t'
   413   00FE73  69                 	db	105	;'i'
   414   00FE74  6E                 	db	110	;'n'
   415   00FE75  67                 	db	103	;'g'
   416   00FE76  20                 	db	32
   417   00FE77  50                 	db	80	;'P'
   418   00FE78  69                 	db	105	;'i'
   419   00FE79  6E                 	db	110	;'n'
   420   00FE7A  73                 	db	115	;'s'
   421   00FE7B  20                 	db	32
   422   00FE7C  0D                 	db	13
   423   00FE7D  0A                 	db	10
   424   00FE7E  00                 	db	0
   425   00FE7F                     STR_7:
   426   00FE7F  53                 	db	83	;'S'
   427   00FE80  68                 	db	104	;'h'
   428   00FE81  6F                 	db	111	;'o'
   429   00FE82  72                 	db	114	;'r'
   430   00FE83  74                 	db	116	;'t'
   431   00FE84  20                 	db	32
   432   00FE85  63                 	db	99	;'c'
   433   00FE86  69                 	db	105	;'i'
   434   00FE87  72                 	db	114	;'r'
   435   00FE88  63                 	db	99	;'c'
   436   00FE89  75                 	db	117	;'u'
   437   00FE8A  69                 	db	105	;'i'
   438   00FE8B  74                 	db	116	;'t'
   439   00FE8C  20                 	db	32
   440   00FE8D  6E                 	db	110	;'n'
   441   00FE8E  6F                 	db	111	;'o'
   442   00FE8F  74                 	db	116	;'t'
   443   00FE90  20                 	db	32
   444   00FE91  64                 	db	100	;'d'
   445   00FE92  65                 	db	101	;'e'
   446   00FE93  74                 	db	116	;'t'
   447   00FE94  65                 	db	101	;'e'
   448   00FE95  63                 	db	99	;'c'
   449   00FE96  74                 	db	116	;'t'
   450   00FE97  65                 	db	101	;'e'
   451   00FE98  64                 	db	100	;'d'
   452   00FE99  20                 	db	32
   453   00FE9A  0D                 	db	13
   454   00FE9B  0A                 	db	10
   455   00FE9C  00                 	db	0
   456   00FE9D                     STR_15:
   457   00FE9D  53                 	db	83	;'S'
   458   00FE9E  74                 	db	116	;'t'
   459   00FE9F  61                 	db	97	;'a'
   460   00FEA0  72                 	db	114	;'r'
   461   00FEA1  74                 	db	116	;'t'
   462   00FEA2  20                 	db	32
   463   00FEA3  53                 	db	83	;'S'
   464   00FEA4  79                 	db	121	;'y'
   465   00FEA5  73                 	db	115	;'s'
   466   00FEA6  74                 	db	116	;'t'
   467   00FEA7  65                 	db	101	;'e'
   468   00FEA8  6D                 	db	109	;'m'
   469   00FEA9  20                 	db	32
   470   00FEAA  2D                 	db	45
   471   00FEAB  20                 	db	32
   472   00FEAC  49                 	db	73	;'I'
   473   00FEAD  4F                 	db	79	;'O'
   474   00FEAE  20                 	db	32
   475   00FEAF  45                 	db	69	;'E'
   476   00FEB0  78                 	db	120	;'x'
   477   00FEB1  70                 	db	112	;'p'
   478   00FEB2  61                 	db	97	;'a'
   479   00FEB3  6E                 	db	110	;'n'
   480   00FEB4  64                 	db	100	;'d'
   481   00FEB5  65                 	db	101	;'e'
   482   00FEB6  72                 	db	114	;'r'
   483   00FEB7  20                 	db	32
   484   00FEB8  0D                 	db	13
   485   00FEB9  0A                 	db	10
   486   00FEBA  00                 	db	0
   487   00FEBB                     STR_20:
   488   00FEBB  45                 	db	69	;'E'
   489   00FEBC  52                 	db	82	;'R'
   490   00FEBD  52                 	db	82	;'R'
   491   00FEBE  4F                 	db	79	;'O'
   492   00FEBF  52                 	db	82	;'R'
   493   00FEC0  20                 	db	32
   494   00FEC1  2D                 	db	45
   495   00FEC2  20                 	db	32
   496   00FEC3  49                 	db	73	;'I'
   497   00FEC4  4F                 	db	79	;'O'
   498   00FEC5  20                 	db	32
   499   00FEC6  49                 	db	73	;'I'
   500   00FEC7  4E                 	db	78	;'N'
   501   00FEC8  56                 	db	86	;'V'
   502   00FEC9  41                 	db	65	;'A'
   503   00FECA  4C                 	db	76	;'L'
   504   00FECB  49                 	db	73	;'I'
   505   00FECC  44                 	db	68	;'D'
   506   00FECD  20                 	db	32
   507   00FECE  50                 	db	80	;'P'
   508   00FECF  49                 	db	73	;'I'
   509   00FED0  4E                 	db	78	;'N'
   510   00FED1  20                 	db	32
   511   00FED2  25                 	db	37
   512   00FED3  64                 	db	100	;'d'
   513   00FED4  0D                 	db	13
   514   00FED5  0A                 	db	10
   515   00FED6  00                 	db	0
   516   00FED7                     STR_19:
   517   00FED7  53                 	db	83	;'S'
   518   00FED8  74                 	db	116	;'t'
   519   00FED9  61                 	db	97	;'a'
   520   00FEDA  72                 	db	114	;'r'
   521   00FEDB  74                 	db	116	;'t'
   522   00FEDC  20                 	db	32
   523   00FEDD  53                 	db	83	;'S'
   524   00FEDE  79                 	db	121	;'y'
   525   00FEDF  73                 	db	115	;'s'
   526   00FEE0  74                 	db	116	;'t'
   527   00FEE1  65                 	db	101	;'e'
   528   00FEE2  6D                 	db	109	;'m'
   529   00FEE3  20                 	db	32
   530   00FEE4  2D                 	db	45
   531   00FEE5  20                 	db	32
   532   00FEE6  46                 	db	70	;'F'
   533   00FEE7  69                 	db	105	;'i'
   534   00FEE8  6E                 	db	110	;'n'
   535   00FEE9  69                 	db	105	;'i'
   536   00FEEA  73                 	db	115	;'s'
   537   00FEEB  68                 	db	104	;'h'
   538   00FEEC  65                 	db	101	;'e'
   539   00FEED  64                 	db	100	;'d'
   540   00FEEE  20                 	db	32
   541   00FEEF  0D                 	db	13
   542   00FEF0  0A                 	db	10
   543   00FEF1  00                 	db	0
   544   00FEF2                     STR_13:
   545   00FEF2  53                 	db	83	;'S'
   546   00FEF3  74                 	db	116	;'t'
   547   00FEF4  61                 	db	97	;'a'
   548   00FEF5  72                 	db	114	;'r'
   549   00FEF6  74                 	db	116	;'t'
   550   00FEF7  20                 	db	32
   551   00FEF8  53                 	db	83	;'S'
   552   00FEF9  79                 	db	121	;'y'
   553   00FEFA  73                 	db	115	;'s'
   554   00FEFB  74                 	db	116	;'t'
   555   00FEFC  65                 	db	101	;'e'
   556   00FEFD  6D                 	db	109	;'m'
   557   00FEFE  20                 	db	32
   558   00FEFF  2D                 	db	45
   559   00FF00  20                 	db	32
   560   00FF01  53                 	db	83	;'S'
   561   00FF02  74                 	db	116	;'t'
   562   00FF03  61                 	db	97	;'a'
   563   00FF04  72                 	db	114	;'r'
   564   00FF05  74                 	db	116	;'t'
   565   00FF06  69                 	db	105	;'i'
   566   00FF07  6E                 	db	110	;'n'
   567   00FF08  67                 	db	103	;'g'
   568   00FF09  20                 	db	32
   569   00FF0A  0D                 	db	13
   570   00FF0B  0A                 	db	10
   571   00FF0C  00                 	db	0
   572   00FF0D  45                 	db	69	;'E'
   573   00FF0E  52                 	db	82	;'R'
   574   00FF0F  52                 	db	82	;'R'
   575   00FF10  4F                 	db	79	;'O'
   576   00FF11  52                 	db	82	;'R'
   577   00FF12  20                 	db	32
   578   00FF13  2D                 	db	45
   579   00FF14  20                 	db	32
   580   00FF15  49                 	db	73	;'I'
   581   00FF16  4F                 	db	79	;'O'
   582   00FF17  20                 	db	32
   583   00FF18  49                 	db	73	;'I'
   584   00FF19  4E                 	db	78	;'N'
   585   00FF1A  56                 	db	86	;'V'
   586   00FF1B  41                 	db	65	;'A'
   587   00FF1C  4C                 	db	76	;'L'
   588   00FF1D  49                 	db	73	;'I'
   589   00FF1E  44                 	db	68	;'D'
   590   00FF1F  20                 	db	32
   591   00FF20  50                 	db	80	;'P'
   592   00FF21  49                 	db	73	;'I'
   593   00FF22  4E                 	db	78	;'N'
   594   00FF23  20                 	db	32
   595   00FF24  0D                 	db	13
   596   00FF25  0A                 	db	10
   597   00FF26  00                 	db	0
   598   00FF27                     STR_9:
   599   00FF27  52                 	db	82	;'R'
   600   00FF28  65                 	db	101	;'e'
   601   00FF29  6C                 	db	108	;'l'
   602   00FF2A  61                 	db	97	;'a'
   603   00FF2B  79                 	db	121	;'y'
   604   00FF2C  20                 	db	32
   605   00FF2D  6E                 	db	110	;'n'
   606   00FF2E  65                 	db	101	;'e'
   607   00FF2F  67                 	db	103	;'g'
   608   00FF30  61                 	db	97	;'a'
   609   00FF31  74                 	db	116	;'t'
   610   00FF32  69                 	db	105	;'i'
   611   00FF33  76                 	db	118	;'v'
   612   00FF34  65                 	db	101	;'e'
   613   00FF35  20                 	db	32
   614   00FF36  70                 	db	112	;'p'
   615   00FF37  6F                 	db	111	;'o'
   616   00FF38  77                 	db	119	;'w'
   617   00FF39  65                 	db	101	;'e'
   618   00FF3A  72                 	db	114	;'r'
   619   00FF3B  65                 	db	101	;'e'
   620   00FF3C  64                 	db	100	;'d'
   621   00FF3D  20                 	db	32
   622   00FF3E  0D                 	db	13
   623   00FF3F  0A                 	db	10
   624   00FF40  00                 	db	0
   625   00FF41                     STR_6:
   626   00FF41  52                 	db	82	;'R'
   627   00FF42  65                 	db	101	;'e'
   628   00FF43  6C                 	db	108	;'l'
   629   00FF44  61                 	db	97	;'a'
   630   00FF45  79                 	db	121	;'y'
   631   00FF46  20                 	db	32
   632   00FF47  70                 	db	112	;'p'
   633   00FF48  6F                 	db	111	;'o'
   634   00FF49  73                 	db	115	;'s'
   635   00FF4A  69                 	db	105	;'i'
   636   00FF4B  74                 	db	116	;'t'
   637   00FF4C  69                 	db	105	;'i'
   638   00FF4D  76                 	db	118	;'v'
   639   00FF4E  65                 	db	101	;'e'
   640   00FF4F  20                 	db	32
   641   00FF50  70                 	db	112	;'p'
   642   00FF51  6F                 	db	111	;'o'
   643   00FF52  77                 	db	119	;'w'
   644   00FF53  65                 	db	101	;'e'
   645   00FF54  72                 	db	114	;'r'
   646   00FF55  65                 	db	101	;'e'
   647   00FF56  64                 	db	100	;'d'
   648   00FF57  20                 	db	32
   649   00FF58  0D                 	db	13
   650   00FF59  0A                 	db	10
   651   00FF5A  00                 	db	0
   652   00FF5B                     STR_14:
   653   00FF5B  53                 	db	83	;'S'
   654   00FF5C  74                 	db	116	;'t'
   655   00FF5D  61                 	db	97	;'a'
   656   00FF5E  72                 	db	114	;'r'
   657   00FF5F  74                 	db	116	;'t'
   658   00FF60  20                 	db	32
   659   00FF61  53                 	db	83	;'S'
   660   00FF62  79                 	db	121	;'y'
   661   00FF63  73                 	db	115	;'s'
   662   00FF64  74                 	db	116	;'t'
   663   00FF65  65                 	db	101	;'e'
   664   00FF66  6D                 	db	109	;'m'
   665   00FF67  20                 	db	32
   666   00FF68  2D                 	db	45
   667   00FF69  20                 	db	32
   668   00FF6A  45                 	db	69	;'E'
   669   00FF6B  45                 	db	69	;'E'
   670   00FF6C  50                 	db	80	;'P'
   671   00FF6D  52                 	db	82	;'R'
   672   00FF6E  4F                 	db	79	;'O'
   673   00FF6F  4D                 	db	77	;'M'
   674   00FF70  20                 	db	32
   675   00FF71  0D                 	db	13
   676   00FF72  0A                 	db	10
   677   00FF73  00                 	db	0
   678   00FF74                     STR_10:
   679   00FF74  43                 	db	67	;'C'
   680   00FF75  6F                 	db	111	;'o'
   681   00FF76  6E                 	db	110	;'n'
   682   00FF77  74                 	db	116	;'t'
   683   00FF78  61                 	db	97	;'a'
   684   00FF79  63                 	db	99	;'c'
   685   00FF7A  74                 	db	116	;'t'
   686   00FF7B  20                 	db	32
   687   00FF7C  76                 	db	118	;'v'
   688   00FF7D  6F                 	db	111	;'o'
   689   00FF7E  6C                 	db	108	;'l'
   690   00FF7F  74                 	db	116	;'t'
   691   00FF80  61                 	db	97	;'a'
   692   00FF81  67                 	db	103	;'g'
   693   00FF82  65                 	db	101	;'e'
   694   00FF83  20                 	db	32
   695   00FF84  4F                 	db	79	;'O'
   696   00FF85  4B                 	db	75	;'K'
   697   00FF86  21                 	db	33
   698   00FF87  21                 	db	33
   699   00FF88  20                 	db	32
   700   00FF89  0D                 	db	13
   701   00FF8A  0A                 	db	10
   702   00FF8B  00                 	db	0
   703   00FF8C                     STR_5:
   704   00FF8C  46                 	db	70	;'F'
   705   00FF8D  72                 	db	114	;'r'
   706   00FF8E  61                 	db	97	;'a'
   707   00FF8F  6D                 	db	109	;'m'
   708   00FF90  65                 	db	101	;'e'
   709   00FF91  20                 	db	32
   710   00FF92  6E                 	db	110	;'n'
   711   00FF93  6F                 	db	111	;'o'
   712   00FF94  74                 	db	116	;'t'
   713   00FF95  20                 	db	32
   714   00FF96  63                 	db	99	;'c'
   715   00FF97  6F                 	db	111	;'o'
   716   00FF98  6E                 	db	110	;'n'
   717   00FF99  6E                 	db	110	;'n'
   718   00FF9A  65                 	db	101	;'e'
   719   00FF9B  63                 	db	99	;'c'
   720   00FF9C  74                 	db	116	;'t'
   721   00FF9D  65                 	db	101	;'e'
   722   00FF9E  64                 	db	100	;'d'
   723   00FF9F  20                 	db	32
   724   00FFA0  0D                 	db	13
   725   00FFA1  0A                 	db	10
   726   00FFA2  00                 	db	0
   727   00FFA3                     STR_1:
   728   00FFA3  73                 	db	115	;'s'
   729   00FFA4  74                 	db	116	;'t'
   730   00FFA5  61                 	db	97	;'a'
   731   00FFA6  74                 	db	116	;'t'
   732   00FFA7  65                 	db	101	;'e'
   733   00FFA8  20                 	db	32
   734   00FFA9  6D                 	db	109	;'m'
   735   00FFAA  61                 	db	97	;'a'
   736   00FFAB  63                 	db	99	;'c'
   737   00FFAC  68                 	db	104	;'h'
   738   00FFAD  69                 	db	105	;'i'
   739   00FFAE  6E                 	db	110	;'n'
   740   00FFAF  65                 	db	101	;'e'
   741   00FFB0  20                 	db	32
   742   00FFB1  25                 	db	37
   743   00FFB2  64                 	db	100	;'d'
   744   00FFB3  20                 	db	32
   745   00FFB4  0D                 	db	13
   746   00FFB5  0A                 	db	10
   747   00FFB6  00                 	db	0
   748   00FFB7                     STR_2:
   749   00FFB7  61                 	db	97	;'a'
   750   00FFB8  64                 	db	100	;'d'
   751   00FFB9  63                 	db	99	;'c'
   752   00FFBA  31                 	db	49	;'1'
   753   00FFBB  3D                 	db	61	;'='
   754   00FFBC  25                 	db	37
   755   00FFBD  64                 	db	100	;'d'
   756   00FFBE  2C                 	db	44
   757   00FFBF  20                 	db	32
   758   00FFC0  61                 	db	97	;'a'
   759   00FFC1  64                 	db	100	;'d'
   760   00FFC2  63                 	db	99	;'c'
   761   00FFC3  32                 	db	50	;'2'
   762   00FFC4  3D                 	db	61	;'='
   763   00FFC5  25                 	db	37
   764   00FFC6  64                 	db	100	;'d'
   765   00FFC7  20                 	db	32
   766   00FFC8  0D                 	db	13
   767   00FFC9  0A                 	db	10
   768   00FFCA  00                 	db	0
   769   00FFCB                     STR_4:
   770   00FFCB  46                 	db	70	;'F'
   771   00FFCC  72                 	db	114	;'r'
   772   00FFCD  61                 	db	97	;'a'
   773   00FFCE  6D                 	db	109	;'m'
   774   00FFCF  65                 	db	101	;'e'
   775   00FFD0  20                 	db	32
   776   00FFD1  63                 	db	99	;'c'
   777   00FFD2  6F                 	db	111	;'o'
   778   00FFD3  6E                 	db	110	;'n'
   779   00FFD4  6E                 	db	110	;'n'
   780   00FFD5  65                 	db	101	;'e'
   781   00FFD6  63                 	db	99	;'c'
   782   00FFD7  74                 	db	116	;'t'
   783   00FFD8  65                 	db	101	;'e'
   784   00FFD9  64                 	db	100	;'d'
   785   00FFDA  20                 	db	32
   786   00FFDB  0D                 	db	13
   787   00FFDC  0A                 	db	10
   788   00FFDD  00                 	db	0
   789   00FFDE                     STR_3:
   790   00FFDE  42                 	db	66	;'B'
   791   00FFDF  75                 	db	117	;'u'
   792   00FFE0  74                 	db	116	;'t'
   793   00FFE1  74                 	db	116	;'t'
   794   00FFE2  6F                 	db	111	;'o'
   795   00FFE3  6E                 	db	110	;'n'
   796   00FFE4  20                 	db	32
   797   00FFE5  64                 	db	100	;'d'
   798   00FFE6  65                 	db	101	;'e'
   799   00FFE7  74                 	db	116	;'t'
   800   00FFE8  65                 	db	101	;'e'
   801   00FFE9  63                 	db	99	;'c'
   802   00FFEA  74                 	db	116	;'t'
   803   00FFEB  65                 	db	101	;'e'
   804   00FFEC  64                 	db	100	;'d'
   805   00FFED  20                 	db	32
   806   00FFEE  0D                 	db	13
   807   00FFEF  0A                 	db	10
   808   00FFF0  00                 	db	0
   809   00FFF1                     STR_12:
   810   00FFF1  52                 	db	82	;'R'
   811   00FFF2  65                 	db	101	;'e'
   812   00FFF3  6C                 	db	108	;'l'
   813   00FFF4  61                 	db	97	;'a'
   814   00FFF5  79                 	db	121	;'y'
   815   00FFF6  73                 	db	115	;'s'
   816   00FFF7  20                 	db	32
   817   00FFF8  4F                 	db	79	;'O'
   818   00FFF9  46                 	db	70	;'F'
   819   00FFFA  46                 	db	70	;'F'
   820   00FFFB  20                 	db	32
   821   00FFFC  0D                 	db	13
   822   00FFFD  0A                 	db	10
   823   00FFFE  00                 	db	0
   824   00FFFF  00                 	db	0	; dummy byte at the end
   825   000000                     
   826                           	psect	nvCOMRAM
   827   000058                     __pnvCOMRAM:
   828                           	callstack 0
   829   000058                     _TMR0_InterruptHandler:
   830                           	callstack 0
   831   000058                     	ds	2
   832   00005A                     _UART2_FramingErrorHandler:
   833                           	callstack 0
   834   00005A                     	ds	2
   835                           
   836                           	psect	nvBANK0
   837   0000E4                     __pnvBANK0:
   838                           	callstack 0
   839   0000E4                     _UART2_ErrorHandler:
   840                           	callstack 0
   841   0000E4                     	ds	2
   842   0000E6                     _UART2_OverrunErrorHandler:
   843                           	callstack 0
   844   0000E6                     	ds	2
   845   000000                     _I2C1PIEbits	set	15738
   846   000000                     _I2C1PIRbits	set	15737
   847   000000                     _I2C1ERRbits	set	15734
   848   000000                     _I2C1CON1bits	set	15732
   849   000000                     _I2C1CON0bits	set	15731
   850   000000                     _U2ERRIRbits	set	15841
   851   000000                     _U2CON0bits	set	15834
   852   000000                     _ADCON1bits	set	16121
   853   000000                     _ADSTATbits	set	16124
   854   000000                     _ADCON2bits	set	16122
   855   000000                     _ADCON3bits	set	16123
   856   000000                     _ADCON0bits	set	16120
   857   000000                     _LATCbits	set	16316
   858   000000                     _LATAbits	set	16314
   859   000000                     _PR2	set	16299
   860   000000                     _TMR2	set	16298
   861   000000                     _T2CONbits	set	16300
   862   000000                     _T2RSTbits	set	16303
   863   000000                     _T2HLTbits	set	16301
   864   000000                     _T0CON0bits	set	16312
   865   000000                     _PIE2bits	set	14738
   866   000000                     _PIE3bits	set	14739
   867   000000                     _PIR3bits	set	14755
   868   000000                     _PIR7bits	set	14759
   869   000000                     _U2P1L	set	15828
   870   000000                     _INTCON0bits	set	16338
   871   000000                     _TABLAT	set	16373
   872   000000                     _TBLPTRL	set	16374
   873   000000                     _TBLPTRH	set	16375
   874   000000                     _TBLPTRU	set	16376
   875   000000                     _ADLTHL	set	16094
   876   000000                     _TMR0L	set	16310
   877   000000                     _TMR0H	set	16311
   878   000000                     _T0CON1	set	16313
   879   000000                     _U2ERRIE	set	15842
   880   000000                     _U2ERRIR	set	15841
   881   000000                     _U2UIR	set	15840
   882   000000                     _U2FIFO	set	15839
   883   000000                     _U2BRGH	set	15838
   884   000000                     _U2BRGL	set	15837
   885   000000                     _U2CON2	set	15836
   886   000000                     _U2CON1	set	15835
   887   000000                     _U2CON0	set	15834
   888   000000                     _U2P3H	set	15833
   889   000000                     _U2P3L	set	15832
   890   000000                     _U2P2H	set	15831
   891   000000                     _U2P2L	set	15830
   892   000000                     _U2P1H	set	15829
   893   000000                     _PMD0	set	14784
   894   000000                     _OSCCON1	set	14809
   895   000000                     _NVMADRL	set	14816
   896   000000                     _NVMADRH	set	14817
   897   000000                     _NVMCON1bits	set	14821
   898   000000                     _U2RXB	set	15824
   899   000000                     _U2TXB	set	15826
   900   000000                     _TRISA	set	16322
   901   000000                     _LATC	set	16316
   902   000000                     _LATB	set	16315
   903   000000                     _LATA	set	16314
   904   000000                     _PIR4bits	set	14756
   905   000000                     _PIR0bits	set	14752
   906   000000                     _ADACQL	set	16115
   907   000000                     _T2TMR	set	16298
   908   000000                     _T2PR	set	16299
   909   000000                     _T2HLT	set	16301
   910   000000                     _T2CLKCON	set	16302
   911   000000                     _ADCLK	set	16127
   912   000000                     _ADACT	set	16126
   913   000000                     _ADREF	set	16125
   914   000000                     _ADSTAT	set	16124
   915   000000                     _ADCON3	set	16123
   916   000000                     _ADCON2	set	16122
   917   000000                     _RB0PPS	set	14856
   918   000000                     _RB1PPS	set	14857
   919   000000                     _ANSELA	set	14912
   920   000000                     _ANSELB	set	14928
   921   000000                     _ANSELC	set	14944
   922   000000                     _NVMCON2	set	14822
   923   000000                     _NVMDAT	set	14819
   924   000000                     _PIR2bits	set	14754
   925   000000                     _PORTCbits	set	16332
   926   000000                     _TRISC	set	16324
   927   000000                     _TRISB	set	16323
   928   000000                     _INLVLC	set	14948
   929   000000                     _SLRCONC	set	14947
   930   000000                     _ODCONC	set	14946
   931   000000                     _WPUC	set	14945
   932   000000                     _WPUE	set	14977
   933   000000                     _INLVLB	set	14932
   934   000000                     _SLRCONB	set	14931
   935   000000                     _ODCONB	set	14930
   936   000000                     _WPUB	set	14929
   937   000000                     _INLVLA	set	14916
   938   000000                     _SLRCONA	set	14915
   939   000000                     _ODCONA	set	14914
   940   000000                     _WPUA	set	14913
   941   000000                     _INLVLE	set	14980
   942   000000                     _I2C1SCLPPS	set	15075
   943   000000                     _I2C1SDAPPS	set	15076
   944   000000                     _U2RXPPS	set	15082
   945   000000                     _I2C1RXB	set	15722
   946   000000                     _I2C1CNT	set	15724
   947   000000                     _I2C1CON0	set	15731
   948   000000                     _RB5PPS	set	14861
   949   000000                     _OSCCON3	set	14811
   950   000000                     _OSCEN	set	14813
   951   000000                     _PMD7	set	14791
   952   000000                     _PMD6	set	14790
   953   000000                     _PMD5	set	14789
   954   000000                     _PMD4	set	14788
   955   000000                     _PMD3	set	14787
   956   000000                     _PMD2	set	14786
   957   000000                     _PMD1	set	14785
   958   000000                     _I2C1STAT1bits	set	15736
   959   000000                     _I2C1ERR	set	15734
   960   000000                     _I2C1PIR	set	15737
   961   000000                     _I2C1CLK	set	15739
   962   000000                     _I2C1CON2	set	15733
   963   000000                     _I2C1CON1	set	15732
   964   000000                     _T2RST	set	16303
   965                           
   966                           ; #config settings
   967                           
   968                           	psect	cinit
   969   00155E                     __pcinit:
   970                           	callstack 0
   971   00155E                     start_initialization:
   972                           	callstack 0
   973   00155E                     __initialization:
   974                           	callstack 0
   975                           
   976                           ; Clear objects allocated to BANK1 (54 bytes)
   977   00155E  EE00  F100         	lfsr	0,__pbssBANK1
   978   001562  0E36               	movlw	54
   979   001564                     clear_0:
   980   001564  6AEE               	clrf	postinc0,c
   981   001566  06E8               	decf	wreg,f,c
   982   001568  E1FD               	bnz	clear_0
   983                           
   984                           ; Clear objects allocated to BANK0 (132 bytes)
   985   00156A  EE00  F060         	lfsr	0,__pbssBANK0
   986   00156E  0E84               	movlw	132
   987   001570                     clear_1:
   988   001570  6AEE               	clrf	postinc0,c
   989   001572  06E8               	decf	wreg,f,c
   990   001574  E1FD               	bnz	clear_1
   991                           
   992                           ; Clear objects allocated to COMRAM (39 bytes)
   993   001576  EE00  F031         	lfsr	0,__pbssCOMRAM
   994   00157A  0E27               	movlw	39
   995   00157C                     clear_2:
   996   00157C  6AEE               	clrf	postinc0,c
   997   00157E  06E8               	decf	wreg,f,c
   998   001580  E1FD               	bnz	clear_2
   999                           
  1000                           ;
  1001                           ; Setup IVTBASE
  1002                           ;
  1003   001582  0E08               	movlw	(ivt0x8_base shr 0)& (0+255)
  1004   001584  6ED5               	movwf	213,c
  1005   001586  0E00               	movlw	(ivt0x8_base shr (0+8))& (0+255)
  1006   001588  6ED6               	movwf	214,c
  1007   00158A  0E00               	movlw	(ivt0x8_base shr (0+16))& (0+255)
  1008   00158C  6ED7               	movwf	215,c
  1009   00158E                     end_of_initialization:
  1010                           	callstack 0
  1011   00158E                     __end_of__initialization:
  1012                           	callstack 0
  1013   00158E  0100               	movlb	0
  1014   001590  EF97  F008         	goto	_main	;jump to C main() function
  1015                           
  1016                           	psect	bssCOMRAM
  1017   000031                     __pbssCOMRAM:
  1018                           	callstack 0
  1019   000031                     _width:
  1020                           	callstack 0
  1021   000031                     	ds	2
  1022   000033                     _prec:
  1023                           	callstack 0
  1024   000033                     	ds	2
  1025   000035                     fx_led_show_fail@blink_counter:
  1026                           	callstack 0
  1027   000035                     	ds	2
  1028   000037                     fx_led_show_fail@time_led:
  1029                           	callstack 0
  1030   000037                     	ds	2
  1031   000039                     fx_read_button@counter:
  1032                           	callstack 0
  1033   000039                     	ds	2
  1034   00003B                     _g_adc_2:
  1035                           	callstack 0
  1036   00003B                     	ds	2
  1037   00003D                     _g_adc_1:
  1038                           	callstack 0
  1039   00003D                     	ds	2
  1040   00003F                     _g_bike_status:
  1041                           	callstack 0
  1042   00003F                     	ds	2
  1043   000041                     _timer0ReloadVal16bit:
  1044                           	callstack 0
  1045   000041                     	ds	2
  1046   000043                     _g_wait_time:
  1047                           	callstack 0
  1048   000043                     	ds	2
  1049   000045                     _flags:
  1050                           	callstack 0
  1051   000045                     	ds	1
  1052   000046                     fx_led_show_fail@flag_time:
  1053                           	callstack 0
  1054   000046                     	ds	1
  1055   000047                     fx_led_show_fail@flag_led:
  1056                           	callstack 0
  1057   000047                     	ds	1
  1058   000048                     fx_led_green_slow@flag_led:
  1059                           	callstack 0
  1060   000048                     	ds	1
  1061   000049                     fx_led_green_fast@flag_led:
  1062                           	callstack 0
  1063   000049                     	ds	1
  1064   00004A                     fx_read_button@button_pressed:
  1065                           	callstack 0
  1066   00004A                     	ds	1
  1067   00004B                     control_wdt@last_flag:
  1068                           	callstack 0
  1069   00004B                     	ds	1
  1070   00004C                     control_system@flag_fail:
  1071                           	callstack 0
  1072   00004C                     	ds	1
  1073   00004D                     main@flag_debug:
  1074                           	callstack 0
  1075   00004D                     	ds	1
  1076   00004E                     _g_state_machine:
  1077                           	callstack 0
  1078   00004E                     	ds	1
  1079   00004F                     _g_fail_code:
  1080                           	callstack 0
  1081   00004F                     	ds	1
  1082   000050                     TMR0_ISR@counter_1s:
  1083                           	callstack 0
  1084   000050                     	ds	1
  1085   000051                     _g_flag_timer_1s:
  1086                           	callstack 0
  1087   000051                     	ds	1
  1088   000052                     _g_flag_timer_100ms:
  1089                           	callstack 0
  1090   000052                     	ds	1
  1091   000053                     _uart2RxLastError:
  1092                           	callstack 0
  1093   000053                     	ds	1
  1094   000054                     _g_io_expander1:
  1095                           	callstack 0
  1096   000054                     	ds	4
  1097                           
  1098                           	psect	bssBANK0
  1099   000060                     __pbssBANK0:
  1100                           	callstack 0
  1101   000060                     _I2C1_Status:
  1102                           	callstack 0
  1103   000060                     	ds	36
  1104   000084                     _dbuf:
  1105                           	callstack 0
  1106   000084                     	ds	32
  1107   0000A4                     _g_lock_config:
  1108                           	callstack 0
  1109   0000A4                     	ds	25
  1110   0000BD                     _g_can_validation_messages:
  1111                           	callstack 0
  1112   0000BD                     	ds	12
  1113   0000C9                     _g_hall_current:
  1114                           	callstack 0
  1115   0000C9                     	ds	10
  1116   0000D3                     _g_hall_start:
  1117                           	callstack 0
  1118   0000D3                     	ds	10
  1119   0000DD                     _g_lock_serial:
  1120                           	callstack 0
  1121   0000DD                     	ds	7
  1122                           
  1123                           	psect	bssBANK1
  1124   000100                     __pbssBANK1:
  1125                           	callstack 0
  1126   000100                     _g_lock_status:
  1127                           	callstack 0
  1128   000100                     	ds	28
  1129   00011C                     _g_can_messages:
  1130                           	callstack 0
  1131   00011C                     	ds	26
  1132                           
  1133                           	psect	cstackCOMRAM
  1134   000001                     __pcstackCOMRAM:
  1135                           	callstack 0
  1136   000001                     ??_INTERRUPT_InterruptManager:
  1137   000001                     
  1138                           ; 1 bytes @ 0x0
  1139   000001                     	ds	2
  1140   000003                     ??_control_wdt:
  1141   000003                     ??_fx_led_green_slow:
  1142   000003                     ??_fx_led_green_fast:
  1143   000003                     ?_ADCC_GetSingleConversion:
  1144                           	callstack 0
  1145   000003                     ?___awdiv:
  1146                           	callstack 0
  1147   000003                     ?___awmod:
  1148                           	callstack 0
  1149   000003                     ?___lwdiv:
  1150                           	callstack 0
  1151   000003                     UART2_Write@txData:
  1152                           	callstack 0
  1153   000003                     I2C1_Open@address:
  1154                           	callstack 0
  1155   000003                     I2C1_Close@returnValue:
  1156                           	callstack 0
  1157   000003                     I2C1_MasterSendTxData@data:
  1158                           	callstack 0
  1159   000003                     I2C1_MasterSetCounter@counter:
  1160                           	callstack 0
  1161   000003                     fx_led_show_fail@fail_code:
  1162                           	callstack 0
  1163   000003                     UART2_SetFramingErrorHandler@interruptHandler:
  1164                           	callstack 0
  1165   000003                     UART2_SetOverrunErrorHandler@interruptHandler:
  1166                           	callstack 0
  1167   000003                     UART2_SetErrorHandler@interruptHandler:
  1168                           	callstack 0
  1169   000003                     TMR0_SetInterruptHandler@InterruptHandler:
  1170                           	callstack 0
  1171   000003                     I2C1_SetBuffer@buffer:
  1172                           	callstack 0
  1173   000003                     I2C1_SetCallback@cb:
  1174                           	callstack 0
  1175   000003                     ___awdiv@dividend:
  1176                           	callstack 0
  1177   000003                     ___awmod@dividend:
  1178                           	callstack 0
  1179   000003                     ___lwdiv@dividend:
  1180                           	callstack 0
  1181                           
  1182                           ; 2 bytes @ 0x2
  1183   000003                     	ds	1
  1184   000004                     putch@txData:
  1185                           	callstack 0
  1186   000004                     I2C1_Open@returnValue:
  1187                           	callstack 0
  1188                           
  1189                           ; 1 bytes @ 0x3
  1190   000004                     	ds	1
  1191   000005                     ??_TMR0_Initialize:
  1192   000005                     ??_ADCC_GetSingleConversion:
  1193   000005                     I2C1_SetBuffer@bufferSize:
  1194                           	callstack 0
  1195   000005                     I2C1_SetCallback@ptr:
  1196                           	callstack 0
  1197   000005                     ___awdiv@divisor:
  1198                           	callstack 0
  1199   000005                     ___awmod@divisor:
  1200                           	callstack 0
  1201   000005                     ___lwdiv@divisor:
  1202                           	callstack 0
  1203   000005                     fputc@c:
  1204                           	callstack 0
  1205                           
  1206                           ; 2 bytes @ 0x4
  1207   000005                     	ds	2
  1208   000007                     ADCC_GetSingleConversion@channel:
  1209                           	callstack 0
  1210   000007                     I2C1_SetCallback@idx:
  1211                           	callstack 0
  1212   000007                     ___awdiv@counter:
  1213                           	callstack 0
  1214   000007                     ___awmod@counter:
  1215                           	callstack 0
  1216   000007                     ___lwdiv@quotient:
  1217                           	callstack 0
  1218   000007                     fputc@fp:
  1219                           	callstack 0
  1220                           
  1221                           ; 2 bytes @ 0x6
  1222   000007                     	ds	1
  1223   000008                     ___awdiv@sign:
  1224                           	callstack 0
  1225   000008                     ___awmod@sign:
  1226                           	callstack 0
  1227   000008                     I2C1_SetDataCompleteCallback@cb:
  1228                           	callstack 0
  1229   000008                     I2C1_SetAddressNackCallback@cb:
  1230                           	callstack 0
  1231                           
  1232                           ; 2 bytes @ 0x7
  1233   000008                     	ds	1
  1234   000009                     ??_fputc:
  1235   000009                     ?_abs:
  1236                           	callstack 0
  1237   000009                     ___lwdiv@counter:
  1238                           	callstack 0
  1239   000009                     ___awdiv@quotient:
  1240                           	callstack 0
  1241   000009                     abs@a:
  1242                           	callstack 0
  1243                           
  1244                           ; 2 bytes @ 0x8
  1245   000009                     	ds	1
  1246   00000A                     I2C1_SetDataCompleteCallback@ptr:
  1247                           	callstack 0
  1248   00000A                     I2C1_SetAddressNackCallback@ptr:
  1249                           	callstack 0
  1250   00000A                     fx_read_adc@adc_1:
  1251                           	callstack 0
  1252                           
  1253                           ; 2 bytes @ 0x9
  1254   00000A                     	ds	1
  1255   00000B                     ??_abs:
  1256                           
  1257                           ; 1 bytes @ 0xA
  1258   00000B                     	ds	1
  1259   00000C                     rd1RegCompleteHandler@ptr:
  1260                           	callstack 0
  1261   00000C                     rd2RegCompleteHandler@ptr:
  1262                           	callstack 0
  1263   00000C                     wr1RegCompleteHandler@ptr:
  1264                           	callstack 0
  1265   00000C                     wr2RegCompleteHandler@ptr:
  1266                           	callstack 0
  1267   00000C                     rdBlkRegCompleteHandler@ptr:
  1268                           	callstack 0
  1269   00000C                     I2C1_CallbackReturnReset@funPtr:
  1270                           	callstack 0
  1271   00000C                     fx_read_adc@adc_2:
  1272                           	callstack 0
  1273                           
  1274                           ; 2 bytes @ 0xB
  1275   00000C                     	ds	2
  1276   00000E                     ??_rdBlkRegCompleteHandler:
  1277   00000E                     fx_read_adc@i:
  1278                           	callstack 0
  1279   00000E                     vfpfcnvrt@fp:
  1280                           	callstack 0
  1281                           
  1282                           ; 2 bytes @ 0xD
  1283   00000E                     	ds	1
  1284   00000F                     ??_I2C1_DO_TX:
  1285   00000F                     ??_I2C1_DO_TX_EMPTY:
  1286   00000F                     ??_I2C1_DO_RX_EMPTY:
  1287   00000F                     ??_I2C1_DO_ADDRESS_NACK:
  1288   00000F                     ??_I2C1_DO_BUS_COLLISION:
  1289                           
  1290                           ; 1 bytes @ 0xE
  1291   00000F                     	ds	1
  1292   000010                     vfpfcnvrt@fmt:
  1293                           	callstack 0
  1294                           
  1295                           ; 1 bytes @ 0xF
  1296   000010                     	ds	1
  1297   000011                     ??_I2C1_DO_RX:
  1298   000011                     vfpfcnvrt@ap:
  1299                           	callstack 0
  1300   000011                     _I2C1_DO_TX$1983:
  1301                           	callstack 0
  1302                           
  1303                           ; 2 bytes @ 0x10
  1304   000011                     	ds	1
  1305   000012                     ??_vfpfcnvrt:
  1306                           
  1307                           ; 1 bytes @ 0x11
  1308   000012                     	ds	1
  1309   000013                     I2C1_DO_TX@dataTx:
  1310                           	callstack 0
  1311   000013                     I2C1_DO_RX@retFsmState:
  1312                           	callstack 0
  1313                           
  1314                           ; 1 bytes @ 0x12
  1315   000013                     	ds	1
  1316   000014                     I2C1_DO_TX@retFsmState:
  1317                           	callstack 0
  1318   000014                     vfpfcnvrt@done:
  1319                           	callstack 0
  1320                           
  1321                           ; 1 bytes @ 0x13
  1322   000014                     	ds	1
  1323   000015                     ??_I2C1_MasterFsm:
  1324   000015                     vfpfcnvrt@cp:
  1325                           	callstack 0
  1326                           
  1327                           ; 2 bytes @ 0x14
  1328   000015                     	ds	2
  1329   000017                     I2C1_MasterOperation@read:
  1330                           	callstack 0
  1331   000017                     vfpfcnvrt@convarg:
  1332                           	callstack 0
  1333                           
  1334                           ; 4 bytes @ 0x16
  1335   000017                     	ds	1
  1336   000018                     I2C1_MasterOperation@returnValue:
  1337                           	callstack 0
  1338                           
  1339                           ; 1 bytes @ 0x17
  1340   000018                     	ds	1
  1341   000019                     I2C1_Write1ByteRegister@reg:
  1342                           	callstack 0
  1343                           
  1344                           ; 1 bytes @ 0x18
  1345   000019                     	ds	1
  1346   00001A                     I2C1_Write1ByteRegister@data:
  1347                           	callstack 0
  1348                           
  1349                           ; 1 bytes @ 0x19
  1350   00001A                     	ds	1
  1351   00001B                     I2C1_Write1ByteRegister@address:
  1352                           	callstack 0
  1353   00001B                     vfpfcnvrt@c:
  1354                           	callstack 0
  1355                           
  1356                           ; 1 bytes @ 0x1A
  1357   00001B                     	ds	1
  1358   00001C                     ?_vfprintf:
  1359                           	callstack 0
  1360   00001C                     IO_ConfigPorts@ioStruct:
  1361                           	callstack 0
  1362   00001C                     vfprintf@fp:
  1363                           	callstack 0
  1364                           
  1365                           ; 2 bytes @ 0x1B
  1366   00001C                     	ds	1
  1367   00001D                     IO_ConfigPorts@port:
  1368                           	callstack 0
  1369                           
  1370                           ; 1 bytes @ 0x1C
  1371   00001D                     	ds	1
  1372   00001E                     vfprintf@fmt:
  1373                           	callstack 0
  1374                           
  1375                           ; 2 bytes @ 0x1D
  1376   00001E                     	ds	2
  1377   000020                     vfprintf@ap:
  1378                           	callstack 0
  1379                           
  1380                           ; 1 bytes @ 0x1F
  1381   000020                     	ds	1
  1382   000021                     vfprintf@cfmt:
  1383                           	callstack 0
  1384                           
  1385                           ; 2 bytes @ 0x20
  1386   000021                     	ds	2
  1387   000023                     ?_printf:
  1388                           	callstack 0
  1389   000023                     printf@fmt:
  1390                           	callstack 0
  1391                           
  1392                           ; 2 bytes @ 0x22
  1393   000023                     	ds	6
  1394   000029                     printf@ap:
  1395                           	callstack 0
  1396                           
  1397                           ; 1 bytes @ 0x28
  1398   000029                     	ds	1
  1399   00002A                     IO_SetPin@ioStruct:
  1400                           	callstack 0
  1401   00002A                     IO_ResetPin@ioStruct:
  1402                           	callstack 0
  1403                           
  1404                           ; 1 bytes @ 0x29
  1405   00002A                     	ds	1
  1406   00002B                     IO_SetPin@pin:
  1407                           	callstack 0
  1408   00002B                     IO_ResetPin@pin:
  1409                           	callstack 0
  1410                           
  1411                           ; 1 bytes @ 0x2A
  1412   00002B                     	ds	1
  1413   00002C                     ??_IO_SetPin:
  1414   00002C                     ??_IO_ResetPin:
  1415                           
  1416                           ; 1 bytes @ 0x2B
  1417   00002C                     	ds	2
  1418   00002E                     IO_SetPin@mask:
  1419                           	callstack 0
  1420   00002E                     IO_ResetPin@mask:
  1421                           	callstack 0
  1422                           
  1423                           ; 1 bytes @ 0x2D
  1424   00002E                     	ds	1
  1425   00002F                     ??_control_system:
  1426                           
  1427                           ; 1 bytes @ 0x2E
  1428   00002F                     	ds	2
  1429   000031                     
  1430                           ; 1 bytes @ 0x30
  1431 ;;
  1432 ;;Main: autosize = 0, tempsize = 0, incstack = 0, save=0
  1433 ;;
  1434 ;; *************** function _main *****************
  1435 ;; Defined at:
  1436 ;;		line 119 in file "main.c"
  1437 ;; Parameters:    Size  Location     Type
  1438 ;;		None
  1439 ;; Auto vars:     Size  Location     Type
  1440 ;;		None
  1441 ;; Return value:  Size  Location     Type
  1442 ;;                  1    wreg      void 
  1443 ;; Registers used:
  1444 ;;		wreg, fsr1l, fsr1h, fsr2l, fsr2h, status,2, status,0, pcl, pclath, pclatu, tosl, tblptrl, tblptrh, tblptru, prodl, p
      +rodh, cstack
  1445 ;; Tracked objects:
  1446 ;;		On entry : 0/0
  1447 ;;		On exit  : 0/0
  1448 ;;		Unchanged: 0/0
  1449 ;; Data sizes:     COMRAM   BANK0   BANK1   BANK2   BANK3   BANK4   BANK5   BANK6   BANK7   BANK8   BANK9  BANK10  BANK1
      +1  BANK12  BANK13  BANK14  BANK15
  1450 ;;      Params:         0       0       0       0       0       0       0       0       0       0       0       0       
      +0       0       0       0       0
  1451 ;;      Locals:         0       0       0       0       0       0       0       0       0       0       0       0       
      +0       0       0       0       0
  1452 ;;      Temps:          0       0       0       0       0       0       0       0       0       0       0       0       
      +0       0       0       0       0
  1453 ;;      Totals:         0       0       0       0       0       0       0       0       0       0       0       0       
      +0       0       0       0       0
  1454 ;;Total ram usage:        0 bytes
  1455 ;; Hardware stack levels required when called: 17
  1456 ;; This function calls:
  1457 ;;		_SYSTEM_Initialize
  1458 ;;		_control_system
  1459 ;;		_control_wdt
  1460 ;;		_fx_read_adc
  1461 ;;		_fx_system_start
  1462 ;;		_printf
  1463 ;; This function is called by:
  1464 ;;		Startup code after reset
  1465 ;; This function uses a non-reentrant model
  1466 ;;
  1467                           
  1468                           	psect	text0
  1469   00112E                     __ptext0:
  1470                           	callstack 0
  1471   00112E                     _main:
  1472                           	callstack 14
  1473   00112E                     
  1474                           ;main.c: 122:     SYSTEM_Initialize();
  1475   00112E  EC96  F00B         	call	_SYSTEM_Initialize	;wreg free
  1476   001132                     
  1477                           ;main.c: 125:     (INTCON0bits.GIE = 0);
  1478   001132  9ED2               	bcf	210,7,c	;volatile
  1479   001134                     
  1480                           ;main.c: 127:     fx_system_start();
  1481   001134  ECAF  F005         	call	_fx_system_start	;wreg free
  1482   001138                     
  1483                           ;main.c: 134:     (INTCON0bits.GIE = 1);
  1484   001138  8ED2               	bsf	210,7,c	;volatile
  1485   00113A                     l5201:
  1486                           
  1487                           ;main.c: 137:     {;main.c: 138:         control_wdt();
  1488   00113A  EC18  F00A         	call	_control_wdt	;wreg free
  1489                           
  1490                           ;main.c: 139:         control_system();
  1491   00113E  EC0F  F000         	call	_control_system	;wreg free
  1492   001142                     
  1493                           ;main.c: 142:         static _Bool flag_debug = 0;;main.c: 144:         if(flag_debug !=
      +                           g_flag_timer_1s)
  1494   001142  5051               	movf	_g_flag_timer_1s^0,w,c
  1495   001144  184D               	xorwf	main@flag_debug^0,w,c
  1496   001146  B4D8               	btfsc	status,2,c
  1497   001148  EFA8  F008         	goto	u2941
  1498   00114C  EFAA  F008         	goto	u2940
  1499   001150                     u2941:
  1500   001150  EF9D  F008         	goto	l5201
  1501   001154                     u2940:
  1502   001154                     
  1503                           ;main.c: 145:         {;main.c: 146:             flag_debug = g_flag_timer_1s;
  1504   001154  C051  F04D         	movff	_g_flag_timer_1s,main@flag_debug
  1505   001158                     
  1506                           ;main.c: 148:             printf("state machine %d \r\n", g_state_machine);
  1507   001158  0EA3               	movlw	low STR_1
  1508   00115A  6E23               	movwf	printf@fmt^0,c
  1509   00115C  0EFF               	movlw	high STR_1
  1510   00115E  6E24               	movwf	(printf@fmt+1)^0,c
  1511   001160  C04E  F025         	movff	_g_state_machine,?_printf+2
  1512   001164  6A26               	clrf	(?_printf+3)^0,c
  1513   001166  ECEF  F00B         	call	_printf	;wreg free
  1514   00116A                     
  1515                           ;main.c: 150:             fx_read_adc();
  1516   00116A  ECF0  F005         	call	_fx_read_adc	;wreg free
  1517   00116E                     
  1518                           ;main.c: 151:             printf("adc1=%d, adc2=%d \r\n", g_adc_1, g_adc_2);
  1519   00116E  0EB7               	movlw	low STR_2
  1520   001170  6E23               	movwf	printf@fmt^0,c
  1521   001172  0EFF               	movlw	high STR_2
  1522   001174  6E24               	movwf	(printf@fmt+1)^0,c
  1523   001176  C03D  F025         	movff	_g_adc_1,?_printf+2
  1524   00117A  C03E  F026         	movff	_g_adc_1+1,?_printf+3
  1525   00117E  C03B  F027         	movff	_g_adc_2,?_printf+4
  1526   001182  C03C  F028         	movff	_g_adc_2+1,?_printf+5
  1527   001186  ECEF  F00B         	call	_printf	;wreg free
  1528   00118A  EF9D  F008         	goto	l5201
  1529   00118E  EF0D  F000         	goto	start
  1530   001192                     __end_of_main:
  1531                           	callstack 0
  1532                           
  1533 ;; *************** function _fx_system_start *****************
  1534 ;; Defined at:
  1535 ;;		line 505 in file "main.c"
  1536 ;; Parameters:    Size  Location     Type
  1537 ;;		None
  1538 ;; Auto vars:     Size  Location     Type
  1539 ;;		None
  1540 ;; Return value:  Size  Location     Type
  1541 ;;                  1    wreg      void 
  1542 ;; Registers used:
  1543 ;;		wreg, fsr1l, fsr1h, fsr2l, fsr2h, status,2, status,0, pcl, pclath, pclatu, tosl, tblptrl, tblptrh, tblptru, prodl, p
      +rodh, cstack
  1544 ;; Tracked objects:
  1545 ;;		On entry : 0/0
  1546 ;;		On exit  : 0/0
  1547 ;;		Unchanged: 0/0
  1548 ;; Data sizes:     COMRAM   BANK0   BANK1   BANK2   BANK3   BANK4   BANK5   BANK6   BANK7   BANK8   BANK9  BANK10  BANK1
      +1  BANK12  BANK13  BANK14  BANK15
  1549 ;;      Params:         0       0       0       0       0       0       0       0       0       0       0       0       
      +0       0       0       0       0
  1550 ;;      Locals:         0       0       0       0       0       0       0       0       0       0       0       0       
      +0       0       0       0       0
  1551 ;;      Temps:          0       0       0       0       0       0       0       0       0       0       0       0       
      +0       0       0       0       0
  1552 ;;      Totals:         0       0       0       0       0       0       0       0       0       0       0       0       
      +0       0       0       0       0
  1553 ;;Total ram usage:        0 bytes
  1554 ;; Hardware stack levels used: 1
  1555 ;; Hardware stack levels required when called: 16
  1556 ;; This function calls:
  1557 ;;		_IO_ConfigPorts
  1558 ;;		_IO_ResetPin
  1559 ;;		_printf
  1560 ;; This function is called by:
  1561 ;;		_main
  1562 ;; This function uses a non-reentrant model
  1563 ;;
  1564                           
  1565                           	psect	text1
  1566   000B5E                     __ptext1:
  1567                           	callstack 0
  1568   000B5E                     _fx_system_start:
  1569                           	callstack 14
  1570   000B5E                     
  1571                           ;main.c: 507:     printf("Start System - Starting \r\n");
  1572   000B5E  0EF2               	movlw	low STR_13
  1573   000B60  6E23               	movwf	printf@fmt^0,c
  1574   000B62  0EFE               	movlw	high STR_13
  1575   000B64  6E24               	movwf	(printf@fmt+1)^0,c
  1576   000B66  ECEF  F00B         	call	_printf	;wreg free
  1577                           
  1578                           ;main.c: 509:     printf("Start System - EEPROM \r\n");
  1579   000B6A  0E5B               	movlw	low STR_14
  1580   000B6C  6E23               	movwf	printf@fmt^0,c
  1581   000B6E  0EFF               	movlw	high STR_14
  1582   000B70  6E24               	movwf	(printf@fmt+1)^0,c
  1583   000B72  ECEF  F00B         	call	_printf	;wreg free
  1584                           
  1585                           ;main.c: 511:     printf("Start System - IO Expander \r\n");
  1586   000B76  0E9D               	movlw	low STR_15
  1587   000B78  6E23               	movwf	printf@fmt^0,c
  1588   000B7A  0EFE               	movlw	high STR_15
  1589   000B7C  6E24               	movwf	(printf@fmt+1)^0,c
  1590   000B7E  ECEF  F00B         	call	_printf	;wreg free
  1591   000B82                     
  1592                           ;main.c: 512:     IO_ConfigPorts(&g_io_expander1, 0x00);
  1593   000B82  0E54               	movlw	low _g_io_expander1
  1594   000B84  6E1C               	movwf	IO_ConfigPorts@ioStruct^0,c
  1595   000B86  0E00               	movlw	0
  1596   000B88  6E1D               	movwf	IO_ConfigPorts@port^0,c
  1597   000B8A  EC52  F009         	call	_IO_ConfigPorts	;wreg free
  1598   000B8E                     
  1599                           ;main.c: 514:     printf("Start System - Reloading Default Values \r\n");
  1600   000B8E  0ECB               	movlw	low STR_16
  1601   000B90  6E23               	movwf	printf@fmt^0,c
  1602   000B92  0EFD               	movlw	high STR_16
  1603   000B94  6E24               	movwf	(printf@fmt+1)^0,c
  1604   000B96  ECEF  F00B         	call	_printf	;wreg free
  1605   000B9A                     
  1606                           ;main.c: 516:     printf("Start System - Starting Pins \r\n");
  1607   000B9A  0E5F               	movlw	low STR_17
  1608   000B9C  6E23               	movwf	printf@fmt^0,c
  1609   000B9E  0EFE               	movlw	high STR_17
  1610   000BA0  6E24               	movwf	(printf@fmt+1)^0,c
  1611   000BA2  ECEF  F00B         	call	_printf	;wreg free
  1612   000BA6  86BA               	bsf	186,3,c	;volatile
  1613   000BA8  84BA               	bsf	186,2,c	;volatile
  1614   000BAA  9ABC               	bcf	188,5,c	;volatile
  1615   000BAC                     
  1616                           ;main.c: 520:     IO_ResetPin(&g_io_expander1, 1);
  1617   000BAC  0E54               	movlw	low _g_io_expander1
  1618   000BAE  6E2A               	movwf	IO_ResetPin@ioStruct^0,c
  1619   000BB0  0E01               	movlw	1
  1620   000BB2  6E2B               	movwf	IO_ResetPin@pin^0,c
  1621   000BB4  ECE3  F006         	call	_IO_ResetPin	;wreg free
  1622   000BB8                     
  1623                           ;main.c: 522:     printf("Start System - Starting PS / PS \r\n");
  1624   000BB8  0E1B               	movlw	low STR_18
  1625   000BBA  6E23               	movwf	printf@fmt^0,c
  1626   000BBC  0EFE               	movlw	high STR_18
  1627   000BBE  6E24               	movwf	(printf@fmt+1)^0,c
  1628   000BC0  ECEF  F00B         	call	_printf	;wreg free
  1629   000BC4  90BC               	bcf	188,0,c	;volatile
  1630   000BC6                     
  1631                           ;main.c: 524:     IO_ResetPin(&g_io_expander1, 0);
  1632   000BC6  0E54               	movlw	low _g_io_expander1
  1633   000BC8  6E2A               	movwf	IO_ResetPin@ioStruct^0,c
  1634   000BCA  0E00               	movlw	0
  1635   000BCC  6E2B               	movwf	IO_ResetPin@pin^0,c
  1636   000BCE  ECE3  F006         	call	_IO_ResetPin	;wreg free
  1637   000BD2                     
  1638                           ;main.c: 526:     printf("Start System - Finished \r\n");
  1639   000BD2  0ED7               	movlw	low STR_19
  1640   000BD4  6E23               	movwf	printf@fmt^0,c
  1641   000BD6  0EFE               	movlw	high STR_19
  1642   000BD8  6E24               	movwf	(printf@fmt+1)^0,c
  1643   000BDA  ECEF  F00B         	call	_printf	;wreg free
  1644   000BDE  0012               	return		;funcret
  1645   000BE0                     __end_of_fx_system_start:
  1646                           	callstack 0
  1647                           
  1648 ;; *************** function _IO_ConfigPorts *****************
  1649 ;; Defined at:
  1650 ;;		line 11 in file "header_files/tca9534.c"
  1651 ;; Parameters:    Size  Location     Type
  1652 ;;  ioStruct        1   27[COMRAM] PTR struct .
  1653 ;;		 -> g_io_expander1(4), 
  1654 ;;  port            1   28[COMRAM] unsigned char 
  1655 ;; Auto vars:     Size  Location     Type
  1656 ;;		None
  1657 ;; Return value:  Size  Location     Type
  1658 ;;                  1    wreg      void 
  1659 ;; Registers used:
  1660 ;;		wreg, fsr2l, fsr2h, status,2, status,0, pcl, pclath, pclatu, tosl, tblptrl, tblptrh, tblptru, prodl, prodh, cstack
  1661 ;; Tracked objects:
  1662 ;;		On entry : 0/0
  1663 ;;		On exit  : 0/0
  1664 ;;		Unchanged: 0/0
  1665 ;; Data sizes:     COMRAM   BANK0   BANK1   BANK2   BANK3   BANK4   BANK5   BANK6   BANK7   BANK8   BANK9  BANK10  BANK1
      +1  BANK12  BANK13  BANK14  BANK15
  1666 ;;      Params:         2       0       0       0       0       0       0       0       0       0       0       0       
      +0       0       0       0       0
  1667 ;;      Locals:         0       0       0       0       0       0       0       0       0       0       0       0       
      +0       0       0       0       0
  1668 ;;      Temps:          0       0       0       0       0       0       0       0       0       0       0       0       
      +0       0       0       0       0
  1669 ;;      Totals:         2       0       0       0       0       0       0       0       0       0       0       0       
      +0       0       0       0       0
  1670 ;;Total ram usage:        2 bytes
  1671 ;; Hardware stack levels used: 1
  1672 ;; Hardware stack levels required when called: 15
  1673 ;; This function calls:
  1674 ;;		_I2C1_Write1ByteRegister
  1675 ;; This function is called by:
  1676 ;;		_fx_system_start
  1677 ;; This function uses a non-reentrant model
  1678 ;;
  1679                           
  1680                           	psect	text2
  1681   0012A4                     __ptext2:
  1682                           	callstack 0
  1683   0012A4                     _IO_ConfigPorts:
  1684                           	callstack 14
  1685   0012A4                     
  1686                           ;header_files/tca9534.c: 11: void IO_ConfigPorts(IO_StructTypedef *ioStruct, uint8_t por
      +                          t);header_files/tca9534.c: 12: {;header_files/tca9534.c: 14:     ioStruct->address = 0x2
      +                          0;
  1687   0012A4  501C               	movf	IO_ConfigPorts@ioStruct^0,w,c
  1688   0012A6  6ED9               	movwf	fsr2l,c
  1689   0012A8  6ADA               	clrf	fsr2h,c
  1690   0012AA  0E20               	movlw	32
  1691   0012AC  6EDF               	movwf	indf2,c
  1692   0012AE                     
  1693                           ;header_files/tca9534.c: 15:     ioStruct->inImage = 0x00;
  1694   0012AE  501C               	movf	IO_ConfigPorts@ioStruct^0,w,c
  1695   0012B0  6ED9               	movwf	fsr2l,c
  1696   0012B2  6ADA               	clrf	fsr2h,c
  1697   0012B4  0E03               	movlw	3
  1698   0012B6  26D9               	addwf	fsr2l,f,c
  1699   0012B8  6ADF               	clrf	indf2,c
  1700   0012BA                     
  1701                           ;header_files/tca9534.c: 16:     ioStruct->outImage = 0x00;
  1702   0012BA  501C               	movf	IO_ConfigPorts@ioStruct^0,w,c
  1703   0012BC  6ED9               	movwf	fsr2l,c
  1704   0012BE  6ADA               	clrf	fsr2h,c
  1705   0012C0  0E02               	movlw	2
  1706   0012C2  26D9               	addwf	fsr2l,f,c
  1707   0012C4  6ADF               	clrf	indf2,c
  1708   0012C6                     
  1709                           ;header_files/tca9534.c: 17:     ioStruct->ioConfig = port;
  1710   0012C6  501C               	movf	IO_ConfigPorts@ioStruct^0,w,c
  1711   0012C8  6ED9               	movwf	fsr2l,c
  1712   0012CA  6ADA               	clrf	fsr2h,c
  1713   0012CC  0E01               	movlw	1
  1714   0012CE  26D9               	addwf	fsr2l,f,c
  1715   0012D0  0060  F077  FFDF   	movff	IO_ConfigPorts@port,indf2
  1716   0012D6                     
  1717                           ;header_files/tca9534.c: 19:     I2C1_Write1ByteRegister(ioStruct->address, IO_REG_CONFI
      +                          G, ioStruct->ioConfig);
  1718   0012D6  0E03               	movlw	3
  1719   0012D8  6E19               	movwf	I2C1_Write1ByteRegister@reg^0,c
  1720   0012DA  501C               	movf	IO_ConfigPorts@ioStruct^0,w,c
  1721   0012DC  6ED9               	movwf	fsr2l,c
  1722   0012DE  6ADA               	clrf	fsr2h,c
  1723   0012E0  0E01               	movlw	1
  1724   0012E2  26D9               	addwf	fsr2l,f,c
  1725   0012E4  50DF               	movf	indf2,w,c
  1726   0012E6  6E1A               	movwf	I2C1_Write1ByteRegister@data^0,c
  1727   0012E8  501C               	movf	IO_ConfigPorts@ioStruct^0,w,c
  1728   0012EA  6ED9               	movwf	fsr2l,c
  1729   0012EC  6ADA               	clrf	fsr2h,c
  1730   0012EE  50DF               	movf	indf2,w,c
  1731   0012F0  EC8C  F007         	call	_I2C1_Write1ByteRegister
  1732   0012F4  0012               	return		;funcret
  1733   0012F6                     __end_of_IO_ConfigPorts:
  1734                           	callstack 0
  1735                           
  1736 ;; *************** function _control_wdt *****************
  1737 ;; Defined at:
  1738 ;;		line 329 in file "main.c"
  1739 ;; Parameters:    Size  Location     Type
  1740 ;;		None
  1741 ;; Auto vars:     Size  Location     Type
  1742 ;;		None
  1743 ;; Return value:  Size  Location     Type
  1744 ;;                  1    wreg      void 
  1745 ;; Registers used:
  1746 ;;		wreg, status,2, status,0
  1747 ;; Tracked objects:
  1748 ;;		On entry : 0/0
  1749 ;;		On exit  : 0/0
  1750 ;;		Unchanged: 0/0
  1751 ;; Data sizes:     COMRAM   BANK0   BANK1   BANK2   BANK3   BANK4   BANK5   BANK6   BANK7   BANK8   BANK9  BANK10  BANK1
      +1  BANK12  BANK13  BANK14  BANK15
  1752 ;;      Params:         0       0       0       0       0       0       0       0       0       0       0       0       
      +0       0       0       0       0
  1753 ;;      Locals:         0       0       0       0       0       0       0       0       0       0       0       0       
      +0       0       0       0       0
  1754 ;;      Temps:          1       0       0       0       0       0       0       0       0       0       0       0       
      +0       0       0       0       0
  1755 ;;      Totals:         1       0       0       0       0       0       0       0       0       0       0       0       
      +0       0       0       0       0
  1756 ;;Total ram usage:        1 bytes
  1757 ;; Hardware stack levels used: 1
  1758 ;; Hardware stack levels required when called: 3
  1759 ;; This function calls:
  1760 ;;		Nothing
  1761 ;; This function is called by:
  1762 ;;		_main
  1763 ;; This function uses a non-reentrant model
  1764 ;;
  1765                           
  1766                           	psect	text3
  1767   001430                     __ptext3:
  1768                           	callstack 0
  1769   001430                     _control_wdt:
  1770                           	callstack 27
  1771   001430                     
  1772                           ;main.c: 331:     static _Bool last_flag = 0;;main.c: 333:     if(g_flag_timer_100ms != 
      +                          last_flag)
  1773   001430  504B               	movf	control_wdt@last_flag^0,w,c
  1774   001432  1852               	xorwf	_g_flag_timer_100ms^0,w,c
  1775   001434  B4D8               	btfsc	status,2,c
  1776   001436  EF1F  F00A         	goto	u2681
  1777   00143A  EF21  F00A         	goto	u2680
  1778   00143E                     u2681:
  1779   00143E  EF36  F00A         	goto	l1268
  1780   001442                     u2680:
  1781   001442                     
  1782                           ;main.c: 334:     {;main.c: 335:         last_flag = g_flag_timer_100ms;
  1783   001442  C052  F04B         	movff	_g_flag_timer_100ms,control_wdt@last_flag
  1784   001446  BABA               	btfsc	186,5,c	;volatile
  1785   001448  EF28  F00A         	goto	u2691
  1786   00144C  EF2B  F00A         	goto	u2690
  1787   001450                     u2691:
  1788   001450  0E01               	movlw	1
  1789   001452  EF2C  F00A         	goto	u2696
  1790   001456                     u2690:
  1791   001456  0E00               	movlw	0
  1792   001458                     u2696:
  1793   001458  0AFF               	xorlw	255
  1794   00145A  6E03               	movwf	??_control_wdt^0,c
  1795   00145C  3A03               	swapf	??_control_wdt^0,f,c
  1796   00145E  4603               	rlncf	??_control_wdt^0,f,c
  1797   001460  50BA               	movf	186,w,c	;volatile
  1798   001462  1803               	xorwf	??_control_wdt^0,w,c
  1799   001464  0BDF               	andlw	-33
  1800   001466  1803               	xorwf	??_control_wdt^0,w,c
  1801   001468  6EBA               	movwf	186,c	;volatile
  1802   00146A  0004               	clrwdt		;# 
  1803   00146C                     l1268:
  1804   00146C  0012               	return		;funcret
  1805   00146E                     __end_of_control_wdt:
  1806                           	callstack 0
  1807                           
  1808 ;; *************** function _control_system *****************
  1809 ;; Defined at:
  1810 ;;		line 157 in file "main.c"
  1811 ;; Parameters:    Size  Location     Type
  1812 ;;		None
  1813 ;; Auto vars:     Size  Location     Type
  1814 ;;		None
  1815 ;; Return value:  Size  Location     Type
  1816 ;;                  1    wreg      void 
  1817 ;; Registers used:
  1818 ;;		wreg, fsr1l, fsr1h, fsr2l, fsr2h, status,2, status,0, pcl, pclath, pclatu, tosl, tblptrl, tblptrh, tblptru, prodl, p
      +rodh, cstack
  1819 ;; Tracked objects:
  1820 ;;		On entry : 0/0
  1821 ;;		On exit  : 0/0
  1822 ;;		Unchanged: 0/0
  1823 ;; Data sizes:     COMRAM   BANK0   BANK1   BANK2   BANK3   BANK4   BANK5   BANK6   BANK7   BANK8   BANK9  BANK10  BANK1
      +1  BANK12  BANK13  BANK14  BANK15
  1824 ;;      Params:         0       0       0       0       0       0       0       0       0       0       0       0       
      +0       0       0       0       0
  1825 ;;      Locals:         0       0       0       0       0       0       0       0       0       0       0       0       
      +0       0       0       0       0
  1826 ;;      Temps:          2       0       0       0       0       0       0       0       0       0       0       0       
      +0       0       0       0       0
  1827 ;;      Totals:         2       0       0       0       0       0       0       0       0       0       0       0       
      +0       0       0       0       0
  1828 ;;Total ram usage:        2 bytes
  1829 ;; Hardware stack levels used: 1
  1830 ;; Hardware stack levels required when called: 16
  1831 ;; This function calls:
  1832 ;;		_IO_ResetPin
  1833 ;;		_IO_SetPin
  1834 ;;		_fx_led_green_fast
  1835 ;;		_fx_led_green_slow
  1836 ;;		_fx_led_show_fail
  1837 ;;		_fx_read_adc
  1838 ;;		_fx_read_button
  1839 ;;		_printf
  1840 ;; This function is called by:
  1841 ;;		_main
  1842 ;; This function uses a non-reentrant model
  1843 ;;
  1844                           
  1845                           	psect	text4
  1846   00001E                     __ptext4:
  1847                           	callstack 0
  1848   00001E                     _control_system:
  1849                           	callstack 14
  1850   00001E                     
  1851                           ;main.c: 159:     switch (g_state_machine)
  1852   00001E  EF26  F001         	goto	l5087
  1853   000022                     l1217:
  1854   000022  86BA               	bsf	186,3,c	;volatile
  1855   000024                     
  1856                           ;main.c: 165:             fx_led_green_slow();
  1857   000024  EC37  F00A         	call	_fx_led_green_slow	;wreg free
  1858                           
  1859                           ;main.c: 167:             if(1 == fx_read_button())
  1860   000028  EC25  F009         	call	_fx_read_button	;wreg free
  1861   00002C  06E8               	decf	wreg,f,c
  1862   00002E  A4D8               	btfss	status,2,c
  1863   000030  EF1C  F000         	goto	u2701
  1864   000034  EF1E  F000         	goto	u2700
  1865   000038                     u2701:
  1866   000038  EF5B  F001         	goto	l1260
  1867   00003C                     u2700:
  1868   00003C                     
  1869                           ;main.c: 168:             {;main.c: 169:                 g_state_machine++;
  1870   00003C  2A4E               	incf	_g_state_machine^0,f,c
  1871   00003E                     
  1872                           ;main.c: 170:                 printf("Button detected \r\n");
  1873   00003E  0EDE               	movlw	low STR_3
  1874   000040  6E23               	movwf	printf@fmt^0,c
  1875   000042  0EFF               	movlw	high STR_3
  1876   000044  6E24               	movwf	(printf@fmt+1)^0,c
  1877   000046  ECEF  F00B         	call	_printf	;wreg free
  1878   00004A  EF5B  F001         	goto	l1260
  1879   00004E                     l1221:
  1880                           
  1881                           ;main.c: 177:         {;main.c: 178:             if(0 == PORTCbits.RC3)
  1882   00004E  B6CC               	btfsc	204,3,c	;volatile
  1883   000050  EF2C  F000         	goto	u2711
  1884   000054  EF2E  F000         	goto	u2710
  1885   000058                     u2711:
  1886   000058  EF37  F000         	goto	l4987
  1887   00005C                     u2710:
  1888   00005C                     
  1889                           ;main.c: 179:             {;main.c: 180:                 printf("Frame connected \r\n");
  1890   00005C  0ECB               	movlw	low STR_4
  1891   00005E  6E23               	movwf	printf@fmt^0,c
  1892   000060  0EFF               	movlw	high STR_4
  1893   000062  6E24               	movwf	(printf@fmt+1)^0,c
  1894   000064  ECEF  F00B         	call	_printf	;wreg free
  1895   000068                     l4985:
  1896                           
  1897                           ;main.c: 181:                 g_state_machine++;
  1898   000068  2A4E               	incf	_g_state_machine^0,f,c
  1899                           
  1900                           ;main.c: 182:             }
  1901   00006A  EF5B  F001         	goto	l1260
  1902   00006E                     l4987:
  1903                           
  1904                           ;main.c: 184:             {;main.c: 185:                 printf("Frame not connected \r\
      +                          n");
  1905   00006E  0E8C               	movlw	low STR_5
  1906   000070  6E23               	movwf	printf@fmt^0,c
  1907   000072  0EFF               	movlw	high STR_5
  1908   000074  6E24               	movwf	(printf@fmt+1)^0,c
  1909   000076  ECEF  F00B         	call	_printf	;wreg free
  1910   00007A                     
  1911                           ;main.c: 187:                 g_fail_code = ENUM_FAIL_FRAME_CONNECTION;
  1912   00007A  0E02               	movlw	2
  1913   00007C  6E4F               	movwf	_g_fail_code^0,c
  1914   00007E                     l4991:
  1915                           
  1916                           ;main.c: 188:                 g_state_machine = ENUM_STAGE_FAIL;
  1917   00007E  0E08               	movlw	8
  1918   000080  6E4E               	movwf	_g_state_machine^0,c
  1919   000082  EF5B  F001         	goto	l1260
  1920   000086                     l4993:
  1921                           
  1922                           ;main.c: 195:         {;main.c: 196:             printf("Relay positive powered \r\n");
  1923   000086  0E41               	movlw	low STR_6
  1924   000088  6E23               	movwf	printf@fmt^0,c
  1925   00008A  0EFF               	movlw	high STR_6
  1926   00008C  6E24               	movwf	(printf@fmt+1)^0,c
  1927   00008E  ECEF  F00B         	call	_printf	;wreg free
  1928   000092                     
  1929                           ;main.c: 197:             IO_SetPin(&g_io_expander1, 1);
  1930   000092  0E54               	movlw	low _g_io_expander1
  1931   000094  6E2A               	movwf	IO_SetPin@ioStruct^0,c
  1932   000096  0E01               	movlw	1
  1933   000098  6E2B               	movwf	IO_SetPin@pin^0,c
  1934   00009A  EC1C  F007         	call	_IO_SetPin	;wreg free
  1935   00009E                     
  1936                           ;main.c: 199:             g_wait_time = 15;
  1937   00009E  0E00               	movlw	0
  1938   0000A0  6E44               	movwf	(_g_wait_time+1)^0,c
  1939   0000A2  0E0F               	movlw	15
  1940   0000A4  6E43               	movwf	_g_wait_time^0,c
  1941   0000A6  EF34  F000         	goto	l4985
  1942   0000AA                     l5001:
  1943                           
  1944                           ;main.c: 206:         {;main.c: 207:             fx_led_green_fast();
  1945   0000AA  EC55  F00A         	call	_fx_led_green_fast	;wreg free
  1946   0000AE                     
  1947                           ;main.c: 210:             if(0 == g_wait_time)
  1948   0000AE  5043               	movf	_g_wait_time^0,w,c
  1949   0000B0  1044               	iorwf	(_g_wait_time+1)^0,w,c
  1950   0000B2  A4D8               	btfss	status,2,c
  1951   0000B4  EF5E  F000         	goto	u2721
  1952   0000B8  EF60  F000         	goto	u2720
  1953   0000BC                     u2721:
  1954   0000BC  EF5B  F001         	goto	l1260
  1955   0000C0                     u2720:
  1956   0000C0                     
  1957                           ;main.c: 211:             {;main.c: 212:                 fx_read_adc();
  1958   0000C0  ECF0  F005         	call	_fx_read_adc	;wreg free
  1959   0000C4                     
  1960                           ;main.c: 214:                 if((g_adc_1 > 4000) &&
  1961   0000C4  0EA1               	movlw	161
  1962   0000C6  5C3D               	subwf	_g_adc_1^0,w,c
  1963   0000C8  0E0F               	movlw	15
  1964   0000CA  583E               	subwfb	(_g_adc_1+1)^0,w,c
  1965   0000CC  A0D8               	btfss	status,0,c
  1966   0000CE  EF6B  F000         	goto	u2731
  1967   0000D2  EF6D  F000         	goto	u2730
  1968   0000D6                     u2731:
  1969   0000D6  EF80  F000         	goto	l5015
  1970   0000DA                     u2730:
  1971   0000DA  0EA1               	movlw	161
  1972   0000DC  5C3B               	subwf	_g_adc_2^0,w,c
  1973   0000DE  0E0F               	movlw	15
  1974   0000E0  583C               	subwfb	(_g_adc_2+1)^0,w,c
  1975   0000E2  A0D8               	btfss	status,0,c
  1976   0000E4  EF76  F000         	goto	u2741
  1977   0000E8  EF78  F000         	goto	u2740
  1978   0000EC                     u2741:
  1979   0000EC  EF80  F000         	goto	l5015
  1980   0000F0                     u2740:
  1981   0000F0                     
  1982                           ;main.c: 216:                 {;main.c: 217:                     printf("Short circuit n
      +                          ot detected \r\n");
  1983   0000F0  0E7F               	movlw	low STR_7
  1984   0000F2  6E23               	movwf	printf@fmt^0,c
  1985   0000F4  0EFE               	movlw	high STR_7
  1986   0000F6  6E24               	movwf	(printf@fmt+1)^0,c
  1987   0000F8  ECEF  F00B         	call	_printf	;wreg free
  1988   0000FC  EF34  F000         	goto	l4985
  1989   000100                     l5015:
  1990                           
  1991                           ;main.c: 221:                 {;main.c: 222:                     printf("Short circuit w
      +                          ith frame detected \r\n");
  1992   000100  0EF6               	movlw	low STR_8
  1993   000102  6E23               	movwf	printf@fmt^0,c
  1994   000104  0EFD               	movlw	high STR_8
  1995   000106  6E24               	movwf	(printf@fmt+1)^0,c
  1996   000108  ECEF  F00B         	call	_printf	;wreg free
  1997   00010C                     
  1998                           ;main.c: 224:                     g_fail_code = ENUM_FAIL_SHORT_FRAME;
  1999   00010C  0E03               	movlw	3
  2000   00010E  6E4F               	movwf	_g_fail_code^0,c
  2001   000110  EF3F  F000         	goto	l4991
  2002   000114                     l5021:
  2003                           
  2004                           ;main.c: 233:         {;main.c: 234:             printf("Relay negative powered \r\n");
  2005   000114  0E27               	movlw	low STR_9
  2006   000116  6E23               	movwf	printf@fmt^0,c
  2007   000118  0EFF               	movlw	high STR_9
  2008   00011A  6E24               	movwf	(printf@fmt+1)^0,c
  2009   00011C  ECEF  F00B         	call	_printf	;wreg free
  2010   000120  8ABC               	bsf	188,5,c	;volatile
  2011   000122                     
  2012                           ;main.c: 237:             g_wait_time = 100;
  2013   000122  0E00               	movlw	0
  2014   000124  6E44               	movwf	(_g_wait_time+1)^0,c
  2015   000126  0E64               	movlw	100
  2016   000128  6E43               	movwf	_g_wait_time^0,c
  2017   00012A  EF34  F000         	goto	l4985
  2018   00012E                     l5029:
  2019                           
  2020                           ;main.c: 244:         {;main.c: 245:             fx_led_green_fast();
  2021   00012E  EC55  F00A         	call	_fx_led_green_fast	;wreg free
  2022   000132                     
  2023                           ;main.c: 247:             if(0 == g_wait_time)
  2024   000132  5043               	movf	_g_wait_time^0,w,c
  2025   000134  1044               	iorwf	(_g_wait_time+1)^0,w,c
  2026   000136  A4D8               	btfss	status,2,c
  2027   000138  EFA0  F000         	goto	u2751
  2028   00013C  EFA2  F000         	goto	u2750
  2029   000140                     u2751:
  2030   000140  EF5B  F001         	goto	l1260
  2031   000144                     u2750:
  2032   000144                     
  2033                           ;main.c: 248:             {;main.c: 249:                 fx_read_adc();
  2034   000144  ECF0  F005         	call	_fx_read_adc	;wreg free
  2035   000148                     
  2036                           ;main.c: 251:                 if((g_adc_1 < 100) &&
  2037   000148  503E               	movf	(_g_adc_1+1)^0,w,c
  2038   00014A  E107               	bnz	u2761
  2039   00014C  0E64               	movlw	100
  2040   00014E  5C3D               	subwf	_g_adc_1^0,w,c
  2041   000150  B0D8               	btfsc	status,0,c
  2042   000152  EFAD  F000         	goto	u2761
  2043   000156  EFAF  F000         	goto	u2760
  2044   00015A                     u2761:
  2045   00015A  EFC2  F000         	goto	l5043
  2046   00015E                     u2760:
  2047   00015E  503C               	movf	(_g_adc_2+1)^0,w,c
  2048   000160  E107               	bnz	u2771
  2049   000162  0E64               	movlw	100
  2050   000164  5C3B               	subwf	_g_adc_2^0,w,c
  2051   000166  B0D8               	btfsc	status,0,c
  2052   000168  EFB8  F000         	goto	u2771
  2053   00016C  EFBA  F000         	goto	u2770
  2054   000170                     u2771:
  2055   000170  EFC2  F000         	goto	l5043
  2056   000174                     u2770:
  2057   000174                     
  2058                           ;main.c: 253:                 {;main.c: 254:                     printf("Contact voltage
      +                           OK!! \r\n");
  2059   000174  0E74               	movlw	low STR_10
  2060   000176  6E23               	movwf	printf@fmt^0,c
  2061   000178  0EFF               	movlw	high STR_10
  2062   00017A  6E24               	movwf	(printf@fmt+1)^0,c
  2063   00017C  ECEF  F00B         	call	_printf	;wreg free
  2064   000180  EF34  F000         	goto	l4985
  2065   000184                     l5043:
  2066                           
  2067                           ;main.c: 258:                 {;main.c: 259:                     printf("Contact voltage
      +                           high detected \r\n");
  2068   000184  0E3E               	movlw	low STR_11
  2069   000186  6E23               	movwf	printf@fmt^0,c
  2070   000188  0EFE               	movlw	high STR_11
  2071   00018A  6E24               	movwf	(printf@fmt+1)^0,c
  2072   00018C  ECEF  F00B         	call	_printf	;wreg free
  2073   000190                     
  2074                           ;main.c: 261:                     g_fail_code = ENUM_FAIL_HIGH_VOLTAGE;
  2075   000190  0E04               	movlw	4
  2076   000192  6E4F               	movwf	_g_fail_code^0,c
  2077   000194  EF3F  F000         	goto	l4991
  2078   000198                     l5049:
  2079                           
  2080                           ;main.c: 269:         {;main.c: 270:             printf("Relays OFF \r\n");
  2081   000198  0EF1               	movlw	low STR_12
  2082   00019A  6E23               	movwf	printf@fmt^0,c
  2083   00019C  0EFF               	movlw	high STR_12
  2084   00019E  6E24               	movwf	(printf@fmt+1)^0,c
  2085   0001A0  ECEF  F00B         	call	_printf	;wreg free
  2086   0001A4                     
  2087                           ;main.c: 272:             g_wait_time = 50;
  2088   0001A4  0E00               	movlw	0
  2089   0001A6  6E44               	movwf	(_g_wait_time+1)^0,c
  2090   0001A8  0E32               	movlw	50
  2091   0001AA  6E43               	movwf	_g_wait_time^0,c
  2092   0001AC                     
  2093                           ;main.c: 273:             IO_ResetPin(&g_io_expander1, 1);
  2094   0001AC  0E54               	movlw	low _g_io_expander1
  2095   0001AE  6E2A               	movwf	IO_ResetPin@ioStruct^0,c
  2096   0001B0  0E01               	movlw	1
  2097   0001B2  6E2B               	movwf	IO_ResetPin@pin^0,c
  2098   0001B4  ECE3  F006         	call	_IO_ResetPin	;wreg free
  2099   0001B8  9ABC               	bcf	188,5,c	;volatile
  2100   0001BA                     
  2101                           ;main.c: 276:             g_state_machine = ENUM_STAGE_SUCESS;
  2102   0001BA  0E07               	movlw	7
  2103   0001BC  6E4E               	movwf	_g_state_machine^0,c
  2104                           
  2105                           ;main.c: 277:         };main.c: 278:         break;
  2106   0001BE  EF5B  F001         	goto	l1260
  2107   0001C2                     l1240:
  2108   0001C2  86BA               	bsf	186,3,c	;volatile
  2109   0001C4  94BA               	bcf	186,2,c	;volatile
  2110   0001C6                     
  2111                           ;main.c: 285:             if(0 == g_wait_time)
  2112   0001C6  5043               	movf	_g_wait_time^0,w,c
  2113   0001C8  1044               	iorwf	(_g_wait_time+1)^0,w,c
  2114   0001CA  A4D8               	btfss	status,2,c
  2115   0001CC  EFEA  F000         	goto	u2781
  2116   0001D0  EFEC  F000         	goto	u2780
  2117   0001D4                     u2781:
  2118   0001D4  EF5B  F001         	goto	l1260
  2119   0001D8                     u2780:
  2120   0001D8  86BA               	bsf	186,3,c	;volatile
  2121   0001DA  84BA               	bsf	186,2,c	;volatile
  2122   0001DC                     l5061:
  2123                           
  2124                           ;main.c: 289:                 g_state_machine = ENUM_STAGE_1;
  2125   0001DC  0E00               	movlw	0
  2126   0001DE  6E4E               	movwf	_g_state_machine^0,c
  2127   0001E0  EF5B  F001         	goto	l1260
  2128   0001E4                     l5063:
  2129                           
  2130                           ;main.c: 295:         {;main.c: 296:             static _Bool flag_fail = 0;;main.c: 298
      +                          :             if(0 == flag_fail)
  2131   0001E4  504C               	movf	control_system@flag_fail^0,w,c
  2132   0001E6  A4D8               	btfss	status,2,c
  2133   0001E8  EFF8  F000         	goto	u2791
  2134   0001EC  EFFA  F000         	goto	u2790
  2135   0001F0                     u2791:
  2136   0001F0  EF07  F001         	goto	l5075
  2137   0001F4                     u2790:
  2138   0001F4                     
  2139                           ;main.c: 299:             {;main.c: 300:                 flag_fail = 1;
  2140   0001F4  0E01               	movlw	1
  2141   0001F6  6E4C               	movwf	control_system@flag_fail^0,c
  2142   0001F8  84BA               	bsf	186,2,c	;volatile
  2143   0001FA                     
  2144                           ;main.c: 303:                 IO_ResetPin(&g_io_expander1, 1);
  2145   0001FA  0E54               	movlw	low _g_io_expander1
  2146   0001FC  6E2A               	movwf	IO_ResetPin@ioStruct^0,c
  2147   0001FE  0E01               	movlw	1
  2148   000200  6E2B               	movwf	IO_ResetPin@pin^0,c
  2149   000202  ECE3  F006         	call	_IO_ResetPin	;wreg free
  2150   000206  9ABC               	bcf	188,5,c	;volatile
  2151   000208                     
  2152                           ;main.c: 305:                 fx_led_show_fail(0);
  2153   000208  0E00               	movlw	0
  2154   00020A  EC59  F003         	call	_fx_led_show_fail
  2155   00020E                     l5075:
  2156                           
  2157                           ;main.c: 308:             fx_led_show_fail(g_fail_code);
  2158   00020E  504F               	movf	_g_fail_code^0,w,c
  2159   000210  EC59  F003         	call	_fx_led_show_fail
  2160   000214                     
  2161                           ;main.c: 310:             if(1 == fx_read_button())
  2162   000214  EC25  F009         	call	_fx_read_button	;wreg free
  2163   000218  06E8               	decf	wreg,f,c
  2164   00021A  A4D8               	btfss	status,2,c
  2165   00021C  EF12  F001         	goto	u2801
  2166   000220  EF14  F001         	goto	u2800
  2167   000224                     u2801:
  2168   000224  EF5B  F001         	goto	l1260
  2169   000228                     u2800:
  2170   000228                     
  2171                           ;main.c: 311:             {;main.c: 312:                 flag_fail = 0;
  2172   000228  0E00               	movlw	0
  2173   00022A  6E4C               	movwf	control_system@flag_fail^0,c
  2174                           
  2175                           ;main.c: 313:                 g_state_machine = ENUM_STAGE_WAIT_BT;
  2176   00022C  0E09               	movlw	9
  2177   00022E  6E4E               	movwf	_g_state_machine^0,c
  2178   000230  EF5B  F001         	goto	l1260
  2179   000234                     l5081:
  2180                           
  2181                           ;main.c: 319:         {;main.c: 320:             if(0 == fx_read_button())
  2182   000234  EC25  F009         	call	_fx_read_button	;wreg free
  2183   000238  0900               	iorlw	0
  2184   00023A  A4D8               	btfss	status,2,c
  2185   00023C  EF22  F001         	goto	u2811
  2186   000240  EF24  F001         	goto	u2810
  2187   000244                     u2811:
  2188   000244  EF5B  F001         	goto	l1260
  2189   000248                     u2810:
  2190   000248  EFEE  F000         	goto	l5061
  2191   00024C                     l5087:
  2192   00024C  504E               	movf	_g_state_machine^0,w,c
  2193   00024E  6E2F               	movwf	??_control_system^0,c
  2194   000250  6A30               	clrf	(??_control_system+1)^0,c
  2195                           
  2196                           ; Switch on 2 bytes has been partitioned into a top level switch of size 1, and 1 sub-sw
      +                          itches
  2197                           ; Switch size 1, requested type "simple"
  2198                           ; Number of cases is 1, Range of values is 0 to 0
  2199                           ; switch strategies available:
  2200                           ; Name         Instructions Cycles
  2201                           ; simple_byte            4     3 (average)
  2202                           ;	Chosen strategy is simple_byte
  2203   000252  5030               	movf	(??_control_system+1)^0,w,c
  2204   000254  0A00               	xorlw	0	; case 0
  2205   000256  B4D8               	btfsc	status,2,c
  2206   000258  EF30  F001         	goto	l5351
  2207   00025C  EF5B  F001         	goto	l1260
  2208   000260                     l5351:
  2209                           
  2210                           ; Switch size 1, requested type "simple"
  2211                           ; Number of cases is 10, Range of values is 0 to 9
  2212                           ; switch strategies available:
  2213                           ; Name         Instructions Cycles
  2214                           ; simple_byte           31    16 (average)
  2215                           ;	Chosen strategy is simple_byte
  2216   000260  502F               	movf	??_control_system^0,w,c
  2217   000262  0A00               	xorlw	0	; case 0
  2218   000264  B4D8               	btfsc	status,2,c
  2219   000266  EF11  F000         	goto	l1217
  2220   00026A  0A01               	xorlw	1	; case 1
  2221   00026C  B4D8               	btfsc	status,2,c
  2222   00026E  EF27  F000         	goto	l1221
  2223   000272  0A03               	xorlw	3	; case 2
  2224   000274  B4D8               	btfsc	status,2,c
  2225   000276  EF43  F000         	goto	l4993
  2226   00027A  0A01               	xorlw	1	; case 3
  2227   00027C  B4D8               	btfsc	status,2,c
  2228   00027E  EF55  F000         	goto	l5001
  2229   000282  0A07               	xorlw	7	; case 4
  2230   000284  B4D8               	btfsc	status,2,c
  2231   000286  EF8A  F000         	goto	l5021
  2232   00028A  0A01               	xorlw	1	; case 5
  2233   00028C  B4D8               	btfsc	status,2,c
  2234   00028E  EF97  F000         	goto	l5029
  2235   000292  0A03               	xorlw	3	; case 6
  2236   000294  B4D8               	btfsc	status,2,c
  2237   000296  EFCC  F000         	goto	l5049
  2238   00029A  0A01               	xorlw	1	; case 7
  2239   00029C  B4D8               	btfsc	status,2,c
  2240   00029E  EFE1  F000         	goto	l1240
  2241   0002A2  0A0F               	xorlw	15	; case 8
  2242   0002A4  B4D8               	btfsc	status,2,c
  2243   0002A6  EFF2  F000         	goto	l5063
  2244   0002AA  0A01               	xorlw	1	; case 9
  2245   0002AC  B4D8               	btfsc	status,2,c
  2246   0002AE  EF1A  F001         	goto	l5081
  2247   0002B2  EF5B  F001         	goto	l1260
  2248   0002B6                     l1260:
  2249   0002B6  0012               	return		;funcret
  2250   0002B8                     __end_of_control_system:
  2251                           	callstack 0
  2252                           
  2253 ;; *************** function _fx_read_button *****************
  2254 ;; Defined at:
  2255 ;;		line 390 in file "main.c"
  2256 ;; Parameters:    Size  Location     Type
  2257 ;;		None
  2258 ;; Auto vars:     Size  Location     Type
  2259 ;;		None
  2260 ;; Return value:  Size  Location     Type
  2261 ;;                  1    wreg      _Bool 
  2262 ;; Registers used:
  2263 ;;		wreg, status,2, status,0
  2264 ;; Tracked objects:
  2265 ;;		On entry : 0/0
  2266 ;;		On exit  : 0/0
  2267 ;;		Unchanged: 0/0
  2268 ;; Data sizes:     COMRAM   BANK0   BANK1   BANK2   BANK3   BANK4   BANK5   BANK6   BANK7   BANK8   BANK9  BANK10  BANK1
      +1  BANK12  BANK13  BANK14  BANK15
  2269 ;;      Params:         0       0       0       0       0       0       0       0       0       0       0       0       
      +0       0       0       0       0
  2270 ;;      Locals:         0       0       0       0       0       0       0       0       0       0       0       0       
      +0       0       0       0       0
  2271 ;;      Temps:          0       0       0       0       0       0       0       0       0       0       0       0       
      +0       0       0       0       0
  2272 ;;      Totals:         0       0       0       0       0       0       0       0       0       0       0       0       
      +0       0       0       0       0
  2273 ;;Total ram usage:        0 bytes
  2274 ;; Hardware stack levels used: 1
  2275 ;; Hardware stack levels required when called: 3
  2276 ;; This function calls:
  2277 ;;		Nothing
  2278 ;; This function is called by:
  2279 ;;		_control_system
  2280 ;; This function uses a non-reentrant model
  2281 ;;
  2282                           
  2283                           	psect	text5
  2284   00124A                     __ptext5:
  2285                           	callstack 0
  2286   00124A                     _fx_read_button:
  2287                           	callstack 26
  2288   00124A                     
  2289                           ;main.c: 392:     static _Bool button_pressed = 0;;main.c: 393:     static uint16_t coun
      +                          ter = 0;;main.c: 395:     if(0 == PORTCbits.RC4)
  2290   00124A  B8CC               	btfsc	204,4,c	;volatile
  2291   00124C  EF2A  F009         	goto	u2341
  2292   001250  EF2C  F009         	goto	u2340
  2293   001254                     u2341:
  2294   001254  EF3F  F009         	goto	l4783
  2295   001258                     u2340:
  2296   001258                     
  2297                           ;main.c: 396:     {;main.c: 397:         if(counter > 100)
  2298   001258  503A               	movf	(fx_read_button@counter+1)^0,w,c
  2299   00125A  E109               	bnz	u2350
  2300   00125C  0E65               	movlw	101
  2301   00125E  5C39               	subwf	fx_read_button@counter^0,w,c
  2302   001260  A0D8               	btfss	status,0,c
  2303   001262  EF35  F009         	goto	u2351
  2304   001266  EF37  F009         	goto	u2350
  2305   00126A                     u2351:
  2306   00126A  EF3B  F009         	goto	l4781
  2307   00126E                     u2350:
  2308   00126E                     
  2309                           ;main.c: 398:         {;main.c: 399:             button_pressed = 1;
  2310   00126E  0E01               	movlw	1
  2311   001270  6E4A               	movwf	fx_read_button@button_pressed^0,c
  2312                           
  2313                           ;main.c: 400:         }
  2314   001272  EF50  F009         	goto	l4793
  2315   001276                     l4781:
  2316                           
  2317                           ;main.c: 402:         {;main.c: 403:             counter++;
  2318   001276  4A39               	infsnz	fx_read_button@counter^0,f,c
  2319   001278  2A3A               	incf	(fx_read_button@counter+1)^0,f,c
  2320   00127A  EF50  F009         	goto	l4793
  2321   00127E                     l4783:
  2322                           
  2323                           ;main.c: 407:     {;main.c: 408:         counter = 0;
  2324   00127E  0E00               	movlw	0
  2325   001280  6E3A               	movwf	(fx_read_button@counter+1)^0,c
  2326   001282  0E00               	movlw	0
  2327   001284  6E39               	movwf	fx_read_button@counter^0,c
  2328   001286                     
  2329                           ;main.c: 410:         if(1 == button_pressed)
  2330   001286  044A               	decf	fx_read_button@button_pressed^0,w,c
  2331   001288  A4D8               	btfss	status,2,c
  2332   00128A  EF49  F009         	goto	u2361
  2333   00128E  EF4B  F009         	goto	u2360
  2334   001292                     u2361:
  2335   001292  EF50  F009         	goto	l4793
  2336   001296                     u2360:
  2337   001296                     
  2338                           ;main.c: 411:         {;main.c: 412:             button_pressed = 0;
  2339   001296  0E00               	movlw	0
  2340   001298  6E4A               	movwf	fx_read_button@button_pressed^0,c
  2341   00129A                     
  2342                           ;main.c: 413:             return 1;
  2343   00129A  0E01               	movlw	1
  2344   00129C  EF51  F009         	goto	l1297
  2345   0012A0                     l4793:
  2346                           
  2347                           ;main.c: 417:     return 0;
  2348   0012A0  0E00               	movlw	0
  2349   0012A2                     l1297:
  2350   0012A2  0012               	return		;funcret
  2351   0012A4                     __end_of_fx_read_button:
  2352                           	callstack 0
  2353                           
  2354 ;; *************** function _fx_read_adc *****************
  2355 ;; Defined at:
  2356 ;;		line 375 in file "main.c"
  2357 ;; Parameters:    Size  Location     Type
  2358 ;;		None
  2359 ;; Auto vars:     Size  Location     Type
  2360 ;;  i               1   13[COMRAM] unsigned char 
  2361 ;;  adc_2           2   11[COMRAM] unsigned short 
  2362 ;;  adc_1           2    9[COMRAM] unsigned short 
  2363 ;; Return value:  Size  Location     Type
  2364 ;;                  1    wreg      void 
  2365 ;; Registers used:
  2366 ;;		wreg, status,2, status,0, cstack
  2367 ;; Tracked objects:
  2368 ;;		On entry : 0/0
  2369 ;;		On exit  : 0/0
  2370 ;;		Unchanged: 0/0
  2371 ;; Data sizes:     COMRAM   BANK0   BANK1   BANK2   BANK3   BANK4   BANK5   BANK6   BANK7   BANK8   BANK9  BANK10  BANK1
      +1  BANK12  BANK13  BANK14  BANK15
  2372 ;;      Params:         0       0       0       0       0       0       0       0       0       0       0       0       
      +0       0       0       0       0
  2373 ;;      Locals:         5       0       0       0       0       0       0       0       0       0       0       0       
      +0       0       0       0       0
  2374 ;;      Temps:          0       0       0       0       0       0       0       0       0       0       0       0       
      +0       0       0       0       0
  2375 ;;      Totals:         5       0       0       0       0       0       0       0       0       0       0       0       
      +0       0       0       0       0
  2376 ;;Total ram usage:        5 bytes
  2377 ;; Hardware stack levels used: 1
  2378 ;; Hardware stack levels required when called: 4
  2379 ;; This function calls:
  2380 ;;		_ADCC_GetSingleConversion
  2381 ;;		___lwdiv
  2382 ;; This function is called by:
  2383 ;;		_main
  2384 ;;		_control_system
  2385 ;; This function uses a non-reentrant model
  2386 ;;
  2387                           
  2388                           	psect	text6
  2389   000BE0                     __ptext6:
  2390                           	callstack 0
  2391   000BE0                     _fx_read_adc:
  2392                           	callstack 26
  2393   000BE0                     
  2394                           ;main.c: 377:     uint16_t adc_1 = 0;
  2395   000BE0  0E00               	movlw	0
  2396   000BE2  6E0B               	movwf	(fx_read_adc@adc_1+1)^0,c
  2397   000BE4  0E00               	movlw	0
  2398   000BE6  6E0A               	movwf	fx_read_adc@adc_1^0,c
  2399                           
  2400                           ;main.c: 378:     uint16_t adc_2 = 0;
  2401   000BE8  0E00               	movlw	0
  2402   000BEA  6E0D               	movwf	(fx_read_adc@adc_2+1)^0,c
  2403   000BEC  0E00               	movlw	0
  2404   000BEE  6E0C               	movwf	fx_read_adc@adc_2^0,c
  2405                           
  2406                           ;main.c: 380:     for (uint8_t i = 0; i < 10; i++)
  2407   000BF0  0E00               	movlw	0
  2408   000BF2  6E0E               	movwf	fx_read_adc@i^0,c
  2409   000BF4                     l4761:
  2410                           
  2411                           ;main.c: 381:     {;main.c: 382:         adc_1 += ADCC_GetSingleConversion(0);
  2412   000BF4  0E00               	movlw	0
  2413   000BF6  ECE4  F00A         	call	_ADCC_GetSingleConversion
  2414   000BFA  5003               	movf	?_ADCC_GetSingleConversion^0,w,c
  2415   000BFC  260A               	addwf	fx_read_adc@adc_1^0,f,c
  2416   000BFE  5004               	movf	(?_ADCC_GetSingleConversion+1)^0,w,c
  2417   000C00  220B               	addwfc	(fx_read_adc@adc_1+1)^0,f,c
  2418                           
  2419                           ;main.c: 383:         adc_2 += ADCC_GetSingleConversion(1);
  2420   000C02  0E01               	movlw	1
  2421   000C04  ECE4  F00A         	call	_ADCC_GetSingleConversion
  2422   000C08  5003               	movf	?_ADCC_GetSingleConversion^0,w,c
  2423   000C0A  260C               	addwf	fx_read_adc@adc_2^0,f,c
  2424   000C0C  5004               	movf	(?_ADCC_GetSingleConversion+1)^0,w,c
  2425   000C0E  220D               	addwfc	(fx_read_adc@adc_2+1)^0,f,c
  2426   000C10                     
  2427                           ;main.c: 384:     }
  2428   000C10  2A0E               	incf	fx_read_adc@i^0,f,c
  2429   000C12  0E09               	movlw	9
  2430   000C14  640E               	cpfsgt	fx_read_adc@i^0,c
  2431   000C16  EF0F  F006         	goto	u2311
  2432   000C1A  EF11  F006         	goto	u2310
  2433   000C1E                     u2311:
  2434   000C1E  EFFA  F005         	goto	l4761
  2435   000C22                     u2310:
  2436   000C22                     
  2437                           ;main.c: 386:     g_adc_1 = adc_1 / 10;
  2438   000C22  C00A  F003         	movff	fx_read_adc@adc_1,___lwdiv@dividend
  2439   000C26  C00B  F004         	movff	fx_read_adc@adc_1+1,___lwdiv@dividend+1
  2440   000C2A  0E00               	movlw	0
  2441   000C2C  6E06               	movwf	(___lwdiv@divisor+1)^0,c
  2442   000C2E  0E0A               	movlw	10
  2443   000C30  6E05               	movwf	___lwdiv@divisor^0,c
  2444   000C32  ECA9  F006         	call	___lwdiv	;wreg free
  2445   000C36  C003  F03D         	movff	?___lwdiv,_g_adc_1
  2446   000C3A  C004  F03E         	movff	?___lwdiv+1,_g_adc_1+1
  2447                           
  2448                           ;main.c: 387:     g_adc_2 = adc_2 / 10;
  2449   000C3E  C00C  F003         	movff	fx_read_adc@adc_2,___lwdiv@dividend
  2450   000C42  C00D  F004         	movff	fx_read_adc@adc_2+1,___lwdiv@dividend+1
  2451   000C46  0E00               	movlw	0
  2452   000C48  6E06               	movwf	(___lwdiv@divisor+1)^0,c
  2453   000C4A  0E0A               	movlw	10
  2454   000C4C  6E05               	movwf	___lwdiv@divisor^0,c
  2455   000C4E  ECA9  F006         	call	___lwdiv	;wreg free
  2456   000C52  C003  F03B         	movff	?___lwdiv,_g_adc_2
  2457   000C56  C004  F03C         	movff	?___lwdiv+1,_g_adc_2+1
  2458   000C5A  0012               	return		;funcret
  2459   000C5C                     __end_of_fx_read_adc:
  2460                           	callstack 0
  2461                           
  2462 ;; *************** function ___lwdiv *****************
  2463 ;; Defined at:
  2464 ;;		line 7 in file "C:\Program Files\Microchip\xc8\v2.45\pic\sources\c99\common\lwdiv.c"
  2465 ;; Parameters:    Size  Location     Type
  2466 ;;  dividend        2    2[COMRAM] unsigned int 
  2467 ;;  divisor         2    4[COMRAM] unsigned int 
  2468 ;; Auto vars:     Size  Location     Type
  2469 ;;  quotient        2    6[COMRAM] unsigned int 
  2470 ;;  counter         1    8[COMRAM] unsigned char 
  2471 ;; Return value:  Size  Location     Type
  2472 ;;                  2    2[COMRAM] unsigned int 
  2473 ;; Registers used:
  2474 ;;		wreg, status,2, status,0
  2475 ;; Tracked objects:
  2476 ;;		On entry : 0/0
  2477 ;;		On exit  : 0/0
  2478 ;;		Unchanged: 0/0
  2479 ;; Data sizes:     COMRAM   BANK0   BANK1   BANK2   BANK3   BANK4   BANK5   BANK6   BANK7   BANK8   BANK9  BANK10  BANK1
      +1  BANK12  BANK13  BANK14  BANK15
  2480 ;;      Params:         4       0       0       0       0       0       0       0       0       0       0       0       
      +0       0       0       0       0
  2481 ;;      Locals:         3       0       0       0       0       0       0       0       0       0       0       0       
      +0       0       0       0       0
  2482 ;;      Temps:          0       0       0       0       0       0       0       0       0       0       0       0       
      +0       0       0       0       0
  2483 ;;      Totals:         7       0       0       0       0       0       0       0       0       0       0       0       
      +0       0       0       0       0
  2484 ;;Total ram usage:        7 bytes
  2485 ;; Hardware stack levels used: 1
  2486 ;; Hardware stack levels required when called: 3
  2487 ;; This function calls:
  2488 ;;		Nothing
  2489 ;; This function is called by:
  2490 ;;		_fx_read_adc
  2491 ;; This function uses a non-reentrant model
  2492 ;;
  2493                           
  2494                           	psect	text7
  2495   000D52                     __ptext7:
  2496                           	callstack 0
  2497   000D52                     ___lwdiv:
  2498                           	callstack 26
  2499   000D52  0E00               	movlw	0
  2500   000D54  6E08               	movwf	(___lwdiv@quotient+1)^0,c
  2501   000D56  0E00               	movlw	0
  2502   000D58  6E07               	movwf	___lwdiv@quotient^0,c
  2503   000D5A  5005               	movf	___lwdiv@divisor^0,w,c
  2504   000D5C  1006               	iorwf	(___lwdiv@divisor+1)^0,w,c
  2505   000D5E  B4D8               	btfsc	status,2,c
  2506   000D60  EFB4  F006         	goto	u2281
  2507   000D64  EFB6  F006         	goto	u2280
  2508   000D68                     u2281:
  2509   000D68  EFDE  F006         	goto	l1877
  2510   000D6C                     u2280:
  2511   000D6C  0E01               	movlw	1
  2512   000D6E  6E09               	movwf	___lwdiv@counter^0,c
  2513   000D70  EFBE  F006         	goto	l4685
  2514   000D74                     l4683:
  2515   000D74  90D8               	bcf	status,0,c
  2516   000D76  3605               	rlcf	___lwdiv@divisor^0,f,c
  2517   000D78  3606               	rlcf	(___lwdiv@divisor+1)^0,f,c
  2518   000D7A  2A09               	incf	___lwdiv@counter^0,f,c
  2519   000D7C                     l4685:
  2520   000D7C  AE06               	btfss	(___lwdiv@divisor+1)^0,7,c
  2521   000D7E  EFC3  F006         	goto	u2291
  2522   000D82  EFC5  F006         	goto	u2290
  2523   000D86                     u2291:
  2524   000D86  EFBA  F006         	goto	l4683
  2525   000D8A                     u2290:
  2526   000D8A                     l4687:
  2527   000D8A  90D8               	bcf	status,0,c
  2528   000D8C  3607               	rlcf	___lwdiv@quotient^0,f,c
  2529   000D8E  3608               	rlcf	(___lwdiv@quotient+1)^0,f,c
  2530   000D90  5005               	movf	___lwdiv@divisor^0,w,c
  2531   000D92  5C03               	subwf	___lwdiv@dividend^0,w,c
  2532   000D94  5006               	movf	(___lwdiv@divisor+1)^0,w,c
  2533   000D96  5804               	subwfb	(___lwdiv@dividend+1)^0,w,c
  2534   000D98  A0D8               	btfss	status,0,c
  2535   000D9A  EFD1  F006         	goto	u2301
  2536   000D9E  EFD3  F006         	goto	u2300
  2537   000DA2                     u2301:
  2538   000DA2  EFD8  F006         	goto	l4695
  2539   000DA6                     u2300:
  2540   000DA6  5005               	movf	___lwdiv@divisor^0,w,c
  2541   000DA8  5E03               	subwf	___lwdiv@dividend^0,f,c
  2542   000DAA  5006               	movf	(___lwdiv@divisor+1)^0,w,c
  2543   000DAC  5A04               	subwfb	(___lwdiv@dividend+1)^0,f,c
  2544   000DAE  8007               	bsf	___lwdiv@quotient^0,0,c
  2545   000DB0                     l4695:
  2546   000DB0  90D8               	bcf	status,0,c
  2547   000DB2  3206               	rrcf	(___lwdiv@divisor+1)^0,f,c
  2548   000DB4  3205               	rrcf	___lwdiv@divisor^0,f,c
  2549   000DB6  2E09               	decfsz	___lwdiv@counter^0,f,c
  2550   000DB8  EFC5  F006         	goto	l4687
  2551   000DBC                     l1877:
  2552   000DBC  C007  F003         	movff	___lwdiv@quotient,?___lwdiv
  2553   000DC0  C008  F004         	movff	___lwdiv@quotient+1,?___lwdiv+1
  2554   000DC4  0012               	return		;funcret
  2555   000DC6                     __end_of___lwdiv:
  2556                           	callstack 0
  2557                           
  2558 ;; *************** function _ADCC_GetSingleConversion *****************
  2559 ;; Defined at:
  2560 ;;		line 137 in file "mcc_generated_files/adcc.c"
  2561 ;; Parameters:    Size  Location     Type
  2562 ;;  channel         1    wreg     enum E22586
  2563 ;; Auto vars:     Size  Location     Type
  2564 ;;  channel         1    6[COMRAM] enum E22586
  2565 ;; Return value:  Size  Location     Type
  2566 ;;                  2    2[COMRAM] unsigned short 
  2567 ;; Registers used:
  2568 ;;		wreg, status,2, status,0
  2569 ;; Tracked objects:
  2570 ;;		On entry : 0/0
  2571 ;;		On exit  : 0/0
  2572 ;;		Unchanged: 0/0
  2573 ;; Data sizes:     COMRAM   BANK0   BANK1   BANK2   BANK3   BANK4   BANK5   BANK6   BANK7   BANK8   BANK9  BANK10  BANK1
      +1  BANK12  BANK13  BANK14  BANK15
  2574 ;;      Params:         2       0       0       0       0       0       0       0       0       0       0       0       
      +0       0       0       0       0
  2575 ;;      Locals:         1       0       0       0       0       0       0       0       0       0       0       0       
      +0       0       0       0       0
  2576 ;;      Temps:          2       0       0       0       0       0       0       0       0       0       0       0       
      +0       0       0       0       0
  2577 ;;      Totals:         5       0       0       0       0       0       0       0       0       0       0       0       
      +0       0       0       0       0
  2578 ;;Total ram usage:        5 bytes
  2579 ;; Hardware stack levels used: 1
  2580 ;; Hardware stack levels required when called: 3
  2581 ;; This function calls:
  2582 ;;		Nothing
  2583 ;; This function is called by:
  2584 ;;		_fx_read_adc
  2585 ;; This function uses a non-reentrant model
  2586 ;;
  2587                           
  2588                           	psect	text8
  2589   0015C8                     __ptext8:
  2590                           	callstack 0
  2591   0015C8                     _ADCC_GetSingleConversion:
  2592                           	callstack 26
  2593                           
  2594                           ;incstack = 0
  2595                           ;ADCC_GetSingleConversion@channel stored from wreg
  2596   0015C8  6E07               	movwf	ADCC_GetSingleConversion@channel^0,c
  2597   0015CA                     
  2598                           ;mcc_generated_files/adcc.c: 137: adc_result_t ADCC_GetSingleConversion(adcc_channel_t c
      +                          hannel);mcc_generated_files/adcc.c: 138: {;mcc_generated_files/adcc.c: 140:     ADPCH = 
      +                          channel;
  2599   0015CA  0060  F01F  FEF1   	movff	ADCC_GetSingleConversion@channel,16113	;volatile
  2600   0015D0                     
  2601                           ;mcc_generated_files/adcc.c: 143:     ADCON0bits.ADON = 1;
  2602   0015D0  013E               	movlb	62	; () banked
  2603   0015D2  8FF8               	bsf	248,7,b	;volatile
  2604   0015D4                     
  2605                           ; BSR set to: 62
  2606                           ;mcc_generated_files/adcc.c: 146:     ADCON0bits.ADCONT = 0;
  2607   0015D4  9DF8               	bcf	248,6,b	;volatile
  2608   0015D6                     
  2609                           ; BSR set to: 62
  2610                           ;mcc_generated_files/adcc.c: 149:     ADCON0bits.ADGO = 1;
  2611   0015D6  81F8               	bsf	248,0,b	;volatile
  2612   0015D8                     l372:
  2613                           
  2614                           ; BSR set to: 62
  2615                           ;mcc_generated_files/adcc.c: 153:     while (ADCON0bits.ADGO)
  2616   0015D8  B1F8               	btfsc	248,0,b	;volatile
  2617   0015DA  EFF1  F00A         	goto	u2271
  2618   0015DE  EFF3  F00A         	goto	u2270
  2619   0015E2                     u2271:
  2620   0015E2  EFEC  F00A         	goto	l372
  2621   0015E6                     u2270:
  2622   0015E6                     
  2623                           ; BSR set to: 62
  2624                           ;mcc_generated_files/adcc.c: 159:     return ((adc_result_t)((ADRESH << 8) + ADRESL));
  2625   0015E6  51F0               	movf	240,w,b	;volatile
  2626   0015E8  6E06               	movwf	(??_ADCC_GetSingleConversion+1)^0,c
  2627   0015EA  6A05               	clrf	??_ADCC_GetSingleConversion^0,c
  2628   0015EC  51EF               	movf	239,w,b	;volatile
  2629   0015EE  2405               	addwf	??_ADCC_GetSingleConversion^0,w,c
  2630   0015F0  6E03               	movwf	?_ADCC_GetSingleConversion^0,c
  2631   0015F2  0E00               	movlw	0
  2632   0015F4  2006               	addwfc	(??_ADCC_GetSingleConversion+1)^0,w,c
  2633   0015F6  6E04               	movwf	(?_ADCC_GetSingleConversion+1)^0,c
  2634   0015F8                     
  2635                           ; BSR set to: 62
  2636   0015F8  0012               	return		;funcret
  2637   0015FA                     __end_of_ADCC_GetSingleConversion:
  2638                           	callstack 0
  2639                           
  2640 ;; *************** function _fx_led_show_fail *****************
  2641 ;; Defined at:
  2642 ;;		line 442 in file "main.c"
  2643 ;; Parameters:    Size  Location     Type
  2644 ;;  fail_code       1    wreg     unsigned char 
  2645 ;; Auto vars:     Size  Location     Type
  2646 ;;  fail_code       1    2[COMRAM] unsigned char 
  2647 ;; Return value:  Size  Location     Type
  2648 ;;                  1    wreg      void 
  2649 ;; Registers used:
  2650 ;;		wreg, status,2, status,0
  2651 ;; Tracked objects:
  2652 ;;		On entry : 0/0
  2653 ;;		On exit  : 0/0
  2654 ;;		Unchanged: 0/0
  2655 ;; Data sizes:     COMRAM   BANK0   BANK1   BANK2   BANK3   BANK4   BANK5   BANK6   BANK7   BANK8   BANK9  BANK10  BANK1
      +1  BANK12  BANK13  BANK14  BANK15
  2656 ;;      Params:         0       0       0       0       0       0       0       0       0       0       0       0       
      +0       0       0       0       0
  2657 ;;      Locals:         1       0       0       0       0       0       0       0       0       0       0       0       
      +0       0       0       0       0
  2658 ;;      Temps:          0       0       0       0       0       0       0       0       0       0       0       0       
      +0       0       0       0       0
  2659 ;;      Totals:         1       0       0       0       0       0       0       0       0       0       0       0       
      +0       0       0       0       0
  2660 ;;Total ram usage:        1 bytes
  2661 ;; Hardware stack levels used: 1
  2662 ;; Hardware stack levels required when called: 3
  2663 ;; This function calls:
  2664 ;;		Nothing
  2665 ;; This function is called by:
  2666 ;;		_control_system
  2667 ;; This function uses a non-reentrant model
  2668 ;;
  2669                           
  2670                           	psect	text9
  2671   0006B2                     __ptext9:
  2672                           	callstack 0
  2673   0006B2                     _fx_led_show_fail:
  2674                           	callstack 26
  2675                           
  2676                           ; BSR set to: 62
  2677                           ;incstack = 0
  2678                           ;fx_led_show_fail@fail_code stored from wreg
  2679   0006B2  6E03               	movwf	fx_led_show_fail@fail_code^0,c
  2680   0006B4                     
  2681                           ;main.c: 442: void fx_led_show_fail(uint8_t fail_code);main.c: 443: {;main.c: 450:     s
      +                          tatic _Bool flag_led = 0;;main.c: 451:     static _Bool flag_time = 0;;main.c: 453:     
      +                          static uint16_t time_led = 0;;main.c: 454:     static uint16_t blink_counter = 0;;main.c
      +                          : 458:     if(0 == fail_code)
  2682   0006B4  5003               	movf	fx_led_show_fail@fail_code^0,w,c
  2683   0006B6  A4D8               	btfss	status,2,c
  2684   0006B8  EF60  F003         	goto	u2431
  2685   0006BC  EF62  F003         	goto	u2430
  2686   0006C0                     u2431:
  2687   0006C0  EF6E  F003         	goto	l4829
  2688   0006C4                     u2430:
  2689   0006C4                     
  2690                           ;main.c: 459:     {;main.c: 460:         flag_led = 0;
  2691   0006C4  0E00               	movlw	0
  2692   0006C6  6E47               	movwf	fx_led_show_fail@flag_led^0,c
  2693                           
  2694                           ;main.c: 462:         time_led = 0;
  2695   0006C8  0E00               	movlw	0
  2696   0006CA  6E38               	movwf	(fx_led_show_fail@time_led+1)^0,c
  2697   0006CC  0E00               	movlw	0
  2698   0006CE  6E37               	movwf	fx_led_show_fail@time_led^0,c
  2699                           
  2700                           ;main.c: 463:         blink_counter = 0;
  2701   0006D0  0E00               	movlw	0
  2702   0006D2  6E36               	movwf	(fx_led_show_fail@blink_counter+1)^0,c
  2703   0006D4  0E00               	movlw	0
  2704   0006D6  6E35               	movwf	fx_led_show_fail@blink_counter^0,c
  2705   0006D8  EFC0  F003         	goto	l1325
  2706   0006DC                     l4829:
  2707                           
  2708                           ;main.c: 469:     if(flag_time != g_flag_timer_100ms)
  2709   0006DC  5052               	movf	_g_flag_timer_100ms^0,w,c
  2710   0006DE  1846               	xorwf	fx_led_show_fail@flag_time^0,w,c
  2711   0006E0  B4D8               	btfsc	status,2,c
  2712   0006E2  EF75  F003         	goto	u2441
  2713   0006E6  EF77  F003         	goto	u2440
  2714   0006EA                     u2441:
  2715   0006EA  EF85  F003         	goto	l4837
  2716   0006EE                     u2440:
  2717   0006EE                     
  2718                           ;main.c: 470:     {;main.c: 471:         flag_time = g_flag_timer_100ms;
  2719   0006EE  C052  F046         	movff	_g_flag_timer_100ms,fx_led_show_fail@flag_time
  2720   0006F2                     
  2721                           ;main.c: 473:         if(time_led)
  2722   0006F2  5037               	movf	fx_led_show_fail@time_led^0,w,c
  2723   0006F4  1038               	iorwf	(fx_led_show_fail@time_led+1)^0,w,c
  2724   0006F6  B4D8               	btfsc	status,2,c
  2725   0006F8  EF80  F003         	goto	u2451
  2726   0006FC  EF82  F003         	goto	u2450
  2727   000700                     u2451:
  2728   000700  EF85  F003         	goto	l4837
  2729   000704                     u2450:
  2730   000704                     
  2731                           ;main.c: 474:             time_led--;
  2732   000704  0637               	decf	fx_led_show_fail@time_led^0,f,c
  2733   000706  A0D8               	btfss	status,0,c
  2734   000708  0638               	decf	(fx_led_show_fail@time_led+1)^0,f,c
  2735   00070A                     l4837:
  2736                           
  2737                           ;main.c: 478:     if(0 == time_led)
  2738   00070A  5037               	movf	fx_led_show_fail@time_led^0,w,c
  2739   00070C  1038               	iorwf	(fx_led_show_fail@time_led+1)^0,w,c
  2740   00070E  A4D8               	btfss	status,2,c
  2741   000710  EF8C  F003         	goto	u2461
  2742   000714  EF8E  F003         	goto	u2460
  2743   000718                     u2461:
  2744   000718  EFC0  F003         	goto	l1325
  2745   00071C                     u2460:
  2746   00071C                     
  2747                           ;main.c: 479:     {;main.c: 480:         flag_led = !flag_led;
  2748   00071C  5047               	movf	fx_led_show_fail@flag_led^0,w,c
  2749   00071E  B4D8               	btfsc	status,2,c
  2750   000720  EF94  F003         	goto	u2471
  2751   000724  EF97  F003         	goto	u2470
  2752   000728                     u2471:
  2753   000728  0E01               	movlw	1
  2754   00072A  EF98  F003         	goto	u2480
  2755   00072E                     u2470:
  2756   00072E  0E00               	movlw	0
  2757   000730                     u2480:
  2758   000730  6E47               	movwf	fx_led_show_fail@flag_led^0,c
  2759                           
  2760                           ;main.c: 482:         if(0 == flag_led)
  2761   000732  5047               	movf	fx_led_show_fail@flag_led^0,w,c
  2762   000734  A4D8               	btfss	status,2,c
  2763   000736  EF9F  F003         	goto	u2491
  2764   00073A  EFA1  F003         	goto	u2490
  2765   00073E                     u2491:
  2766   00073E  EFAA  F003         	goto	l1333
  2767   000742                     u2490:
  2768   000742  96BA               	bcf	186,3,c	;volatile
  2769   000744                     
  2770                           ;main.c: 485:             blink_counter++;
  2771   000744  4A35               	infsnz	fx_led_show_fail@blink_counter^0,f,c
  2772   000746  2A36               	incf	(fx_led_show_fail@blink_counter+1)^0,f,c
  2773   000748                     l4843:
  2774                           
  2775                           ;main.c: 486:             time_led = 10;
  2776   000748  0E00               	movlw	0
  2777   00074A  6E38               	movwf	(fx_led_show_fail@time_led+1)^0,c
  2778   00074C  0E0A               	movlw	10
  2779   00074E  6E37               	movwf	fx_led_show_fail@time_led^0,c
  2780                           
  2781                           ;main.c: 487:         }
  2782   000750  EFC0  F003         	goto	l1325
  2783   000754                     l1333:
  2784   000754  86BA               	bsf	186,3,c	;volatile
  2785   000756                     
  2786                           ;main.c: 492:             if(blink_counter < fail_code)
  2787   000756  5003               	movf	fx_led_show_fail@fail_code^0,w,c
  2788   000758  5C35               	subwf	fx_led_show_fail@blink_counter^0,w,c
  2789   00075A  0E00               	movlw	0
  2790   00075C  5836               	subwfb	(fx_led_show_fail@blink_counter+1)^0,w,c
  2791   00075E  B0D8               	btfsc	status,0,c
  2792   000760  EFB4  F003         	goto	u2501
  2793   000764  EFB6  F003         	goto	u2500
  2794   000768                     u2501:
  2795   000768  EFB8  F003         	goto	l4849
  2796   00076C                     u2500:
  2797   00076C  EFA4  F003         	goto	l4843
  2798   000770                     l4849:
  2799                           
  2800                           ;main.c: 497:             {;main.c: 498:                 blink_counter = 0;
  2801   000770  0E00               	movlw	0
  2802   000772  6E36               	movwf	(fx_led_show_fail@blink_counter+1)^0,c
  2803   000774  0E00               	movlw	0
  2804   000776  6E35               	movwf	fx_led_show_fail@blink_counter^0,c
  2805                           
  2806                           ;main.c: 499:                 time_led = 30;
  2807   000778  0E00               	movlw	0
  2808   00077A  6E38               	movwf	(fx_led_show_fail@time_led+1)^0,c
  2809   00077C  0E1E               	movlw	30
  2810   00077E  6E37               	movwf	fx_led_show_fail@time_led^0,c
  2811   000780                     l1325:
  2812   000780  0012               	return		;funcret
  2813   000782                     __end_of_fx_led_show_fail:
  2814                           	callstack 0
  2815                           
  2816 ;; *************** function _fx_led_green_slow *****************
  2817 ;; Defined at:
  2818 ;;		line 431 in file "main.c"
  2819 ;; Parameters:    Size  Location     Type
  2820 ;;		None
  2821 ;; Auto vars:     Size  Location     Type
  2822 ;;		None
  2823 ;; Return value:  Size  Location     Type
  2824 ;;                  1    wreg      void 
  2825 ;; Registers used:
  2826 ;;		wreg, status,2, status,0
  2827 ;; Tracked objects:
  2828 ;;		On entry : 0/0
  2829 ;;		On exit  : 0/0
  2830 ;;		Unchanged: 0/0
  2831 ;; Data sizes:     COMRAM   BANK0   BANK1   BANK2   BANK3   BANK4   BANK5   BANK6   BANK7   BANK8   BANK9  BANK10  BANK1
      +1  BANK12  BANK13  BANK14  BANK15
  2832 ;;      Params:         0       0       0       0       0       0       0       0       0       0       0       0       
      +0       0       0       0       0
  2833 ;;      Locals:         0       0       0       0       0       0       0       0       0       0       0       0       
      +0       0       0       0       0
  2834 ;;      Temps:          1       0       0       0       0       0       0       0       0       0       0       0       
      +0       0       0       0       0
  2835 ;;      Totals:         1       0       0       0       0       0       0       0       0       0       0       0       
      +0       0       0       0       0
  2836 ;;Total ram usage:        1 bytes
  2837 ;; Hardware stack levels used: 1
  2838 ;; Hardware stack levels required when called: 3
  2839 ;; This function calls:
  2840 ;;		Nothing
  2841 ;; This function is called by:
  2842 ;;		_control_system
  2843 ;; This function uses a non-reentrant model
  2844 ;;
  2845                           
  2846                           	psect	text10
  2847   00146E                     __ptext10:
  2848                           	callstack 0
  2849   00146E                     _fx_led_green_slow:
  2850                           	callstack 26
  2851   00146E                     
  2852                           ;main.c: 433:     static _Bool flag_led = 0;;main.c: 435:     if(flag_led != g_flag_time
      +                          r_1s)
  2853   00146E  5051               	movf	_g_flag_timer_1s^0,w,c
  2854   001470  1848               	xorwf	fx_led_green_slow@flag_led^0,w,c
  2855   001472  B4D8               	btfsc	status,2,c
  2856   001474  EF3E  F00A         	goto	u2321
  2857   001478  EF40  F00A         	goto	u2320
  2858   00147C                     u2321:
  2859   00147C  EF54  F00A         	goto	l1313
  2860   001480                     u2320:
  2861   001480                     
  2862                           ;main.c: 436:     {;main.c: 437:         flag_led = g_flag_timer_1s;
  2863   001480  C051  F048         	movff	_g_flag_timer_1s,fx_led_green_slow@flag_led
  2864   001484  B4BA               	btfsc	186,2,c	;volatile
  2865   001486  EF47  F00A         	goto	u2331
  2866   00148A  EF4A  F00A         	goto	u2330
  2867   00148E                     u2331:
  2868   00148E  0E01               	movlw	1
  2869   001490  EF4B  F00A         	goto	u2336
  2870   001494                     u2330:
  2871   001494  0E00               	movlw	0
  2872   001496                     u2336:
  2873   001496  0AFF               	xorlw	255
  2874   001498  6E03               	movwf	??_fx_led_green_slow^0,c
  2875   00149A  4603               	rlncf	??_fx_led_green_slow^0,f,c
  2876   00149C  4603               	rlncf	??_fx_led_green_slow^0,f,c
  2877   00149E  50BA               	movf	186,w,c	;volatile
  2878   0014A0  1803               	xorwf	??_fx_led_green_slow^0,w,c
  2879   0014A2  0BFB               	andlw	-5
  2880   0014A4  1803               	xorwf	??_fx_led_green_slow^0,w,c
  2881   0014A6  6EBA               	movwf	186,c	;volatile
  2882   0014A8                     l1313:
  2883   0014A8  0012               	return		;funcret
  2884   0014AA                     __end_of_fx_led_green_slow:
  2885                           	callstack 0
  2886                           
  2887 ;; *************** function _fx_led_green_fast *****************
  2888 ;; Defined at:
  2889 ;;		line 420 in file "main.c"
  2890 ;; Parameters:    Size  Location     Type
  2891 ;;		None
  2892 ;; Auto vars:     Size  Location     Type
  2893 ;;		None
  2894 ;; Return value:  Size  Location     Type
  2895 ;;                  1    wreg      void 
  2896 ;; Registers used:
  2897 ;;		wreg, status,2, status,0
  2898 ;; Tracked objects:
  2899 ;;		On entry : 0/0
  2900 ;;		On exit  : 0/0
  2901 ;;		Unchanged: 0/0
  2902 ;; Data sizes:     COMRAM   BANK0   BANK1   BANK2   BANK3   BANK4   BANK5   BANK6   BANK7   BANK8   BANK9  BANK10  BANK1
      +1  BANK12  BANK13  BANK14  BANK15
  2903 ;;      Params:         0       0       0       0       0       0       0       0       0       0       0       0       
      +0       0       0       0       0
  2904 ;;      Locals:         0       0       0       0       0       0       0       0       0       0       0       0       
      +0       0       0       0       0
  2905 ;;      Temps:          1       0       0       0       0       0       0       0       0       0       0       0       
      +0       0       0       0       0
  2906 ;;      Totals:         1       0       0       0       0       0       0       0       0       0       0       0       
      +0       0       0       0       0
  2907 ;;Total ram usage:        1 bytes
  2908 ;; Hardware stack levels used: 1
  2909 ;; Hardware stack levels required when called: 3
  2910 ;; This function calls:
  2911 ;;		Nothing
  2912 ;; This function is called by:
  2913 ;;		_control_system
  2914 ;; This function uses a non-reentrant model
  2915 ;;
  2916                           
  2917                           	psect	text11
  2918   0014AA                     __ptext11:
  2919                           	callstack 0
  2920   0014AA                     _fx_led_green_fast:
  2921                           	callstack 26
  2922   0014AA                     
  2923                           ;main.c: 422:     static _Bool flag_led = 0;;main.c: 424:     if(flag_led != g_flag_time
      +                          r_100ms)
  2924   0014AA  5052               	movf	_g_flag_timer_100ms^0,w,c
  2925   0014AC  1849               	xorwf	fx_led_green_fast@flag_led^0,w,c
  2926   0014AE  B4D8               	btfsc	status,2,c
  2927   0014B0  EF5C  F00A         	goto	u2391
  2928   0014B4  EF5E  F00A         	goto	u2390
  2929   0014B8                     u2391:
  2930   0014B8  EF72  F00A         	goto	l1305
  2931   0014BC                     u2390:
  2932   0014BC                     
  2933                           ;main.c: 425:     {;main.c: 426:         flag_led = g_flag_timer_100ms;
  2934   0014BC  C052  F049         	movff	_g_flag_timer_100ms,fx_led_green_fast@flag_led
  2935   0014C0  B4BA               	btfsc	186,2,c	;volatile
  2936   0014C2  EF65  F00A         	goto	u2401
  2937   0014C6  EF68  F00A         	goto	u2400
  2938   0014CA                     u2401:
  2939   0014CA  0E01               	movlw	1
  2940   0014CC  EF69  F00A         	goto	u2406
  2941   0014D0                     u2400:
  2942   0014D0  0E00               	movlw	0
  2943   0014D2                     u2406:
  2944   0014D2  0AFF               	xorlw	255
  2945   0014D4  6E03               	movwf	??_fx_led_green_fast^0,c
  2946   0014D6  4603               	rlncf	??_fx_led_green_fast^0,f,c
  2947   0014D8  4603               	rlncf	??_fx_led_green_fast^0,f,c
  2948   0014DA  50BA               	movf	186,w,c	;volatile
  2949   0014DC  1803               	xorwf	??_fx_led_green_fast^0,w,c
  2950   0014DE  0BFB               	andlw	-5
  2951   0014E0  1803               	xorwf	??_fx_led_green_fast^0,w,c
  2952   0014E2  6EBA               	movwf	186,c	;volatile
  2953   0014E4                     l1305:
  2954   0014E4  0012               	return		;funcret
  2955   0014E6                     __end_of_fx_led_green_fast:
  2956                           	callstack 0
  2957                           
  2958 ;; *************** function _IO_SetPin *****************
  2959 ;; Defined at:
  2960 ;;		line 28 in file "header_files/tca9534.c"
  2961 ;; Parameters:    Size  Location     Type
  2962 ;;  ioStruct        1   41[COMRAM] PTR struct .
  2963 ;;		 -> g_io_expander1(4), 
  2964 ;;  pin             1   42[COMRAM] unsigned char 
  2965 ;; Auto vars:     Size  Location     Type
  2966 ;;  mask            1   45[COMRAM] unsigned char 
  2967 ;; Return value:  Size  Location     Type
  2968 ;;                  1    wreg      void 
  2969 ;; Registers used:
  2970 ;;		wreg, fsr1l, fsr1h, fsr2l, fsr2h, status,2, status,0, pcl, pclath, pclatu, tosl, tblptrl, tblptrh, tblptru, prodl, p
      +rodh, cstack
  2971 ;; Tracked objects:
  2972 ;;		On entry : 0/0
  2973 ;;		On exit  : 0/0
  2974 ;;		Unchanged: 0/0
  2975 ;; Data sizes:     COMRAM   BANK0   BANK1   BANK2   BANK3   BANK4   BANK5   BANK6   BANK7   BANK8   BANK9  BANK10  BANK1
      +1  BANK12  BANK13  BANK14  BANK15
  2976 ;;      Params:         2       0       0       0       0       0       0       0       0       0       0       0       
      +0       0       0       0       0
  2977 ;;      Locals:         1       0       0       0       0       0       0       0       0       0       0       0       
      +0       0       0       0       0
  2978 ;;      Temps:          2       0       0       0       0       0       0       0       0       0       0       0       
      +0       0       0       0       0
  2979 ;;      Totals:         5       0       0       0       0       0       0       0       0       0       0       0       
      +0       0       0       0       0
  2980 ;;Total ram usage:        5 bytes
  2981 ;; Hardware stack levels used: 1
  2982 ;; Hardware stack levels required when called: 15
  2983 ;; This function calls:
  2984 ;;		_I2C1_Write1ByteRegister
  2985 ;;		_printf
  2986 ;; This function is called by:
  2987 ;;		_control_system
  2988 ;; This function uses a non-reentrant model
  2989 ;;
  2990                           
  2991                           	psect	text12
  2992   000E38                     __ptext12:
  2993                           	callstack 0
  2994   000E38                     _IO_SetPin:
  2995                           	callstack 14
  2996   000E38                     
  2997                           ;header_files/tca9534.c: 28: void IO_SetPin(IO_StructTypedef *ioStruct, uint8_t pin);hea
      +                          der_files/tca9534.c: 29: {;header_files/tca9534.c: 30:     if(pin > 7)
  2998   000E38  0E07               	movlw	7
  2999   000E3A  642B               	cpfsgt	IO_SetPin@pin^0,c
  3000   000E3C  EF22  F007         	goto	u2371
  3001   000E40  EF24  F007         	goto	u2370
  3002   000E44                     u2371:
  3003   000E44  EF2F  F007         	goto	l4801
  3004   000E48                     u2370:
  3005   000E48                     
  3006                           ;header_files/tca9534.c: 31:     {;header_files/tca9534.c: 32:         printf("ERROR - I
      +                          O INVALID PIN %d\r\n", pin);
  3007   000E48  0EBB               	movlw	low STR_20
  3008   000E4A  6E23               	movwf	printf@fmt^0,c
  3009   000E4C  0EFE               	movlw	high STR_20
  3010   000E4E  6E24               	movwf	(printf@fmt+1)^0,c
  3011   000E50  C02B  F025         	movff	IO_SetPin@pin,?_printf+2
  3012   000E54  6A26               	clrf	(?_printf+3)^0,c
  3013   000E56  ECEF  F00B         	call	_printf	;wreg free
  3014   000E5A                     l1363:
  3015   000E5A  EF2D  F007         	goto	l1363
  3016   000E5E                     l4801:
  3017                           
  3018                           ;header_files/tca9534.c: 36:     uint8_t mask = (uint8_t)(0x01 << pin);
  3019   000E5E  C02B  F02C         	movff	IO_SetPin@pin,??_IO_SetPin
  3020   000E62  0E01               	movlw	1
  3021   000E64  6E2D               	movwf	(??_IO_SetPin+1)^0,c
  3022   000E66  2A2C               	incf	??_IO_SetPin^0,f,c
  3023   000E68  EF38  F007         	goto	u2384
  3024   000E6C                     u2385:
  3025   000E6C  90D8               	bcf	status,0,c
  3026   000E6E  362D               	rlcf	(??_IO_SetPin+1)^0,f,c
  3027   000E70                     u2384:
  3028   000E70  2E2C               	decfsz	??_IO_SetPin^0,f,c
  3029   000E72  EF36  F007         	goto	u2385
  3030   000E76  502D               	movf	(??_IO_SetPin+1)^0,w,c
  3031   000E78  6E2E               	movwf	IO_SetPin@mask^0,c
  3032   000E7A                     
  3033                           ;header_files/tca9534.c: 37:     ioStruct->outImage |= mask;
  3034   000E7A  502A               	movf	IO_SetPin@ioStruct^0,w,c
  3035   000E7C  6ED9               	movwf	fsr2l,c
  3036   000E7E  6ADA               	clrf	fsr2h,c
  3037   000E80  0E02               	movlw	2
  3038   000E82  26D9               	addwf	fsr2l,f,c
  3039   000E84  502E               	movf	IO_SetPin@mask^0,w,c
  3040   000E86  12DF               	iorwf	indf2,f,c
  3041   000E88                     
  3042                           ;header_files/tca9534.c: 39:     I2C1_Write1ByteRegister(ioStruct->address, IO_REG_OUTPU
      +                          T, ioStruct->outImage);
  3043   000E88  0E01               	movlw	1
  3044   000E8A  6E19               	movwf	I2C1_Write1ByteRegister@reg^0,c
  3045   000E8C  502A               	movf	IO_SetPin@ioStruct^0,w,c
  3046   000E8E  6ED9               	movwf	fsr2l,c
  3047   000E90  6ADA               	clrf	fsr2h,c
  3048   000E92  0E02               	movlw	2
  3049   000E94  26D9               	addwf	fsr2l,f,c
  3050   000E96  50DF               	movf	indf2,w,c
  3051   000E98  6E1A               	movwf	I2C1_Write1ByteRegister@data^0,c
  3052   000E9A  502A               	movf	IO_SetPin@ioStruct^0,w,c
  3053   000E9C  6ED9               	movwf	fsr2l,c
  3054   000E9E  6ADA               	clrf	fsr2h,c
  3055   000EA0  50DF               	movf	indf2,w,c
  3056   000EA2  EC8C  F007         	call	_I2C1_Write1ByteRegister
  3057   000EA6  0012               	return		;funcret
  3058   000EA8                     __end_of_IO_SetPin:
  3059                           	callstack 0
  3060                           
  3061 ;; *************** function _IO_ResetPin *****************
  3062 ;; Defined at:
  3063 ;;		line 42 in file "header_files/tca9534.c"
  3064 ;; Parameters:    Size  Location     Type
  3065 ;;  ioStruct        1   41[COMRAM] PTR struct .
  3066 ;;		 -> g_io_expander1(4), 
  3067 ;;  pin             1   42[COMRAM] unsigned char 
  3068 ;; Auto vars:     Size  Location     Type
  3069 ;;  mask            1   45[COMRAM] unsigned char 
  3070 ;; Return value:  Size  Location     Type
  3071 ;;                  1    wreg      void 
  3072 ;; Registers used:
  3073 ;;		wreg, fsr1l, fsr1h, fsr2l, fsr2h, status,2, status,0, pcl, pclath, pclatu, tosl, tblptrl, tblptrh, tblptru, prodl, p
      +rodh, cstack
  3074 ;; Tracked objects:
  3075 ;;		On entry : 0/0
  3076 ;;		On exit  : 0/0
  3077 ;;		Unchanged: 0/0
  3078 ;; Data sizes:     COMRAM   BANK0   BANK1   BANK2   BANK3   BANK4   BANK5   BANK6   BANK7   BANK8   BANK9  BANK10  BANK1
      +1  BANK12  BANK13  BANK14  BANK15
  3079 ;;      Params:         2       0       0       0       0       0       0       0       0       0       0       0       
      +0       0       0       0       0
  3080 ;;      Locals:         1       0       0       0       0       0       0       0       0       0       0       0       
      +0       0       0       0       0
  3081 ;;      Temps:          2       0       0       0       0       0       0       0       0       0       0       0       
      +0       0       0       0       0
  3082 ;;      Totals:         5       0       0       0       0       0       0       0       0       0       0       0       
      +0       0       0       0       0
  3083 ;;Total ram usage:        5 bytes
  3084 ;; Hardware stack levels used: 1
  3085 ;; Hardware stack levels required when called: 15
  3086 ;; This function calls:
  3087 ;;		_I2C1_Write1ByteRegister
  3088 ;;		_printf
  3089 ;; This function is called by:
  3090 ;;		_control_system
  3091 ;;		_fx_system_start
  3092 ;; This function uses a non-reentrant model
  3093 ;;
  3094                           
  3095                           	psect	text13
  3096   000DC6                     __ptext13:
  3097                           	callstack 0
  3098   000DC6                     _IO_ResetPin:
  3099                           	callstack 14
  3100   000DC6                     
  3101                           ;header_files/tca9534.c: 42: void IO_ResetPin(IO_StructTypedef *ioStruct, uint8_t pin);h
      +                          eader_files/tca9534.c: 43: {;header_files/tca9534.c: 44:     if(pin > 7)
  3102   000DC6  0E07               	movlw	7
  3103   000DC8  642B               	cpfsgt	IO_ResetPin@pin^0,c
  3104   000DCA  EFE9  F006         	goto	u2411
  3105   000DCE  EFEB  F006         	goto	u2410
  3106   000DD2                     u2411:
  3107   000DD2  EFF6  F006         	goto	l4817
  3108   000DD6                     u2410:
  3109   000DD6                     
  3110                           ;header_files/tca9534.c: 45:     {;header_files/tca9534.c: 46:         printf("ERROR - I
      +                          O INVALID PIN %d\r\n", pin);
  3111   000DD6  0EBB               	movlw	low STR_20
  3112   000DD8  6E23               	movwf	printf@fmt^0,c
  3113   000DDA  0EFE               	movlw	high STR_20
  3114   000DDC  6E24               	movwf	(printf@fmt+1)^0,c
  3115   000DDE  C02B  F025         	movff	IO_ResetPin@pin,?_printf+2
  3116   000DE2  6A26               	clrf	(?_printf+3)^0,c
  3117   000DE4  ECEF  F00B         	call	_printf	;wreg free
  3118   000DE8                     l1370:
  3119   000DE8  EFF4  F006         	goto	l1370
  3120   000DEC                     l4817:
  3121                           
  3122                           ;header_files/tca9534.c: 50:     uint8_t mask = (uint8_t)(~(0x01 << pin));
  3123   000DEC  C02B  F02C         	movff	IO_ResetPin@pin,??_IO_ResetPin
  3124   000DF0  0E01               	movlw	1
  3125   000DF2  6E2D               	movwf	(??_IO_ResetPin+1)^0,c
  3126   000DF4  2A2C               	incf	??_IO_ResetPin^0,f,c
  3127   000DF6  EFFF  F006         	goto	u2424
  3128   000DFA                     u2425:
  3129   000DFA  90D8               	bcf	status,0,c
  3130   000DFC  362D               	rlcf	(??_IO_ResetPin+1)^0,f,c
  3131   000DFE                     u2424:
  3132   000DFE  2E2C               	decfsz	??_IO_ResetPin^0,f,c
  3133   000E00  EFFD  F006         	goto	u2425
  3134   000E04  502D               	movf	(??_IO_ResetPin+1)^0,w,c
  3135   000E06  0AFF               	xorlw	255
  3136   000E08  6E2E               	movwf	IO_ResetPin@mask^0,c
  3137   000E0A                     
  3138                           ;header_files/tca9534.c: 51:     ioStruct->outImage &= mask;
  3139   000E0A  502A               	movf	IO_ResetPin@ioStruct^0,w,c
  3140   000E0C  6ED9               	movwf	fsr2l,c
  3141   000E0E  6ADA               	clrf	fsr2h,c
  3142   000E10  0E02               	movlw	2
  3143   000E12  26D9               	addwf	fsr2l,f,c
  3144   000E14  502E               	movf	IO_ResetPin@mask^0,w,c
  3145   000E16  16DF               	andwf	indf2,f,c
  3146   000E18                     
  3147                           ;header_files/tca9534.c: 53:     I2C1_Write1ByteRegister(ioStruct->address, IO_REG_OUTPU
      +                          T, ioStruct->outImage);
  3148   000E18  0E01               	movlw	1
  3149   000E1A  6E19               	movwf	I2C1_Write1ByteRegister@reg^0,c
  3150   000E1C  502A               	movf	IO_ResetPin@ioStruct^0,w,c
  3151   000E1E  6ED9               	movwf	fsr2l,c
  3152   000E20  6ADA               	clrf	fsr2h,c
  3153   000E22  0E02               	movlw	2
  3154   000E24  26D9               	addwf	fsr2l,f,c
  3155   000E26  50DF               	movf	indf2,w,c
  3156   000E28  6E1A               	movwf	I2C1_Write1ByteRegister@data^0,c
  3157   000E2A  502A               	movf	IO_ResetPin@ioStruct^0,w,c
  3158   000E2C  6ED9               	movwf	fsr2l,c
  3159   000E2E  6ADA               	clrf	fsr2h,c
  3160   000E30  50DF               	movf	indf2,w,c
  3161   000E32  EC8C  F007         	call	_I2C1_Write1ByteRegister
  3162   000E36  0012               	return		;funcret
  3163   000E38                     __end_of_IO_ResetPin:
  3164                           	callstack 0
  3165                           
  3166 ;; *************** function _printf *****************
  3167 ;; Defined at:
  3168 ;;		line 5 in file "C:\Program Files\Microchip\xc8\v2.45\pic\sources\c99\common\printf.c"
  3169 ;; Parameters:    Size  Location     Type
  3170 ;;  fmt             2   34[COMRAM] PTR const unsigned char 
  3171 ;;		 -> STR_22(26), STR_21(28), STR_20(28), STR_19(27), 
  3172 ;;		 -> STR_18(35), STR_17(32), STR_16(43), STR_15(30), 
  3173 ;;		 -> STR_14(25), STR_13(27), STR_12(14), STR_11(33), 
  3174 ;;		 -> STR_10(24), STR_9(26), STR_8(37), STR_7(30), 
  3175 ;;		 -> STR_6(26), STR_5(23), STR_4(19), STR_3(19), 
  3176 ;;		 -> STR_2(20), STR_1(20), 
  3177 ;; Auto vars:     Size  Location     Type
  3178 ;;  ret             2    0        int 
  3179 ;;  ap              1   40[COMRAM] PTR void [1]
  3180 ;;		 -> ?_printf(2), 
  3181 ;; Return value:  Size  Location     Type
  3182 ;;                  2   34[COMRAM] int 
  3183 ;; Registers used:
  3184 ;;		wreg, fsr1l, fsr1h, fsr2l, fsr2h, status,2, status,0, tblptrl, tblptrh, tblptru, cstack
  3185 ;; Tracked objects:
  3186 ;;		On entry : 0/0
  3187 ;;		On exit  : 0/0
  3188 ;;		Unchanged: 0/0
  3189 ;; Data sizes:     COMRAM   BANK0   BANK1   BANK2   BANK3   BANK4   BANK5   BANK6   BANK7   BANK8   BANK9  BANK10  BANK1
      +1  BANK12  BANK13  BANK14  BANK15
  3190 ;;      Params:         6       0       0       0       0       0       0       0       0       0       0       0       
      +0       0       0       0       0
  3191 ;;      Locals:         1       0       0       0       0       0       0       0       0       0       0       0       
      +0       0       0       0       0
  3192 ;;      Temps:          0       0       0       0       0       0       0       0       0       0       0       0       
      +0       0       0       0       0
  3193 ;;      Totals:         7       0       0       0       0       0       0       0       0       0       0       0       
      +0       0       0       0       0
  3194 ;;Total ram usage:        7 bytes
  3195 ;; Hardware stack levels used: 1
  3196 ;; Hardware stack levels required when called: 8
  3197 ;; This function calls:
  3198 ;;		_vfprintf
  3199 ;; This function is called by:
  3200 ;;		_main
  3201 ;;		_control_system
  3202 ;;		_fx_system_start
  3203 ;;		_IO_SetPin
  3204 ;;		_IO_ResetPin
  3205 ;;		_IO_ReadPin
  3206 ;; This function uses a non-reentrant model
  3207 ;;
  3208                           
  3209                           	psect	text14
  3210   0017DE                     __ptext14:
  3211                           	callstack 0
  3212   0017DE                     _printf:
  3213                           	callstack 22
  3214   0017DE  0E25               	movlw	low (?_printf+2)
  3215   0017E0  6E29               	movwf	printf@ap^0,c
  3216   0017E2  0E00               	movlw	0
  3217   0017E4  6E1C               	movwf	vfprintf@fp^0,c
  3218   0017E6  0E00               	movlw	0
  3219   0017E8  6E1D               	movwf	(vfprintf@fp+1)^0,c
  3220   0017EA  C023  F01E         	movff	printf@fmt,vfprintf@fmt
  3221   0017EE  C024  F01F         	movff	printf@fmt+1,vfprintf@fmt+1
  3222   0017F2  0E29               	movlw	low printf@ap
  3223   0017F4  6E20               	movwf	vfprintf@ap^0,c
  3224   0017F6  ECCD  F009         	call	_vfprintf	;wreg free
  3225   0017FA  0012               	return		;funcret
  3226   0017FC                     __end_of_printf:
  3227                           	callstack 0
  3228                           
  3229 ;; *************** function _vfprintf *****************
  3230 ;; Defined at:
  3231 ;;		line 1817 in file "C:\Program Files\Microchip\xc8\v2.45\pic\sources\c99\common\doprnt.c"
  3232 ;; Parameters:    Size  Location     Type
  3233 ;;  fp              2   27[COMRAM] PTR struct _IO_FILE
  3234 ;;		 -> NULL(0), 
  3235 ;;  fmt             2   29[COMRAM] PTR const unsigned char 
  3236 ;;		 -> STR_22(26), STR_21(28), STR_20(28), STR_19(27), 
  3237 ;;		 -> STR_18(35), STR_17(32), STR_16(43), STR_15(30), 
  3238 ;;		 -> STR_14(25), STR_13(27), STR_12(14), STR_11(33), 
  3239 ;;		 -> STR_10(24), STR_9(26), STR_8(37), STR_7(30), 
  3240 ;;		 -> STR_6(26), STR_5(23), STR_4(19), STR_3(19), 
  3241 ;;		 -> STR_2(20), STR_1(20), 
  3242 ;;  ap              1   31[COMRAM] PTR PTR void 
  3243 ;;		 -> printf@ap(1), 
  3244 ;; Auto vars:     Size  Location     Type
  3245 ;;  cfmt            2   32[COMRAM] PTR unsigned char 
  3246 ;;		 -> STR_22(26), STR_21(28), STR_20(28), STR_19(27), 
  3247 ;;		 -> STR_18(35), STR_17(32), STR_16(43), STR_15(30), 
  3248 ;;		 -> STR_14(25), STR_13(27), STR_12(14), STR_11(33), 
  3249 ;;		 -> STR_10(24), STR_9(26), STR_8(37), STR_7(30), 
  3250 ;;		 -> STR_6(26), STR_5(23), STR_4(19), STR_3(19), 
  3251 ;;		 -> STR_2(20), STR_1(20), 
  3252 ;; Return value:  Size  Location     Type
  3253 ;;                  2   27[COMRAM] int 
  3254 ;; Registers used:
  3255 ;;		wreg, fsr1l, fsr1h, fsr2l, fsr2h, status,2, status,0, tblptrl, tblptrh, tblptru, cstack
  3256 ;; Tracked objects:
  3257 ;;		On entry : 0/0
  3258 ;;		On exit  : 0/0
  3259 ;;		Unchanged: 0/0
  3260 ;; Data sizes:     COMRAM   BANK0   BANK1   BANK2   BANK3   BANK4   BANK5   BANK6   BANK7   BANK8   BANK9  BANK10  BANK1
      +1  BANK12  BANK13  BANK14  BANK15
  3261 ;;      Params:         5       0       0       0       0       0       0       0       0       0       0       0       
      +0       0       0       0       0
  3262 ;;      Locals:         2       0       0       0       0       0       0       0       0       0       0       0       
      +0       0       0       0       0
  3263 ;;      Temps:          0       0       0       0       0       0       0       0       0       0       0       0       
      +0       0       0       0       0
  3264 ;;      Totals:         7       0       0       0       0       0       0       0       0       0       0       0       
      +0       0       0       0       0
  3265 ;;Total ram usage:        7 bytes
  3266 ;; Hardware stack levels used: 1
  3267 ;; Hardware stack levels required when called: 7
  3268 ;; This function calls:
  3269 ;;		_vfpfcnvrt
  3270 ;; This function is called by:
  3271 ;;		_printf
  3272 ;; This function uses a non-reentrant model
  3273 ;;
  3274                           
  3275                           	psect	text15
  3276   00139A                     __ptext15:
  3277                           	callstack 0
  3278   00139A                     _vfprintf:
  3279                           	callstack 22
  3280   00139A                     
  3281                           ;C:\Program Files\Microchip\xc8\v2.45\pic\sources\c99\common\doprnt.c: 1817: int vfprint
      +                          f(FILE *fp, const char *fmt, va_list ap);C:\Program Files\Microchip\xc8\v2.45\pic\source
      +                          s\c99\common\doprnt.c: 1818: {;C:\Program Files\Microchip\xc8\v2.45\pic\sources\c99\comm
      +                          on\doprnt.c: 1820:     char *cfmt;;C:\Program Files\Microchip\xc8\v2.45\pic\sources\c99\
      +                          common\doprnt.c: 1822:     cfmt = (char *)fmt;
  3282   00139A  C01E  F021         	movff	vfprintf@fmt,vfprintf@cfmt
  3283   00139E  C01F  F022         	movff	vfprintf@fmt+1,vfprintf@cfmt+1
  3284                           
  3285                           ;C:\Program Files\Microchip\xc8\v2.45\pic\sources\c99\common\doprnt.c: 1826:     while (
      +                          *cfmt) {
  3286   0013A2  EFDD  F009         	goto	l4631
  3287   0013A6                     l4629:
  3288                           
  3289                           ;C:\Program Files\Microchip\xc8\v2.45\pic\sources\c99\common\doprnt.c: 1830:    vfpfcnvr
      +                          t(fp, &cfmt, ap);
  3290   0013A6  C01C  F00E         	movff	vfprintf@fp,vfpfcnvrt@fp
  3291   0013AA  C01D  F00F         	movff	vfprintf@fp+1,vfpfcnvrt@fp+1
  3292   0013AE  0E21               	movlw	low vfprintf@cfmt
  3293   0013B0  6E10               	movwf	vfpfcnvrt@fmt^0,c
  3294   0013B2  C020  F011         	movff	vfprintf@ap,vfpfcnvrt@ap
  3295   0013B6  EC5C  F001         	call	_vfpfcnvrt	;wreg free
  3296   0013BA                     l4631:
  3297                           
  3298                           ;C:\Program Files\Microchip\xc8\v2.45\pic\sources\c99\common\doprnt.c: 1826:     while (
      +                          *cfmt) {
  3299   0013BA  0060  F087  FFF6   	movff	vfprintf@cfmt,tblptrl
  3300   0013C0  0060  F08B  FFF7   	movff	vfprintf@cfmt+1,tblptrh
  3301   0013C6                     	if	1	;Program memory is < 0x10000, tblptru is always zero
  3302   0013C6  6AF8               	clrf	tblptru,c
  3303   0013C8                     	endif
  3304   0013C8                     	if	0	;tblptru may be non-zero
  3305   0013C8                     	endif
  3306   0013C8  0008               	tblrd		*
  3307   0013CA  50F5               	movf	tablat,w,c
  3308   0013CC  0900               	iorlw	0
  3309   0013CE  A4D8               	btfss	status,2,c
  3310   0013D0  EFEC  F009         	goto	u2241
  3311   0013D4  EFEE  F009         	goto	u2240
  3312   0013D8                     u2241:
  3313   0013D8  EFD3  F009         	goto	l4629
  3314   0013DC                     u2240:
  3315   0013DC                     
  3316                           ;C:\Program Files\Microchip\xc8\v2.45\pic\sources\c99\common\doprnt.c: 1835:  return 0;
  3317   0013DC  0E00               	movlw	0
  3318   0013DE  6E1D               	movwf	(?_vfprintf+1)^0,c
  3319   0013E0  0E00               	movlw	0
  3320   0013E2  6E1C               	movwf	?_vfprintf^0,c
  3321   0013E4  0012               	return		;funcret
  3322   0013E6                     __end_of_vfprintf:
  3323                           	callstack 0
  3324                           
  3325 ;; *************** function _vfpfcnvrt *****************
  3326 ;; Defined at:
  3327 ;;		line 1177 in file "C:\Program Files\Microchip\xc8\v2.45\pic\sources\c99\common\doprnt.c"
  3328 ;; Parameters:    Size  Location     Type
  3329 ;;  fp              2   13[COMRAM] PTR struct _IO_FILE
  3330 ;;		 -> NULL(0), 
  3331 ;;  fmt             1   15[COMRAM] PTR PTR unsigned char 
  3332 ;;		 -> vfprintf@cfmt(2), 
  3333 ;;  ap              1   16[COMRAM] PTR PTR void 
  3334 ;;		 -> printf@ap(1), 
  3335 ;; Auto vars:     Size  Location     Type
  3336 ;;  convarg         4   22[COMRAM] struct .
  3337 ;;  cp              2   20[COMRAM] PTR unsigned char 
  3338 ;;		 -> STR_22(26), STR_21(28), STR_20(28), STR_19(27), 
  3339 ;;		 -> STR_18(35), STR_17(32), STR_16(43), STR_15(30), 
  3340 ;;		 -> STR_14(25), STR_13(27), STR_12(14), STR_11(33), 
  3341 ;;		 -> STR_10(24), STR_9(26), STR_8(37), STR_7(30), 
  3342 ;;		 -> STR_6(26), STR_5(23), STR_4(19), STR_3(19), 
  3343 ;;		 -> STR_2(20), STR_1(20), 
  3344 ;;  c               1   26[COMRAM] unsigned char 
  3345 ;;  done            1   19[COMRAM] _Bool 
  3346 ;; Return value:  Size  Location     Type
  3347 ;;                  1    wreg      void 
  3348 ;; Registers used:
  3349 ;;		wreg, fsr1l, fsr1h, fsr2l, fsr2h, status,2, status,0, tblptrl, tblptrh, tblptru, cstack
  3350 ;; Tracked objects:
  3351 ;;		On entry : 0/0
  3352 ;;		On exit  : 0/0
  3353 ;;		Unchanged: 0/0
  3354 ;; Data sizes:     COMRAM   BANK0   BANK1   BANK2   BANK3   BANK4   BANK5   BANK6   BANK7   BANK8   BANK9  BANK10  BANK1
      +1  BANK12  BANK13  BANK14  BANK15
  3355 ;;      Params:         4       0       0       0       0       0       0       0       0       0       0       0       
      +0       0       0       0       0
  3356 ;;      Locals:         8       0       0       0       0       0       0       0       0       0       0       0       
      +0       0       0       0       0
  3357 ;;      Temps:          2       0       0       0       0       0       0       0       0       0       0       0       
      +0       0       0       0       0
  3358 ;;      Totals:        14       0       0       0       0       0       0       0       0       0       0       0       
      +0       0       0       0       0
  3359 ;;Total ram usage:       14 bytes
  3360 ;; Hardware stack levels used: 1
  3361 ;; Hardware stack levels required when called: 6
  3362 ;; This function calls:
  3363 ;;		___awdiv
  3364 ;;		___awmod
  3365 ;;		_abs
  3366 ;;		_fputc
  3367 ;; This function is called by:
  3368 ;;		_vfprintf
  3369 ;; This function uses a non-reentrant model
  3370 ;;
  3371                           
  3372                           	psect	text16
  3373   0002B8                     __ptext16:
  3374                           	callstack 0
  3375   0002B8                     _vfpfcnvrt:
  3376                           	callstack 22
  3377   0002B8                     
  3378                           ;C:\Program Files\Microchip\xc8\v2.45\pic\sources\c99\common\doprnt.c: 1177: vfpfcnvrt(F
      +                          ILE *fp, char *fmt[], va_list ap);C:\Program Files\Microchip\xc8\v2.45\pic\sources\c99\c
      +                          ommon\doprnt.c: 1178: {;C:\Program Files\Microchip\xc8\v2.45\pic\sources\c99\common\dopr
      +                          nt.c: 1179:     char c, *cp;;C:\Program Files\Microchip\xc8\v2.45\pic\sources\c99\common
      +                          \doprnt.c: 1180:     _Bool done;;C:\Program Files\Microchip\xc8\v2.45\pic\sources\c99\co
      +                          mmon\doprnt.c: 1188:  } convarg;;C:\Program Files\Microchip\xc8\v2.45\pic\sources\c99\co
      +                          mmon\doprnt.c: 1201:     if ((*fmt)[0] == '%') {
  3379   0002B8  5010               	movf	vfpfcnvrt@fmt^0,w,c
  3380   0002BA  6ED9               	movwf	fsr2l,c
  3381   0002BC  6ADA               	clrf	fsr2h,c
  3382   0002BE  006F FF7B FFF6     	movff	postinc2,tblptrl
  3383   0002C4  006F FF77 FFF7     	movff	postdec2,tblptrh
  3384   0002CA                     	if	1	;Program memory is < 0x10000, tblptru is always zero
  3385   0002CA  6AF8               	clrf	tblptru,c
  3386   0002CC                     	endif
  3387   0002CC                     	if	0	;tblptru may be non-zero
  3388   0002CC                     	endif
  3389   0002CC  0008               	tblrd		*
  3390   0002CE  50F5               	movf	tablat,w,c
  3391   0002D0  0A25               	xorlw	37
  3392   0002D2  A4D8               	btfss	status,2,c
  3393   0002D4  EF6E  F001         	goto	u2121
  3394   0002D8  EF70  F001         	goto	u2120
  3395   0002DC                     u2121:
  3396   0002DC  EF45  F002         	goto	l4549
  3397   0002E0                     u2120:
  3398   0002E0                     
  3399                           ;C:\Program Files\Microchip\xc8\v2.45\pic\sources\c99\common\doprnt.c: 1202:         ++*
      +                          fmt;
  3400   0002E0  5010               	movf	vfpfcnvrt@fmt^0,w,c
  3401   0002E2  6ED9               	movwf	fsr2l,c
  3402   0002E4  6ADA               	clrf	fsr2h,c
  3403   0002E6  2ADE               	incf	postinc2,f,c
  3404   0002E8  0E00               	movlw	0
  3405   0002EA  22DD               	addwfc	postdec2,f,c
  3406   0002EC                     
  3407                           ;C:\Program Files\Microchip\xc8\v2.45\pic\sources\c99\common\doprnt.c: 1204:         fla
      +                          gs = width = 0;
  3408   0002EC  0E00               	movlw	0
  3409   0002EE  6E32               	movwf	(_width+1)^0,c
  3410   0002F0  0E00               	movlw	0
  3411   0002F2  6E31               	movwf	_width^0,c
  3412   0002F4  C031  F045         	movff	_width,_flags
  3413   0002F8                     
  3414                           ;C:\Program Files\Microchip\xc8\v2.45\pic\sources\c99\common\doprnt.c: 1205:         pre
      +                          c = -1;
  3415   0002F8  6833               	setf	_prec^0,c
  3416   0002FA  6834               	setf	(_prec+1)^0,c
  3417   0002FC                     
  3418                           ;C:\Program Files\Microchip\xc8\v2.45\pic\sources\c99\common\doprnt.c: 1291:   cp = *fmt
      +                          ;
  3419   0002FC  5010               	movf	vfpfcnvrt@fmt^0,w,c
  3420   0002FE  6ED9               	movwf	fsr2l,c
  3421   000300  6ADA               	clrf	fsr2h,c
  3422   000302  006F FF78  F015    	movff	postinc2,vfpfcnvrt@cp
  3423   000308  006F FF74  F016    	movff	postdec2,vfpfcnvrt@cp+1
  3424   00030E                     
  3425                           ;C:\Program Files\Microchip\xc8\v2.45\pic\sources\c99\common\doprnt.c: 1361:   if (*cp =
      +                          = 'd' || *cp == 'i') {
  3426   00030E  0060  F057  FFF6   	movff	vfpfcnvrt@cp,tblptrl
  3427   000314  0060  F05B  FFF7   	movff	vfpfcnvrt@cp+1,tblptrh
  3428   00031A                     	if	1	;Program memory is < 0x10000, tblptru is always zero
  3429   00031A  6AF8               	clrf	tblptru,c
  3430   00031C                     	endif
  3431   00031C                     	if	0	;tblptru may be non-zero
  3432   00031C                     	endif
  3433   00031C  0008               	tblrd		*
  3434   00031E  50F5               	movf	tablat,w,c
  3435   000320  0A64               	xorlw	100
  3436   000322  B4D8               	btfsc	status,2,c
  3437   000324  EF96  F001         	goto	u2131
  3438   000328  EF98  F001         	goto	u2130
  3439   00032C                     u2131:
  3440   00032C  EFA9  F001         	goto	l4519
  3441   000330                     u2130:
  3442   000330  0060  F057  FFF6   	movff	vfpfcnvrt@cp,tblptrl
  3443   000336  0060  F05B  FFF7   	movff	vfpfcnvrt@cp+1,tblptrh
  3444   00033C                     	if	1	;Program memory is < 0x10000, tblptru is always zero
  3445   00033C  6AF8               	clrf	tblptru,c
  3446   00033E                     	endif
  3447   00033E                     	if	0	;tblptru may be non-zero
  3448   00033E                     	endif
  3449   00033E  0008               	tblrd		*
  3450   000340  50F5               	movf	tablat,w,c
  3451   000342  0A69               	xorlw	105
  3452   000344  A4D8               	btfss	status,2,c
  3453   000346  EFA7  F001         	goto	u2141
  3454   00034A  EFA9  F001         	goto	u2140
  3455   00034E                     u2141:
  3456   00034E  EF3D  F002         	goto	l4545
  3457   000352                     u2140:
  3458   000352                     l4519:
  3459                           
  3460                           ;C:\Program Files\Microchip\xc8\v2.45\pic\sources\c99\common\doprnt.c: 1404:    convarg.
      +                          sint = (vfpf_sint_t)(int)(*(int *)__va_arg(*(int **)ap, (int)0));
  3461   000352  5011               	movf	vfpfcnvrt@ap^0,w,c
  3462   000354  6ED9               	movwf	fsr2l,c
  3463   000356  6ADA               	clrf	fsr2h,c
  3464   000358  0E02               	movlw	2
  3465   00035A  26DF               	addwf	indf2,f,c
  3466   00035C  5CDF               	subwf	indf2,w,c
  3467   00035E  6ED9               	movwf	fsr2l,c
  3468   000360  6ADA               	clrf	fsr2h,c
  3469   000362  006F FF78  F017    	movff	postinc2,vfpfcnvrt@convarg
  3470   000368  006F FF78  F018    	movff	postinc2,vfpfcnvrt@convarg+1
  3471   00036E                     
  3472                           ;C:\Program Files\Microchip\xc8\v2.45\pic\sources\c99\common\doprnt.c: 1406:    *fmt = c
      +                          p+1;
  3473   00036E  0E01               	movlw	1
  3474   000370  2415               	addwf	vfpfcnvrt@cp^0,w,c
  3475   000372  6E12               	movwf	??_vfpfcnvrt^0,c
  3476   000374  0E00               	movlw	0
  3477   000376  2016               	addwfc	(vfpfcnvrt@cp+1)^0,w,c
  3478   000378  6E13               	movwf	(??_vfpfcnvrt+1)^0,c
  3479   00037A  5010               	movf	vfpfcnvrt@fmt^0,w,c
  3480   00037C  6ED9               	movwf	fsr2l,c
  3481   00037E  6ADA               	clrf	fsr2h,c
  3482   000380  0060  F04B  FFDE   	movff	??_vfpfcnvrt,postinc2
  3483   000386  0060  F04F  FFDD   	movff	??_vfpfcnvrt+1,postdec2
  3484   00038C                     
  3485                           ;C:\Program Files\Microchip\xc8\v2.45\pic\sources\c99\common\doprnt.c: 1408:    c = size
      +                          of(dbuf);
  3486   00038C  0E20               	movlw	32
  3487   00038E  6E1B               	movwf	vfpfcnvrt@c^0,c
  3488                           
  3489                           ;C:\Program Files\Microchip\xc8\v2.45\pic\sources\c99\common\doprnt.c: 1409:    done = c
      +                          onvarg.sint < 0;
  3490   000390  BE18               	btfsc	(vfpfcnvrt@convarg+1)^0,7,c
  3491   000392  EFCD  F001         	goto	u2151
  3492   000396  EFD0  F001         	goto	u2150
  3493   00039A                     u2151:
  3494   00039A  0E01               	movlw	1
  3495   00039C  EFD1  F001         	goto	u2160
  3496   0003A0                     u2150:
  3497   0003A0  0E00               	movlw	0
  3498   0003A2                     u2160:
  3499   0003A2  6E14               	movwf	vfpfcnvrt@done^0,c
  3500   0003A4                     l4525:
  3501                           
  3502                           ;C:\Program Files\Microchip\xc8\v2.45\pic\sources\c99\common\doprnt.c: 1411:     dbuf[--
      +                          c] = abs(convarg.sint % 10) + '0';
  3503   0003A4  061B               	decf	vfpfcnvrt@c^0,f,c
  3504   0003A6  501B               	movf	vfpfcnvrt@c^0,w,c
  3505   0003A8  0F84               	addlw	low _dbuf
  3506   0003AA  6ED9               	movwf	fsr2l,c
  3507   0003AC  6ADA               	clrf	fsr2h,c
  3508   0003AE  C017  F003         	movff	vfpfcnvrt@convarg,___awmod@dividend
  3509   0003B2  C018  F004         	movff	vfpfcnvrt@convarg+1,___awmod@dividend+1
  3510   0003B6  0E00               	movlw	0
  3511   0003B8  6E06               	movwf	(___awmod@divisor+1)^0,c
  3512   0003BA  0E0A               	movlw	10
  3513   0003BC  6E05               	movwf	___awmod@divisor^0,c
  3514   0003BE  EC23  F004         	call	___awmod	;wreg free
  3515   0003C2  C003  F009         	movff	?___awmod,abs@a
  3516   0003C6  C004  F00A         	movff	?___awmod+1,abs@a+1
  3517   0003CA  ECCA  F00A         	call	_abs	;wreg free
  3518   0003CE  5009               	movf	?_abs^0,w,c
  3519   0003D0  0F30               	addlw	48
  3520   0003D2  6EDF               	movwf	indf2,c
  3521   0003D4                     
  3522                           ;C:\Program Files\Microchip\xc8\v2.45\pic\sources\c99\common\doprnt.c: 1412:     convarg
      +                          .sint /= 10;
  3523   0003D4  C017  F003         	movff	vfpfcnvrt@convarg,___awdiv@dividend
  3524   0003D8  C018  F004         	movff	vfpfcnvrt@convarg+1,___awdiv@dividend+1
  3525   0003DC  0E00               	movlw	0
  3526   0003DE  6E06               	movwf	(___awdiv@divisor+1)^0,c
  3527   0003E0  0E0A               	movlw	10
  3528   0003E2  6E05               	movwf	___awdiv@divisor^0,c
  3529   0003E4  ECC1  F003         	call	___awdiv	;wreg free
  3530   0003E8  C003  F017         	movff	?___awdiv,vfpfcnvrt@convarg
  3531   0003EC  C004  F018         	movff	?___awdiv+1,vfpfcnvrt@convarg+1
  3532   0003F0                     
  3533                           ;C:\Program Files\Microchip\xc8\v2.45\pic\sources\c99\common\doprnt.c: 1416:    } while 
      +                          (convarg.sint != 0 && c != 0);
  3534   0003F0  5017               	movf	vfpfcnvrt@convarg^0,w,c
  3535   0003F2  1018               	iorwf	(vfpfcnvrt@convarg+1)^0,w,c
  3536   0003F4  B4D8               	btfsc	status,2,c
  3537   0003F6  EFFF  F001         	goto	u2171
  3538   0003FA  EF01  F002         	goto	u2170
  3539   0003FE                     u2171:
  3540   0003FE  EF09  F002         	goto	l4533
  3541   000402                     u2170:
  3542   000402  501B               	movf	vfpfcnvrt@c^0,w,c
  3543   000404  A4D8               	btfss	status,2,c
  3544   000406  EF07  F002         	goto	u2181
  3545   00040A  EF09  F002         	goto	u2180
  3546   00040E                     u2181:
  3547   00040E  EFD2  F001         	goto	l4525
  3548   000412                     u2180:
  3549   000412                     l4533:
  3550                           
  3551                           ;C:\Program Files\Microchip\xc8\v2.45\pic\sources\c99\common\doprnt.c: 1417:    if (c !=
      +                           0 && done) {
  3552   000412  501B               	movf	vfpfcnvrt@c^0,w,c
  3553   000414  B4D8               	btfsc	status,2,c
  3554   000416  EF0F  F002         	goto	u2191
  3555   00041A  EF11  F002         	goto	u2190
  3556   00041E                     u2191:
  3557   00041E  EF32  F002         	goto	l4543
  3558   000422                     u2190:
  3559   000422  5014               	movf	vfpfcnvrt@done^0,w,c
  3560   000424  B4D8               	btfsc	status,2,c
  3561   000426  EF17  F002         	goto	u2201
  3562   00042A  EF19  F002         	goto	u2200
  3563   00042E                     u2201:
  3564   00042E  EF32  F002         	goto	l4543
  3565   000432                     u2200:
  3566   000432                     
  3567                           ;C:\Program Files\Microchip\xc8\v2.45\pic\sources\c99\common\doprnt.c: 1418:     dbuf[--
      +                          c] = '-';
  3568   000432  061B               	decf	vfpfcnvrt@c^0,f,c
  3569   000434  501B               	movf	vfpfcnvrt@c^0,w,c
  3570   000436  0F84               	addlw	low _dbuf
  3571   000438  6ED9               	movwf	fsr2l,c
  3572   00043A  6ADA               	clrf	fsr2h,c
  3573   00043C  0E2D               	movlw	45
  3574   00043E  6EDF               	movwf	indf2,c
  3575   000440  EF32  F002         	goto	l4543
  3576   000444                     l4539:
  3577                           
  3578                           ;C:\Program Files\Microchip\xc8\v2.45\pic\sources\c99\common\doprnt.c: 1424:     fputc(d
      +                          buf[c++], fp);
  3579   000444  501B               	movf	vfpfcnvrt@c^0,w,c
  3580   000446  0F84               	addlw	low _dbuf
  3581   000448  6ED9               	movwf	fsr2l,c
  3582   00044A  6ADA               	clrf	fsr2h,c
  3583   00044C  50DF               	movf	indf2,w,c
  3584   00044E  6E12               	movwf	??_vfpfcnvrt^0,c
  3585   000450  5012               	movf	??_vfpfcnvrt^0,w,c
  3586   000452  6E05               	movwf	fputc@c^0,c
  3587   000454  6A06               	clrf	(fputc@c+1)^0,c
  3588   000456  C00E  F007         	movff	vfpfcnvrt@fp,fputc@fp
  3589   00045A  C00F  F008         	movff	vfpfcnvrt@fp+1,fputc@fp+1
  3590   00045E  ECED  F002         	call	_fputc	;wreg free
  3591   000462  2A1B               	incf	vfpfcnvrt@c^0,f,c
  3592   000464                     l4543:
  3593                           
  3594                           ;C:\Program Files\Microchip\xc8\v2.45\pic\sources\c99\common\doprnt.c: 1423:    while (c
      +                           != sizeof(dbuf)) {
  3595   000464  0E20               	movlw	32
  3596   000466  181B               	xorwf	vfpfcnvrt@c^0,w,c
  3597   000468  A4D8               	btfss	status,2,c
  3598   00046A  EF39  F002         	goto	u2211
  3599   00046E  EF3B  F002         	goto	u2210
  3600   000472                     u2211:
  3601   000472  EF22  F002         	goto	l4539
  3602   000476                     u2210:
  3603   000476  EF5B  F002         	goto	l2102
  3604   00047A                     l4545:
  3605                           
  3606                           ;C:\Program Files\Microchip\xc8\v2.45\pic\sources\c99\common\doprnt.c: 1806:         ++*
      +                          fmt;
  3607   00047A  5010               	movf	vfpfcnvrt@fmt^0,w,c
  3608   00047C  6ED9               	movwf	fsr2l,c
  3609   00047E  6ADA               	clrf	fsr2h,c
  3610   000480  2ADE               	incf	postinc2,f,c
  3611   000482  0E00               	movlw	0
  3612   000484  22DD               	addwfc	postdec2,f,c
  3613   000486  EF5B  F002         	goto	l2102
  3614   00048A                     l4549:
  3615                           
  3616                           ;C:\Program Files\Microchip\xc8\v2.45\pic\sources\c99\common\doprnt.c: 1811:     fputc((
      +                          int)(*fmt)[0], fp);
  3617   00048A  5010               	movf	vfpfcnvrt@fmt^0,w,c
  3618   00048C  6ED9               	movwf	fsr2l,c
  3619   00048E  6ADA               	clrf	fsr2h,c
  3620   000490  006F FF7B FFF6     	movff	postinc2,tblptrl
  3621   000496  006F FF77 FFF7     	movff	postdec2,tblptrh
  3622   00049C                     	if	1	;Program memory is < 0x10000, tblptru is always zero
  3623   00049C  6AF8               	clrf	tblptru,c
  3624   00049E                     	endif
  3625   00049E                     	if	0	;tblptru may be non-zero
  3626   00049E                     	endif
  3627   00049E  0008               	tblrd		*
  3628   0004A0  50F5               	movf	tablat,w,c
  3629   0004A2  6E05               	movwf	fputc@c^0,c
  3630   0004A4  6A06               	clrf	(fputc@c+1)^0,c
  3631   0004A6  C00E  F007         	movff	vfpfcnvrt@fp,fputc@fp
  3632   0004AA  C00F  F008         	movff	vfpfcnvrt@fp+1,fputc@fp+1
  3633   0004AE  ECED  F002         	call	_fputc	;wreg free
  3634   0004B2  EF3D  F002         	goto	l4545
  3635   0004B6                     l2102:
  3636   0004B6  0012               	return		;funcret
  3637   0004B8                     __end_of_vfpfcnvrt:
  3638                           	callstack 0
  3639                           
  3640 ;; *************** function _fputc *****************
  3641 ;; Defined at:
  3642 ;;		line 8 in file "C:\Program Files\Microchip\xc8\v2.45\pic\sources\c99\common\nf_fputc.c"
  3643 ;; Parameters:    Size  Location     Type
  3644 ;;  c               2    4[COMRAM] int 
  3645 ;;  fp              2    6[COMRAM] PTR struct _IO_FILE
  3646 ;;		 -> NULL(0), 
  3647 ;; Auto vars:     Size  Location     Type
  3648 ;;		None
  3649 ;; Return value:  Size  Location     Type
  3650 ;;                  2    4[COMRAM] int 
  3651 ;; Registers used:
  3652 ;;		wreg, fsr1l, fsr1h, fsr2l, fsr2h, status,2, status,0, cstack
  3653 ;; Tracked objects:
  3654 ;;		On entry : 0/0
  3655 ;;		On exit  : 0/0
  3656 ;;		Unchanged: 0/0
  3657 ;; Data sizes:     COMRAM   BANK0   BANK1   BANK2   BANK3   BANK4   BANK5   BANK6   BANK7   BANK8   BANK9  BANK10  BANK1
      +1  BANK12  BANK13  BANK14  BANK15
  3658 ;;      Params:         4       0       0       0       0       0       0       0       0       0       0       0       
      +0       0       0       0       0
  3659 ;;      Locals:         0       0       0       0       0       0       0       0       0       0       0       0       
      +0       0       0       0       0
  3660 ;;      Temps:          5       0       0       0       0       0       0       0       0       0       0       0       
      +0       0       0       0       0
  3661 ;;      Totals:         9       0       0       0       0       0       0       0       0       0       0       0       
      +0       0       0       0       0
  3662 ;;Total ram usage:        9 bytes
  3663 ;; Hardware stack levels used: 1
  3664 ;; Hardware stack levels required when called: 5
  3665 ;; This function calls:
  3666 ;;		_putch
  3667 ;; This function is called by:
  3668 ;;		_vfpfcnvrt
  3669 ;; This function uses a non-reentrant model
  3670 ;;
  3671                           
  3672                           	psect	text17
  3673   0005DA                     __ptext17:
  3674                           	callstack 0
  3675   0005DA                     _fputc:
  3676                           	callstack 22
  3677   0005DA  5007               	movf	fputc@fp^0,w,c
  3678   0005DC  1008               	iorwf	(fputc@fp+1)^0,w,c
  3679   0005DE  B4D8               	btfsc	status,2,c
  3680   0005E0  EFF4  F002         	goto	u2041
  3681   0005E4  EFF6  F002         	goto	u2040
  3682   0005E8                     u2041:
  3683   0005E8  EFFF  F002         	goto	l4447
  3684   0005EC                     u2040:
  3685   0005EC  5007               	movf	fputc@fp^0,w,c
  3686   0005EE  1008               	iorwf	(fputc@fp+1)^0,w,c
  3687   0005F0  A4D8               	btfss	status,2,c
  3688   0005F2  EFFD  F002         	goto	u2051
  3689   0005F6  EFFF  F002         	goto	u2050
  3690   0005FA                     u2051:
  3691   0005FA  EF04  F003         	goto	l4449
  3692   0005FE                     u2050:
  3693   0005FE                     l4447:
  3694   0005FE  5005               	movf	fputc@c^0,w,c
  3695   000600  ECD3  F00C         	call	_putch
  3696   000604  EF58  F003         	goto	l2127
  3697   000608                     l4449:
  3698   000608  EE20 F00A          	lfsr	2,10
  3699   00060C  5007               	movf	fputc@fp^0,w,c
  3700   00060E  26D9               	addwf	fsr2l,f,c
  3701   000610  5008               	movf	(fputc@fp+1)^0,w,c
  3702   000612  22DA               	addwfc	fsr2h,f,c
  3703   000614  50DE               	movf	postinc2,w,c
  3704   000616  10DE               	iorwf	postinc2,w,c
  3705   000618  B4D8               	btfsc	status,2,c
  3706   00061A  EF11  F003         	goto	u2061
  3707   00061E  EF13  F003         	goto	u2060
  3708   000622                     u2061:
  3709   000622  EF2E  F003         	goto	l4453
  3710   000626                     u2060:
  3711   000626  EE20 F00A          	lfsr	2,10
  3712   00062A  5007               	movf	fputc@fp^0,w,c
  3713   00062C  26D9               	addwf	fsr2l,f,c
  3714   00062E  5008               	movf	(fputc@fp+1)^0,w,c
  3715   000630  22DA               	addwfc	fsr2h,f,c
  3716   000632  EE10 F003          	lfsr	1,3
  3717   000636  5007               	movf	fputc@fp^0,w,c
  3718   000638  26E1               	addwf	fsr1l,f,c
  3719   00063A  5008               	movf	(fputc@fp+1)^0,w,c
  3720   00063C  22E2               	addwfc	fsr1h,f,c
  3721   00063E  50DE               	movf	postinc2,w,c
  3722   000640  5CE6               	subwf	postinc1,w,c
  3723   000642  50E6               	movf	postinc1,w,c
  3724   000644  0A80               	xorlw	128
  3725   000646  6E0D               	movwf	(??_fputc+4)^0,c
  3726   000648  50DE               	movf	postinc2,w,c
  3727   00064A  0A80               	xorlw	128
  3728   00064C  580D               	subwfb	(??_fputc+4)^0,w,c
  3729   00064E  B0D8               	btfsc	status,0,c
  3730   000650  EF2C  F003         	goto	u2071
  3731   000654  EF2E  F003         	goto	u2070
  3732   000658                     u2071:
  3733   000658  EF58  F003         	goto	l2127
  3734   00065C                     u2070:
  3735   00065C                     l4453:
  3736   00065C  EE20 F003          	lfsr	2,3
  3737   000660  5007               	movf	fputc@fp^0,w,c
  3738   000662  26D9               	addwf	fsr2l,f,c
  3739   000664  5008               	movf	(fputc@fp+1)^0,w,c
  3740   000666  22DA               	addwfc	fsr2h,f,c
  3741   000668  006F FF78  F009    	movff	postinc2,??_fputc
  3742   00066E  006F FF74  F00A    	movff	postdec2,??_fputc+1
  3743   000674  0060  F01F  FFD9   	movff	fputc@fp,fsr2l
  3744   00067A  0060  F023  FFDA   	movff	fputc@fp+1,fsr2h
  3745   000680  006F FF78  F00B    	movff	postinc2,??_fputc+2
  3746   000686  006F FF74  F00C    	movff	postdec2,??_fputc+3
  3747   00068C  5009               	movf	??_fputc^0,w,c
  3748   00068E  240B               	addwf	(??_fputc+2)^0,w,c
  3749   000690  6ED9               	movwf	fsr2l,c
  3750   000692  500A               	movf	(??_fputc+1)^0,w,c
  3751   000694  200C               	addwfc	(??_fputc+3)^0,w,c
  3752   000696  6EDA               	movwf	fsr2h,c
  3753   000698  0060  F017  FFDF   	movff	fputc@c,indf2
  3754   00069E  EE20 F003          	lfsr	2,3
  3755   0006A2  5007               	movf	fputc@fp^0,w,c
  3756   0006A4  26D9               	addwf	fsr2l,f,c
  3757   0006A6  5008               	movf	(fputc@fp+1)^0,w,c
  3758   0006A8  22DA               	addwfc	fsr2h,f,c
  3759   0006AA  2ADE               	incf	postinc2,f,c
  3760   0006AC  0E00               	movlw	0
  3761   0006AE  22DD               	addwfc	postdec2,f,c
  3762   0006B0                     l2127:
  3763   0006B0  0012               	return		;funcret
  3764   0006B2                     __end_of_fputc:
  3765                           	callstack 0
  3766                           
  3767 ;; *************** function _putch *****************
  3768 ;; Defined at:
  3769 ;;		line 184 in file "mcc_generated_files/uart2.c"
  3770 ;; Parameters:    Size  Location     Type
  3771 ;;  txData          1    wreg     unsigned char 
  3772 ;; Auto vars:     Size  Location     Type
  3773 ;;  txData          1    3[COMRAM] unsigned char 
  3774 ;; Return value:  Size  Location     Type
  3775 ;;                  1    wreg      void 
  3776 ;; Registers used:
  3777 ;;		wreg, status,2, cstack
  3778 ;; Tracked objects:
  3779 ;;		On entry : 0/0
  3780 ;;		On exit  : 0/0
  3781 ;;		Unchanged: 0/0
  3782 ;; Data sizes:     COMRAM   BANK0   BANK1   BANK2   BANK3   BANK4   BANK5   BANK6   BANK7   BANK8   BANK9  BANK10  BANK1
      +1  BANK12  BANK13  BANK14  BANK15
  3783 ;;      Params:         0       0       0       0       0       0       0       0       0       0       0       0       
      +0       0       0       0       0
  3784 ;;      Locals:         1       0       0       0       0       0       0       0       0       0       0       0       
      +0       0       0       0       0
  3785 ;;      Temps:          0       0       0       0       0       0       0       0       0       0       0       0       
      +0       0       0       0       0
  3786 ;;      Totals:         1       0       0       0       0       0       0       0       0       0       0       0       
      +0       0       0       0       0
  3787 ;;Total ram usage:        1 bytes
  3788 ;; Hardware stack levels used: 1
  3789 ;; Hardware stack levels required when called: 4
  3790 ;; This function calls:
  3791 ;;		_UART2_Write
  3792 ;; This function is called by:
  3793 ;;		_fputc
  3794 ;; This function uses a non-reentrant model
  3795 ;;
  3796                           
  3797                           	psect	text18
  3798   0019A6                     __ptext18:
  3799                           	callstack 0
  3800   0019A6                     _putch:
  3801                           	callstack 22
  3802                           
  3803                           ;incstack = 0
  3804                           ;putch@txData stored from wreg
  3805   0019A6  6E04               	movwf	putch@txData^0,c
  3806   0019A8                     
  3807                           ;mcc_generated_files/uart2.c: 184: void putch(char txData);mcc_generated_files/uart2.c: 
      +                          185: {;mcc_generated_files/uart2.c: 186:     UART2_Write(txData);
  3808   0019A8  5004               	movf	putch@txData^0,w,c
  3809   0019AA  EC2B  F00C         	call	_UART2_Write
  3810   0019AE  0012               	return		;funcret
  3811   0019B0                     __end_of_putch:
  3812                           	callstack 0
  3813                           
  3814 ;; *************** function _UART2_Write *****************
  3815 ;; Defined at:
  3816 ;;		line 170 in file "mcc_generated_files/uart2.c"
  3817 ;; Parameters:    Size  Location     Type
  3818 ;;  txData          1    wreg     unsigned char 
  3819 ;; Auto vars:     Size  Location     Type
  3820 ;;  txData          1    2[COMRAM] unsigned char 
  3821 ;; Return value:  Size  Location     Type
  3822 ;;                  1    wreg      void 
  3823 ;; Registers used:
  3824 ;;		wreg
  3825 ;; Tracked objects:
  3826 ;;		On entry : 0/0
  3827 ;;		On exit  : 0/0
  3828 ;;		Unchanged: 0/0
  3829 ;; Data sizes:     COMRAM   BANK0   BANK1   BANK2   BANK3   BANK4   BANK5   BANK6   BANK7   BANK8   BANK9  BANK10  BANK1
      +1  BANK12  BANK13  BANK14  BANK15
  3830 ;;      Params:         0       0       0       0       0       0       0       0       0       0       0       0       
      +0       0       0       0       0
  3831 ;;      Locals:         1       0       0       0       0       0       0       0       0       0       0       0       
      +0       0       0       0       0
  3832 ;;      Temps:          0       0       0       0       0       0       0       0       0       0       0       0       
      +0       0       0       0       0
  3833 ;;      Totals:         1       0       0       0       0       0       0       0       0       0       0       0       
      +0       0       0       0       0
  3834 ;;Total ram usage:        1 bytes
  3835 ;; Hardware stack levels used: 1
  3836 ;; Hardware stack levels required when called: 3
  3837 ;; This function calls:
  3838 ;;		Nothing
  3839 ;; This function is called by:
  3840 ;;		_putch
  3841 ;; This function uses a non-reentrant model
  3842 ;;
  3843                           
  3844                           	psect	text19
  3845   001856                     __ptext19:
  3846                           	callstack 0
  3847   001856                     _UART2_Write:
  3848                           	callstack 22
  3849                           
  3850                           ;incstack = 0
  3851                           ;UART2_Write@txData stored from wreg
  3852   001856  6E03               	movwf	UART2_Write@txData^0,c
  3853   001858                     l193:
  3854                           
  3855                           ;mcc_generated_files/uart2.c: 172:     while(0 == PIR7bits.U2TXIF)
  3856   001858  0139               	movlb	57	; () banked
  3857   00185A  ABA7               	btfss	167,5,b	;volatile
  3858   00185C  EF32  F00C         	goto	u1681
  3859   001860  EF34  F00C         	goto	u1680
  3860   001864                     u1681:
  3861   001864  EF2C  F00C         	goto	l193
  3862   001868                     u1680:
  3863   001868                     
  3864                           ; BSR set to: 57
  3865                           ;mcc_generated_files/uart2.c: 176:     U2TXB = txData;
  3866   001868  0060  F00F  FDD2   	movff	UART2_Write@txData,15826	;volatile
  3867   00186E                     
  3868                           ; BSR set to: 57
  3869   00186E  0012               	return		;funcret
  3870   001870                     __end_of_UART2_Write:
  3871                           	callstack 0
  3872                           
  3873 ;; *************** function _abs *****************
  3874 ;; Defined at:
  3875 ;;		line 1 in file "C:\Program Files\Microchip\xc8\v2.45\pic\sources\c99\common\abs.c"
  3876 ;; Parameters:    Size  Location     Type
  3877 ;;  a               2    8[COMRAM] int 
  3878 ;; Auto vars:     Size  Location     Type
  3879 ;;		None
  3880 ;; Return value:  Size  Location     Type
  3881 ;;                  2    8[COMRAM] int 
  3882 ;; Registers used:
  3883 ;;		wreg, status,2, status,0
  3884 ;; Tracked objects:
  3885 ;;		On entry : 0/0
  3886 ;;		On exit  : 0/0
  3887 ;;		Unchanged: 0/0
  3888 ;; Data sizes:     COMRAM   BANK0   BANK1   BANK2   BANK3   BANK4   BANK5   BANK6   BANK7   BANK8   BANK9  BANK10  BANK1
      +1  BANK12  BANK13  BANK14  BANK15
  3889 ;;      Params:         2       0       0       0       0       0       0       0       0       0       0       0       
      +0       0       0       0       0
  3890 ;;      Locals:         0       0       0       0       0       0       0       0       0       0       0       0       
      +0       0       0       0       0
  3891 ;;      Temps:          2       0       0       0       0       0       0       0       0       0       0       0       
      +0       0       0       0       0
  3892 ;;      Totals:         4       0       0       0       0       0       0       0       0       0       0       0       
      +0       0       0       0       0
  3893 ;;Total ram usage:        4 bytes
  3894 ;; Hardware stack levels used: 1
  3895 ;; Hardware stack levels required when called: 3
  3896 ;; This function calls:
  3897 ;;		Nothing
  3898 ;; This function is called by:
  3899 ;;		_vfpfcnvrt
  3900 ;; This function uses a non-reentrant model
  3901 ;;
  3902                           
  3903                           	psect	text20
  3904   001594                     __ptext20:
  3905                           	callstack 0
  3906   001594                     _abs:
  3907                           	callstack 24
  3908   001594  BE0A               	btfsc	(abs@a+1)^0,7,c
  3909   001596  EFCF  F00A         	goto	u2081
  3910   00159A  EFD1  F00A         	goto	u2080
  3911   00159E                     u2081:
  3912   00159E  EFD7  F00A         	goto	l2112
  3913   0015A2                     u2080:
  3914   0015A2  C009  F009         	movff	abs@a,?_abs
  3915   0015A6  C00A  F00A         	movff	abs@a+1,?_abs+1
  3916   0015AA  EFE3  F00A         	goto	l2115
  3917   0015AE                     l2112:
  3918   0015AE  C009  F00B         	movff	abs@a,??_abs
  3919   0015B2  C00A  F00C         	movff	abs@a+1,??_abs+1
  3920   0015B6  1E0B               	comf	??_abs^0,f,c
  3921   0015B8  1E0C               	comf	(??_abs+1)^0,f,c
  3922   0015BA  4A0B               	infsnz	??_abs^0,f,c
  3923   0015BC  2A0C               	incf	(??_abs+1)^0,f,c
  3924   0015BE  C00B  F009         	movff	??_abs,?_abs
  3925   0015C2  C00C  F00A         	movff	??_abs+1,?_abs+1
  3926   0015C6                     l2115:
  3927   0015C6  0012               	return		;funcret
  3928   0015C8                     __end_of_abs:
  3929                           	callstack 0
  3930                           
  3931 ;; *************** function ___awmod *****************
  3932 ;; Defined at:
  3933 ;;		line 7 in file "C:\Program Files\Microchip\xc8\v2.45\pic\sources\c99\common\awmod.c"
  3934 ;; Parameters:    Size  Location     Type
  3935 ;;  dividend        2    2[COMRAM] int 
  3936 ;;  divisor         2    4[COMRAM] int 
  3937 ;; Auto vars:     Size  Location     Type
  3938 ;;  sign            1    7[COMRAM] unsigned char 
  3939 ;;  counter         1    6[COMRAM] unsigned char 
  3940 ;; Return value:  Size  Location     Type
  3941 ;;                  2    2[COMRAM] int 
  3942 ;; Registers used:
  3943 ;;		wreg, status,2, status,0
  3944 ;; Tracked objects:
  3945 ;;		On entry : 0/0
  3946 ;;		On exit  : 0/0
  3947 ;;		Unchanged: 0/0
  3948 ;; Data sizes:     COMRAM   BANK0   BANK1   BANK2   BANK3   BANK4   BANK5   BANK6   BANK7   BANK8   BANK9  BANK10  BANK1
      +1  BANK12  BANK13  BANK14  BANK15
  3949 ;;      Params:         4       0       0       0       0       0       0       0       0       0       0       0       
      +0       0       0       0       0
  3950 ;;      Locals:         2       0       0       0       0       0       0       0       0       0       0       0       
      +0       0       0       0       0
  3951 ;;      Temps:          0       0       0       0       0       0       0       0       0       0       0       0       
      +0       0       0       0       0
  3952 ;;      Totals:         6       0       0       0       0       0       0       0       0       0       0       0       
      +0       0       0       0       0
  3953 ;;Total ram usage:        6 bytes
  3954 ;; Hardware stack levels used: 1
  3955 ;; Hardware stack levels required when called: 3
  3956 ;; This function calls:
  3957 ;;		Nothing
  3958 ;; This function is called by:
  3959 ;;		_vfpfcnvrt
  3960 ;; This function uses a non-reentrant model
  3961 ;;
  3962                           
  3963                           	psect	text21
  3964   000846                     __ptext21:
  3965                           	callstack 0
  3966   000846                     ___awmod:
  3967                           	callstack 24
  3968   000846  0E00               	movlw	0
  3969   000848  6E08               	movwf	___awmod@sign^0,c
  3970   00084A  BE04               	btfsc	(___awmod@dividend+1)^0,7,c
  3971   00084C  EF2C  F004         	goto	u1980
  3972   000850  EF2A  F004         	goto	u1981
  3973   000854                     u1981:
  3974   000854  EF32  F004         	goto	l4415
  3975   000858                     u1980:
  3976   000858  6C03               	negf	___awmod@dividend^0,c
  3977   00085A  1E04               	comf	(___awmod@dividend+1)^0,f,c
  3978   00085C  B0D8               	btfsc	status,0,c
  3979   00085E  2A04               	incf	(___awmod@dividend+1)^0,f,c
  3980   000860  0E01               	movlw	1
  3981   000862  6E08               	movwf	___awmod@sign^0,c
  3982   000864                     l4415:
  3983   000864  BE06               	btfsc	(___awmod@divisor+1)^0,7,c
  3984   000866  EF39  F004         	goto	u1990
  3985   00086A  EF37  F004         	goto	u1991
  3986   00086E                     u1991:
  3987   00086E  EF3D  F004         	goto	l4419
  3988   000872                     u1990:
  3989   000872  6C05               	negf	___awmod@divisor^0,c
  3990   000874  1E06               	comf	(___awmod@divisor+1)^0,f,c
  3991   000876  B0D8               	btfsc	status,0,c
  3992   000878  2A06               	incf	(___awmod@divisor+1)^0,f,c
  3993   00087A                     l4419:
  3994   00087A  5005               	movf	___awmod@divisor^0,w,c
  3995   00087C  1006               	iorwf	(___awmod@divisor+1)^0,w,c
  3996   00087E  B4D8               	btfsc	status,2,c
  3997   000880  EF44  F004         	goto	u2001
  3998   000884  EF46  F004         	goto	u2000
  3999   000888                     u2001:
  4000   000888  EF6A  F004         	goto	l4435
  4001   00088C                     u2000:
  4002   00088C  0E01               	movlw	1
  4003   00088E  6E07               	movwf	___awmod@counter^0,c
  4004   000890  EF4E  F004         	goto	l4425
  4005   000894                     l4423:
  4006   000894  90D8               	bcf	status,0,c
  4007   000896  3605               	rlcf	___awmod@divisor^0,f,c
  4008   000898  3606               	rlcf	(___awmod@divisor+1)^0,f,c
  4009   00089A  2A07               	incf	___awmod@counter^0,f,c
  4010   00089C                     l4425:
  4011   00089C  AE06               	btfss	(___awmod@divisor+1)^0,7,c
  4012   00089E  EF53  F004         	goto	u2011
  4013   0008A2  EF55  F004         	goto	u2010
  4014   0008A6                     u2011:
  4015   0008A6  EF4A  F004         	goto	l4423
  4016   0008AA                     u2010:
  4017   0008AA                     l4427:
  4018   0008AA  5005               	movf	___awmod@divisor^0,w,c
  4019   0008AC  5C03               	subwf	___awmod@dividend^0,w,c
  4020   0008AE  5006               	movf	(___awmod@divisor+1)^0,w,c
  4021   0008B0  5804               	subwfb	(___awmod@dividend+1)^0,w,c
  4022   0008B2  A0D8               	btfss	status,0,c
  4023   0008B4  EF5E  F004         	goto	u2021
  4024   0008B8  EF60  F004         	goto	u2020
  4025   0008BC                     u2021:
  4026   0008BC  EF64  F004         	goto	l4431
  4027   0008C0                     u2020:
  4028   0008C0  5005               	movf	___awmod@divisor^0,w,c
  4029   0008C2  5E03               	subwf	___awmod@dividend^0,f,c
  4030   0008C4  5006               	movf	(___awmod@divisor+1)^0,w,c
  4031   0008C6  5A04               	subwfb	(___awmod@dividend+1)^0,f,c
  4032   0008C8                     l4431:
  4033   0008C8  90D8               	bcf	status,0,c
  4034   0008CA  3206               	rrcf	(___awmod@divisor+1)^0,f,c
  4035   0008CC  3205               	rrcf	___awmod@divisor^0,f,c
  4036   0008CE  2E07               	decfsz	___awmod@counter^0,f,c
  4037   0008D0  EF55  F004         	goto	l4427
  4038   0008D4                     l4435:
  4039   0008D4  5008               	movf	___awmod@sign^0,w,c
  4040   0008D6  B4D8               	btfsc	status,2,c
  4041   0008D8  EF70  F004         	goto	u2031
  4042   0008DC  EF72  F004         	goto	u2030
  4043   0008E0                     u2031:
  4044   0008E0  EF76  F004         	goto	l4439
  4045   0008E4                     u2030:
  4046   0008E4  6C03               	negf	___awmod@dividend^0,c
  4047   0008E6  1E04               	comf	(___awmod@dividend+1)^0,f,c
  4048   0008E8  B0D8               	btfsc	status,0,c
  4049   0008EA  2A04               	incf	(___awmod@dividend+1)^0,f,c
  4050   0008EC                     l4439:
  4051   0008EC  C003  F003         	movff	___awmod@dividend,?___awmod
  4052   0008F0  C004  F004         	movff	___awmod@dividend+1,?___awmod+1
  4053   0008F4  0012               	return		;funcret
  4054   0008F6                     __end_of___awmod:
  4055                           	callstack 0
  4056                           
  4057 ;; *************** function ___awdiv *****************
  4058 ;; Defined at:
  4059 ;;		line 7 in file "C:\Program Files\Microchip\xc8\v2.45\pic\sources\c99\common\awdiv.c"
  4060 ;; Parameters:    Size  Location     Type
  4061 ;;  dividend        2    2[COMRAM] int 
  4062 ;;  divisor         2    4[COMRAM] int 
  4063 ;; Auto vars:     Size  Location     Type
  4064 ;;  quotient        2    8[COMRAM] int 
  4065 ;;  sign            1    7[COMRAM] unsigned char 
  4066 ;;  counter         1    6[COMRAM] unsigned char 
  4067 ;; Return value:  Size  Location     Type
  4068 ;;                  2    2[COMRAM] int 
  4069 ;; Registers used:
  4070 ;;		wreg, status,2, status,0
  4071 ;; Tracked objects:
  4072 ;;		On entry : 0/0
  4073 ;;		On exit  : 0/0
  4074 ;;		Unchanged: 0/0
  4075 ;; Data sizes:     COMRAM   BANK0   BANK1   BANK2   BANK3   BANK4   BANK5   BANK6   BANK7   BANK8   BANK9  BANK10  BANK1
      +1  BANK12  BANK13  BANK14  BANK15
  4076 ;;      Params:         4       0       0       0       0       0       0       0       0       0       0       0       
      +0       0       0       0       0
  4077 ;;      Locals:         4       0       0       0       0       0       0       0       0       0       0       0       
      +0       0       0       0       0
  4078 ;;      Temps:          0       0       0       0       0       0       0       0       0       0       0       0       
      +0       0       0       0       0
  4079 ;;      Totals:         8       0       0       0       0       0       0       0       0       0       0       0       
      +0       0       0       0       0
  4080 ;;Total ram usage:        8 bytes
  4081 ;; Hardware stack levels used: 1
  4082 ;; Hardware stack levels required when called: 3
  4083 ;; This function calls:
  4084 ;;		Nothing
  4085 ;; This function is called by:
  4086 ;;		_vfpfcnvrt
  4087 ;; This function uses a non-reentrant model
  4088 ;;
  4089                           
  4090                           	psect	text22
  4091   000782                     __ptext22:
  4092                           	callstack 0
  4093   000782                     ___awdiv:
  4094                           	callstack 24
  4095   000782  0E00               	movlw	0
  4096   000784  6E08               	movwf	___awdiv@sign^0,c
  4097   000786  BE06               	btfsc	(___awdiv@divisor+1)^0,7,c
  4098   000788  EFCA  F003         	goto	u1920
  4099   00078C  EFC8  F003         	goto	u1921
  4100   000790                     u1921:
  4101   000790  EFD0  F003         	goto	l4371
  4102   000794                     u1920:
  4103   000794  6C05               	negf	___awdiv@divisor^0,c
  4104   000796  1E06               	comf	(___awdiv@divisor+1)^0,f,c
  4105   000798  B0D8               	btfsc	status,0,c
  4106   00079A  2A06               	incf	(___awdiv@divisor+1)^0,f,c
  4107   00079C  0E01               	movlw	1
  4108   00079E  6E08               	movwf	___awdiv@sign^0,c
  4109   0007A0                     l4371:
  4110   0007A0  BE04               	btfsc	(___awdiv@dividend+1)^0,7,c
  4111   0007A2  EFD7  F003         	goto	u1930
  4112   0007A6  EFD5  F003         	goto	u1931
  4113   0007AA                     u1931:
  4114   0007AA  EFDD  F003         	goto	l4377
  4115   0007AE                     u1930:
  4116   0007AE  6C03               	negf	___awdiv@dividend^0,c
  4117   0007B0  1E04               	comf	(___awdiv@dividend+1)^0,f,c
  4118   0007B2  B0D8               	btfsc	status,0,c
  4119   0007B4  2A04               	incf	(___awdiv@dividend+1)^0,f,c
  4120   0007B6  0E01               	movlw	1
  4121   0007B8  1A08               	xorwf	___awdiv@sign^0,f,c
  4122   0007BA                     l4377:
  4123   0007BA  0E00               	movlw	0
  4124   0007BC  6E0A               	movwf	(___awdiv@quotient+1)^0,c
  4125   0007BE  0E00               	movlw	0
  4126   0007C0  6E09               	movwf	___awdiv@quotient^0,c
  4127   0007C2  5005               	movf	___awdiv@divisor^0,w,c
  4128   0007C4  1006               	iorwf	(___awdiv@divisor+1)^0,w,c
  4129   0007C6  B4D8               	btfsc	status,2,c
  4130   0007C8  EFE8  F003         	goto	u1941
  4131   0007CC  EFEA  F003         	goto	u1940
  4132   0007D0                     u1941:
  4133   0007D0  EF12  F004         	goto	l4399
  4134   0007D4                     u1940:
  4135   0007D4  0E01               	movlw	1
  4136   0007D6  6E07               	movwf	___awdiv@counter^0,c
  4137   0007D8  EFF2  F003         	goto	l4385
  4138   0007DC                     l4383:
  4139   0007DC  90D8               	bcf	status,0,c
  4140   0007DE  3605               	rlcf	___awdiv@divisor^0,f,c
  4141   0007E0  3606               	rlcf	(___awdiv@divisor+1)^0,f,c
  4142   0007E2  2A07               	incf	___awdiv@counter^0,f,c
  4143   0007E4                     l4385:
  4144   0007E4  AE06               	btfss	(___awdiv@divisor+1)^0,7,c
  4145   0007E6  EFF7  F003         	goto	u1951
  4146   0007EA  EFF9  F003         	goto	u1950
  4147   0007EE                     u1951:
  4148   0007EE  EFEE  F003         	goto	l4383
  4149   0007F2                     u1950:
  4150   0007F2                     l4387:
  4151   0007F2  90D8               	bcf	status,0,c
  4152   0007F4  3609               	rlcf	___awdiv@quotient^0,f,c
  4153   0007F6  360A               	rlcf	(___awdiv@quotient+1)^0,f,c
  4154   0007F8  5005               	movf	___awdiv@divisor^0,w,c
  4155   0007FA  5C03               	subwf	___awdiv@dividend^0,w,c
  4156   0007FC  5006               	movf	(___awdiv@divisor+1)^0,w,c
  4157   0007FE  5804               	subwfb	(___awdiv@dividend+1)^0,w,c
  4158   000800  A0D8               	btfss	status,0,c
  4159   000802  EF05  F004         	goto	u1961
  4160   000806  EF07  F004         	goto	u1960
  4161   00080A                     u1961:
  4162   00080A  EF0C  F004         	goto	l4395
  4163   00080E                     u1960:
  4164   00080E  5005               	movf	___awdiv@divisor^0,w,c
  4165   000810  5E03               	subwf	___awdiv@dividend^0,f,c
  4166   000812  5006               	movf	(___awdiv@divisor+1)^0,w,c
  4167   000814  5A04               	subwfb	(___awdiv@dividend+1)^0,f,c
  4168   000816  8009               	bsf	___awdiv@quotient^0,0,c
  4169   000818                     l4395:
  4170   000818  90D8               	bcf	status,0,c
  4171   00081A  3206               	rrcf	(___awdiv@divisor+1)^0,f,c
  4172   00081C  3205               	rrcf	___awdiv@divisor^0,f,c
  4173   00081E  2E07               	decfsz	___awdiv@counter^0,f,c
  4174   000820  EFF9  F003         	goto	l4387
  4175   000824                     l4399:
  4176   000824  5008               	movf	___awdiv@sign^0,w,c
  4177   000826  B4D8               	btfsc	status,2,c
  4178   000828  EF18  F004         	goto	u1971
  4179   00082C  EF1A  F004         	goto	u1970
  4180   000830                     u1971:
  4181   000830  EF1E  F004         	goto	l4403
  4182   000834                     u1970:
  4183   000834  6C09               	negf	___awdiv@quotient^0,c
  4184   000836  1E0A               	comf	(___awdiv@quotient+1)^0,f,c
  4185   000838  B0D8               	btfsc	status,0,c
  4186   00083A  2A0A               	incf	(___awdiv@quotient+1)^0,f,c
  4187   00083C                     l4403:
  4188   00083C  C009  F003         	movff	___awdiv@quotient,?___awdiv
  4189   000840  C00A  F004         	movff	___awdiv@quotient+1,?___awdiv+1
  4190   000844  0012               	return		;funcret
  4191   000846                     __end_of___awdiv:
  4192                           	callstack 0
  4193                           
  4194 ;; *************** function _I2C1_Write1ByteRegister *****************
  4195 ;; Defined at:
  4196 ;;		line 99 in file "mcc_generated_files/examples/i2c1_master_example.c"
  4197 ;; Parameters:    Size  Location     Type
  4198 ;;  address         1    wreg     unsigned char 
  4199 ;;  reg             1   24[COMRAM] unsigned char 
  4200 ;;  data            1   25[COMRAM] unsigned char 
  4201 ;; Auto vars:     Size  Location     Type
  4202 ;;  address         1   26[COMRAM] unsigned char 
  4203 ;; Return value:  Size  Location     Type
  4204 ;;                  1    wreg      void 
  4205 ;; Registers used:
  4206 ;;		wreg, fsr2l, fsr2h, status,2, status,0, pcl, pclath, pclatu, tosl, tblptrl, tblptrh, tblptru, prodl, prodh, cstack
  4207 ;; Tracked objects:
  4208 ;;		On entry : 0/0
  4209 ;;		On exit  : 0/0
  4210 ;;		Unchanged: 0/0
  4211 ;; Data sizes:     COMRAM   BANK0   BANK1   BANK2   BANK3   BANK4   BANK5   BANK6   BANK7   BANK8   BANK9  BANK10  BANK1
      +1  BANK12  BANK13  BANK14  BANK15
  4212 ;;      Params:         2       0       0       0       0       0       0       0       0       0       0       0       
      +0       0       0       0       0
  4213 ;;      Locals:         1       0       0       0       0       0       0       0       0       0       0       0       
      +0       0       0       0       0
  4214 ;;      Temps:          0       0       0       0       0       0       0       0       0       0       0       0       
      +0       0       0       0       0
  4215 ;;      Totals:         3       0       0       0       0       0       0       0       0       0       0       0       
      +0       0       0       0       0
  4216 ;;Total ram usage:        3 bytes
  4217 ;; Hardware stack levels used: 1
  4218 ;; Hardware stack levels required when called: 14
  4219 ;; This function calls:
  4220 ;;		_I2C1_Close
  4221 ;;		_I2C1_MasterWrite
  4222 ;;		_I2C1_Open
  4223 ;;		_I2C1_SetAddressNackCallback
  4224 ;;		_I2C1_SetBuffer
  4225 ;;		_I2C1_SetDataCompleteCallback
  4226 ;; This function is called by:
  4227 ;;		_IO_ConfigPorts
  4228 ;;		_IO_SetPin
  4229 ;;		_IO_ResetPin
  4230 ;;		_IO_SetPort
  4231 ;; This function uses a non-reentrant model
  4232 ;;
  4233                           
  4234                           	psect	text23
  4235   000F18                     __ptext23:
  4236                           	callstack 0
  4237   000F18                     _I2C1_Write1ByteRegister:
  4238                           	callstack 14
  4239                           
  4240                           ;incstack = 0
  4241                           ;I2C1_Write1ByteRegister@address stored from wreg
  4242   000F18  6E1B               	movwf	I2C1_Write1ByteRegister@address^0,c
  4243   000F1A                     
  4244                           ;mcc_generated_files/examples/i2c1_master_example.c: 99: void I2C1_Write1ByteRegister(i2
      +                          c1_address_t address, uint8_t reg, uint8_t data);mcc_generated_files/examples/i2c1_maste
      +                          r_example.c: 100: {;mcc_generated_files/examples/i2c1_master_example.c: 101:     (INTCON
      +                          0bits.GIE = 0);
  4245   000F1A  9ED2               	bcf	210,7,c	;volatile
  4246   000F1C                     l4639:
  4247   000F1C  501B               	movf	I2C1_Write1ByteRegister@address^0,w,c
  4248   000F1E  EC67  F005         	call	_I2C1_Open
  4249   000F22  0900               	iorlw	0
  4250   000F24  B4D8               	btfsc	status,2,c
  4251   000F26  EF97  F007         	goto	u2251
  4252   000F2A  EF99  F007         	goto	u2250
  4253   000F2E                     u2251:
  4254   000F2E  EF8E  F007         	goto	l4639
  4255   000F32                     u2250:
  4256   000F32                     
  4257                           ;mcc_generated_files/examples/i2c1_master_example.c: 104:     I2C1_SetDataCompleteCallba
      +                          ck(wr1RegCompleteHandler,&data);
  4258   000F32  0E28               	movlw	low _wr1RegCompleteHandler
  4259   000F34  6E08               	movwf	I2C1_SetDataCompleteCallback@cb^0,c
  4260   000F36  0E16               	movlw	high _wr1RegCompleteHandler
  4261   000F38  6E09               	movwf	(I2C1_SetDataCompleteCallback@cb+1)^0,c
  4262   000F3A  0E1A               	movlw	low I2C1_Write1ByteRegister@data
  4263   000F3C  6E0A               	movwf	I2C1_SetDataCompleteCallback@ptr^0,c
  4264   000F3E  6A0B               	clrf	(I2C1_SetDataCompleteCallback@ptr+1)^0,c
  4265   000F40  EC44  F00C         	call	_I2C1_SetDataCompleteCallback	;wreg free
  4266   000F44                     
  4267                           ;mcc_generated_files/examples/i2c1_master_example.c: 105:     I2C1_SetBuffer(&reg,1);
  4268   000F44  0E19               	movlw	low I2C1_Write1ByteRegister@reg
  4269   000F46  6E03               	movwf	I2C1_SetBuffer@buffer^0,c
  4270   000F48  6A04               	clrf	(I2C1_SetBuffer@buffer+1)^0,c
  4271   000F4A  0E00               	movlw	0
  4272   000F4C  6E06               	movwf	(I2C1_SetBuffer@bufferSize+1)^0,c
  4273   000F4E  0E01               	movlw	1
  4274   000F50  6E05               	movwf	I2C1_SetBuffer@bufferSize^0,c
  4275   000F52  ECA9  F00B         	call	_I2C1_SetBuffer	;wreg free
  4276   000F56                     
  4277                           ;mcc_generated_files/examples/i2c1_master_example.c: 106:     I2C1_SetAddressNackCallbac
      +                          k(((void*)0),((void*)0));
  4278   000F56  0E00               	movlw	0
  4279   000F58  6E08               	movwf	I2C1_SetAddressNackCallback@cb^0,c
  4280   000F5A  0E00               	movlw	0
  4281   000F5C  6E09               	movwf	(I2C1_SetAddressNackCallback@cb+1)^0,c
  4282   000F5E  0E00               	movlw	0
  4283   000F60  6E0A               	movwf	I2C1_SetAddressNackCallback@ptr^0,c
  4284   000F62  0E00               	movlw	0
  4285   000F64  6E0B               	movwf	(I2C1_SetAddressNackCallback@ptr+1)^0,c
  4286   000F66  EC38  F00C         	call	_I2C1_SetAddressNackCallback	;wreg free
  4287   000F6A                     
  4288                           ;mcc_generated_files/examples/i2c1_master_example.c: 107:     I2C1_MasterWrite();
  4289   000F6A  ECFB  F00C         	call	_I2C1_MasterWrite	;wreg free
  4290   000F6E                     l4649:
  4291   000F6E  EC6C  F00B         	call	_I2C1_Close	;wreg free
  4292   000F72  06E8               	decf	wreg,f,c
  4293   000F74  B4D8               	btfsc	status,2,c
  4294   000F76  EFBF  F007         	goto	u2261
  4295   000F7A  EFC1  F007         	goto	u2260
  4296   000F7E                     u2261:
  4297   000F7E  EFB7  F007         	goto	l4649
  4298   000F82                     u2260:
  4299   000F82                     
  4300                           ;mcc_generated_files/examples/i2c1_master_example.c: 110:     (INTCON0bits.GIE = 1);
  4301   000F82  8ED2               	bsf	210,7,c	;volatile
  4302   000F84  0012               	return		;funcret
  4303   000F86                     __end_of_I2C1_Write1ByteRegister:
  4304                           	callstack 0
  4305                           
  4306 ;; *************** function _I2C1_SetAddressNackCallback *****************
  4307 ;; Defined at:
  4308 ;;		line 313 in file "mcc_generated_files/i2c1_master.c"
  4309 ;; Parameters:    Size  Location     Type
  4310 ;;  cb              2    7[COMRAM] PTR FTN(PTR void ,)enum 
  4311 ;;		 -> NULL(1), 
  4312 ;;  ptr             2    9[COMRAM] PTR void 
  4313 ;;		 -> NULL(0), 
  4314 ;; Auto vars:     Size  Location     Type
  4315 ;;		None
  4316 ;; Return value:  Size  Location     Type
  4317 ;;                  1    wreg      void 
  4318 ;; Registers used:
  4319 ;;		wreg, fsr2l, fsr2h, status,2, status,0, prodl, prodh, cstack
  4320 ;; Tracked objects:
  4321 ;;		On entry : 0/0
  4322 ;;		On exit  : 0/0
  4323 ;;		Unchanged: 0/0
  4324 ;; Data sizes:     COMRAM   BANK0   BANK1   BANK2   BANK3   BANK4   BANK5   BANK6   BANK7   BANK8   BANK9  BANK10  BANK1
      +1  BANK12  BANK13  BANK14  BANK15
  4325 ;;      Params:         4       0       0       0       0       0       0       0       0       0       0       0       
      +0       0       0       0       0
  4326 ;;      Locals:         0       0       0       0       0       0       0       0       0       0       0       0       
      +0       0       0       0       0
  4327 ;;      Temps:          0       0       0       0       0       0       0       0       0       0       0       0       
      +0       0       0       0       0
  4328 ;;      Totals:         4       0       0       0       0       0       0       0       0       0       0       0       
      +0       0       0       0       0
  4329 ;;Total ram usage:        4 bytes
  4330 ;; Hardware stack levels used: 1
  4331 ;; Hardware stack levels required when called: 4
  4332 ;; This function calls:
  4333 ;;		_I2C1_SetCallback
  4334 ;; This function is called by:
  4335 ;;		_I2C1_Write1ByteRegister
  4336 ;;		_I2C1_Read1ByteRegister
  4337 ;;		_I2C1_Read2ByteRegister
  4338 ;;		_I2C1_Write2ByteRegister
  4339 ;;		_I2C1_WriteNBytes
  4340 ;;		_I2C1_ReadDataBlock
  4341 ;; This function uses a non-reentrant model
  4342 ;;
  4343                           
  4344                           	psect	text24
  4345   001870                     __ptext24:
  4346                           	callstack 0
  4347   001870                     _I2C1_SetAddressNackCallback:
  4348                           	callstack 23
  4349   001870                     
  4350                           ;mcc_generated_files/i2c1_master.c: 313: void I2C1_SetAddressNackCallback(i2c1_callback_
      +                          t cb, void *ptr);mcc_generated_files/i2c1_master.c: 314: {;mcc_generated_files/i2c1_mast
      +                          er.c: 315:     I2C1_SetCallback(I2C1_ADDR_NACK, cb, ptr);
  4351   001870  C008  F003         	movff	I2C1_SetAddressNackCallback@cb,I2C1_SetCallback@cb
  4352   001874  C009  F004         	movff	I2C1_SetAddressNackCallback@cb+1,I2C1_SetCallback@cb+1
  4353   001878  C00A  F005         	movff	I2C1_SetAddressNackCallback@ptr,I2C1_SetCallback@ptr
  4354   00187C  C00B  F006         	movff	I2C1_SetAddressNackCallback@ptr+1,I2C1_SetCallback@ptr+1
  4355   001880  0E02               	movlw	2
  4356   001882  ECC3  F007         	call	_I2C1_SetCallback
  4357   001886  0012               	return		;funcret
  4358   001888                     __end_of_I2C1_SetAddressNackCallback:
  4359                           	callstack 0
  4360                           
  4361 ;; *************** function _I2C1_Open *****************
  4362 ;; Defined at:
  4363 ;;		line 204 in file "mcc_generated_files/i2c1_master.c"
  4364 ;; Parameters:    Size  Location     Type
  4365 ;;  address         1    wreg     unsigned char 
  4366 ;; Auto vars:     Size  Location     Type
  4367 ;;  address         1    2[COMRAM] unsigned char 
  4368 ;;  returnValue     1    3[COMRAM] enum E358
  4369 ;; Return value:  Size  Location     Type
  4370 ;;                  1    wreg      enum E358
  4371 ;; Registers used:
  4372 ;;		wreg, status,2, status,0, cstack
  4373 ;; Tracked objects:
  4374 ;;		On entry : 0/0
  4375 ;;		On exit  : 0/0
  4376 ;;		Unchanged: 0/0
  4377 ;; Data sizes:     COMRAM   BANK0   BANK1   BANK2   BANK3   BANK4   BANK5   BANK6   BANK7   BANK8   BANK9  BANK10  BANK1
      +1  BANK12  BANK13  BANK14  BANK15
  4378 ;;      Params:         0       0       0       0       0       0       0       0       0       0       0       0       
      +0       0       0       0       0
  4379 ;;      Locals:         2       0       0       0       0       0       0       0       0       0       0       0       
      +0       0       0       0       0
  4380 ;;      Temps:          0       0       0       0       0       0       0       0       0       0       0       0       
      +0       0       0       0       0
  4381 ;;      Totals:         2       0       0       0       0       0       0       0       0       0       0       0       
      +0       0       0       0       0
  4382 ;;Total ram usage:        2 bytes
  4383 ;; Hardware stack levels used: 1
  4384 ;; Hardware stack levels required when called: 4
  4385 ;; This function calls:
  4386 ;;		_I2C1_MasterClearIrq
  4387 ;;		_I2C1_MasterOpen
  4388 ;; This function is called by:
  4389 ;;		_I2C1_Write1ByteRegister
  4390 ;;		_I2C1_Read1ByteRegister
  4391 ;;		_I2C1_Read2ByteRegister
  4392 ;;		_I2C1_Write2ByteRegister
  4393 ;;		_I2C1_WriteNBytes
  4394 ;;		_I2C1_ReadNBytes
  4395 ;;		_I2C1_ReadDataBlock
  4396 ;; This function uses a non-reentrant model
  4397 ;;
  4398                           
  4399                           	psect	text25
  4400   000ACE                     __ptext25:
  4401                           	callstack 0
  4402   000ACE                     _I2C1_Open:
  4403                           	callstack 23
  4404                           
  4405                           ;incstack = 0
  4406                           ;I2C1_Open@address stored from wreg
  4407   000ACE  6E03               	movwf	I2C1_Open@address^0,c
  4408   000AD0                     
  4409                           ;mcc_generated_files/i2c1_master.c: 204: i2c1_error_t I2C1_Open(i2c1_address_t address);
      +                          mcc_generated_files/i2c1_master.c: 205: {;mcc_generated_files/i2c1_master.c: 206:     i2
      +                          c1_error_t returnValue = I2C1_BUSY;
  4410   000AD0  0E01               	movlw	1
  4411   000AD2  6E04               	movwf	I2C1_Open@returnValue^0,c
  4412   000AD4                     
  4413                           ;mcc_generated_files/i2c1_master.c: 208:     if(!I2C1_Status.inUse)
  4414   000AD4  0100               	movlb	0	; () banked
  4415   000AD6  B783               	btfsc	(_I2C1_Status+35)& (0+255),3,b
  4416   000AD8  EF70  F005         	goto	u2221
  4417   000ADC  EF72  F005         	goto	u2220
  4418   000AE0                     u2221:
  4419   000AE0  EFAD  F005         	goto	l4599
  4420   000AE4                     u2220:
  4421   000AE4                     
  4422                           ; BSR set to: 0
  4423                           ;mcc_generated_files/i2c1_master.c: 209:     {;mcc_generated_files/i2c1_master.c: 210:  
      +                                 I2C1_Status.address = address;
  4424   000AE4  C003  F07C         	movff	I2C1_Open@address,_I2C1_Status+28
  4425   000AE8                     
  4426                           ; BSR set to: 0
  4427                           ;mcc_generated_files/i2c1_master.c: 211:         I2C1_Status.busy = 0;
  4428   000AE8  9583               	bcf	(_I2C1_Status+35)& (0+255),2,b
  4429   000AEA                     
  4430                           ; BSR set to: 0
  4431                           ;mcc_generated_files/i2c1_master.c: 212:         I2C1_Status.inUse = 1;
  4432   000AEA  8783               	bsf	(_I2C1_Status+35)& (0+255),3,b
  4433   000AEC                     
  4434                           ; BSR set to: 0
  4435                           ;mcc_generated_files/i2c1_master.c: 213:         I2C1_Status.addressNackCheck = 0;
  4436   000AEC  0EFC               	movlw	-4
  4437   000AEE  1783               	andwf	(_I2C1_Status+35)& (0+255),f,b
  4438   000AF0                     
  4439                           ; BSR set to: 0
  4440                           ;mcc_generated_files/i2c1_master.c: 214:         I2C1_Status.state = I2C1_RESET;
  4441   000AF0  0E0F               	movlw	15
  4442   000AF2  6F81               	movwf	(_I2C1_Status+33)& (0+255),b
  4443   000AF4                     
  4444                           ; BSR set to: 0
  4445                           ;mcc_generated_files/i2c1_master.c: 215:         I2C1_Status.time_out_value = 500;
  4446   000AF4  0E01               	movlw	1
  4447   000AF6  6F7B               	movwf	(_I2C1_Status+27)& (0+255),b
  4448   000AF8  0EF4               	movlw	244
  4449   000AFA  6F7A               	movwf	(_I2C1_Status+26)& (0+255),b
  4450   000AFC                     
  4451                           ; BSR set to: 0
  4452                           ;mcc_generated_files/i2c1_master.c: 216:         I2C1_Status.bufferFree = 1;
  4453   000AFC  8983               	bsf	(_I2C1_Status+35)& (0+255),4,b
  4454   000AFE                     
  4455                           ; BSR set to: 0
  4456                           ;mcc_generated_files/i2c1_master.c: 219:         I2C1_Status.callbackTable[I2C1_DATA_COM
      +                          PLETE]=I2C1_CallbackReturnStop;
  4457   000AFE  0E66               	movlw	low _I2C1_CallbackReturnStop
  4458   000B00  6F60               	movwf	_I2C1_Status& (0+255),b
  4459   000B02  0E1A               	movlw	high _I2C1_CallbackReturnStop
  4460   000B04  6F61               	movwf	(_I2C1_Status+1)& (0+255),b
  4461   000B06                     
  4462                           ; BSR set to: 0
  4463                           ;mcc_generated_files/i2c1_master.c: 220:         I2C1_Status.callbackPayload[I2C1_DATA_C
      +                          OMPLETE] = ((void*)0);
  4464   000B06  0E00               	movlw	0
  4465   000B08  6F6C               	movwf	(_I2C1_Status+12)& (0+255),b
  4466   000B0A  0E00               	movlw	0
  4467   000B0C  6F6D               	movwf	(_I2C1_Status+13)& (0+255),b
  4468   000B0E                     
  4469                           ; BSR set to: 0
  4470                           ;mcc_generated_files/i2c1_master.c: 221:         I2C1_Status.callbackTable[I2C1_WRITE_CO
      +                          LLISION]=I2C1_CallbackReturnStop;
  4471   000B0E  0E66               	movlw	low _I2C1_CallbackReturnStop
  4472   000B10  6F62               	movwf	(_I2C1_Status+2)& (0+255),b
  4473   000B12  0E1A               	movlw	high _I2C1_CallbackReturnStop
  4474   000B14  6F63               	movwf	(_I2C1_Status+3)& (0+255),b
  4475   000B16                     
  4476                           ; BSR set to: 0
  4477                           ;mcc_generated_files/i2c1_master.c: 222:         I2C1_Status.callbackPayload[I2C1_WRITE_
      +                          COLLISION] = ((void*)0);
  4478   000B16  0E00               	movlw	0
  4479   000B18  6F6E               	movwf	(_I2C1_Status+14)& (0+255),b
  4480   000B1A  0E00               	movlw	0
  4481   000B1C  6F6F               	movwf	(_I2C1_Status+15)& (0+255),b
  4482   000B1E                     
  4483                           ; BSR set to: 0
  4484                           ;mcc_generated_files/i2c1_master.c: 223:         I2C1_Status.callbackTable[I2C1_ADDR_NAC
      +                          K]=I2C1_CallbackReturnStop;
  4485   000B1E  0E66               	movlw	low _I2C1_CallbackReturnStop
  4486   000B20  6F64               	movwf	(_I2C1_Status+4)& (0+255),b
  4487   000B22  0E1A               	movlw	high _I2C1_CallbackReturnStop
  4488   000B24  6F65               	movwf	(_I2C1_Status+5)& (0+255),b
  4489   000B26                     
  4490                           ; BSR set to: 0
  4491                           ;mcc_generated_files/i2c1_master.c: 224:         I2C1_Status.callbackPayload[I2C1_ADDR_N
      +                          ACK] = ((void*)0);
  4492   000B26  0E00               	movlw	0
  4493   000B28  6F70               	movwf	(_I2C1_Status+16)& (0+255),b
  4494   000B2A  0E00               	movlw	0
  4495   000B2C  6F71               	movwf	(_I2C1_Status+17)& (0+255),b
  4496   000B2E                     
  4497                           ; BSR set to: 0
  4498                           ;mcc_generated_files/i2c1_master.c: 225:         I2C1_Status.callbackTable[I2C1_DATA_NAC
      +                          K]=I2C1_CallbackReturnStop;
  4499   000B2E  0E66               	movlw	low _I2C1_CallbackReturnStop
  4500   000B30  6F66               	movwf	(_I2C1_Status+6)& (0+255),b
  4501   000B32  0E1A               	movlw	high _I2C1_CallbackReturnStop
  4502   000B34  6F67               	movwf	(_I2C1_Status+7)& (0+255),b
  4503   000B36                     
  4504                           ; BSR set to: 0
  4505                           ;mcc_generated_files/i2c1_master.c: 226:         I2C1_Status.callbackPayload[I2C1_DATA_N
      +                          ACK] = ((void*)0);
  4506   000B36  0E00               	movlw	0
  4507   000B38  6F72               	movwf	(_I2C1_Status+18)& (0+255),b
  4508   000B3A  0E00               	movlw	0
  4509   000B3C  6F73               	movwf	(_I2C1_Status+19)& (0+255),b
  4510   000B3E                     
  4511                           ; BSR set to: 0
  4512                           ;mcc_generated_files/i2c1_master.c: 227:         I2C1_Status.callbackTable[I2C1_TIMEOUT]
      +                          =I2C1_CallbackReturnReset;
  4513   000B3E  0E62               	movlw	low _I2C1_CallbackReturnReset
  4514   000B40  6F68               	movwf	(_I2C1_Status+8)& (0+255),b
  4515   000B42  0E1A               	movlw	high _I2C1_CallbackReturnReset
  4516   000B44  6F69               	movwf	(_I2C1_Status+9)& (0+255),b
  4517   000B46                     
  4518                           ; BSR set to: 0
  4519                           ;mcc_generated_files/i2c1_master.c: 228:         I2C1_Status.callbackPayload[I2C1_TIMEOU
      +                          T] = ((void*)0);
  4520   000B46  0E00               	movlw	0
  4521   000B48  6F74               	movwf	(_I2C1_Status+20)& (0+255),b
  4522   000B4A  0E00               	movlw	0
  4523   000B4C  6F75               	movwf	(_I2C1_Status+21)& (0+255),b
  4524   000B4E                     
  4525                           ; BSR set to: 0
  4526                           ;mcc_generated_files/i2c1_master.c: 230:         I2C1_MasterClearIrq();
  4527   000B4E  EC0B  F00D         	call	_I2C1_MasterClearIrq	;wreg free
  4528   000B52                     
  4529                           ;mcc_generated_files/i2c1_master.c: 231:         I2C1_MasterOpen();
  4530   000B52  ECCD  F00B         	call	_I2C1_MasterOpen	;wreg free
  4531   000B56                     
  4532                           ;mcc_generated_files/i2c1_master.c: 232:         returnValue = I2C1_NOERR;
  4533   000B56  0E00               	movlw	0
  4534   000B58  6E04               	movwf	I2C1_Open@returnValue^0,c
  4535   000B5A                     l4599:
  4536                           
  4537                           ;mcc_generated_files/i2c1_master.c: 234:     return returnValue;
  4538   000B5A  5004               	movf	I2C1_Open@returnValue^0,w,c
  4539   000B5C  0012               	return		;funcret
  4540   000B5E                     __end_of_I2C1_Open:
  4541                           	callstack 0
  4542                           
  4543 ;; *************** function _I2C1_MasterOpen *****************
  4544 ;; Defined at:
  4545 ;;		line 632 in file "mcc_generated_files/i2c1_master.c"
  4546 ;; Parameters:    Size  Location     Type
  4547 ;;		None
  4548 ;; Auto vars:     Size  Location     Type
  4549 ;;		None
  4550 ;; Return value:  Size  Location     Type
  4551 ;;                  1    wreg      _Bool 
  4552 ;; Registers used:
  4553 ;;		wreg, status,2
  4554 ;; Tracked objects:
  4555 ;;		On entry : 0/0
  4556 ;;		On exit  : 0/0
  4557 ;;		Unchanged: 0/0
  4558 ;; Data sizes:     COMRAM   BANK0   BANK1   BANK2   BANK3   BANK4   BANK5   BANK6   BANK7   BANK8   BANK9  BANK10  BANK1
      +1  BANK12  BANK13  BANK14  BANK15
  4559 ;;      Params:         0       0       0       0       0       0       0       0       0       0       0       0       
      +0       0       0       0       0
  4560 ;;      Locals:         0       0       0       0       0       0       0       0       0       0       0       0       
      +0       0       0       0       0
  4561 ;;      Temps:          0       0       0       0       0       0       0       0       0       0       0       0       
      +0       0       0       0       0
  4562 ;;      Totals:         0       0       0       0       0       0       0       0       0       0       0       0       
      +0       0       0       0       0
  4563 ;;Total ram usage:        0 bytes
  4564 ;; Hardware stack levels used: 1
  4565 ;; Hardware stack levels required when called: 3
  4566 ;; This function calls:
  4567 ;;		Nothing
  4568 ;; This function is called by:
  4569 ;;		_I2C1_Open
  4570 ;; This function uses a non-reentrant model
  4571 ;;
  4572                           
  4573                           	psect	text26
  4574   00179A                     __ptext26:
  4575                           	callstack 0
  4576   00179A                     _I2C1_MasterOpen:
  4577                           	callstack 23
  4578   00179A                     
  4579                           ;mcc_generated_files/i2c1_master.c: 634:     if(!I2C1CON0bits.EN)
  4580   00179A  013D               	movlb	61	; () banked
  4581   00179C  BF73               	btfsc	115,7,b	;volatile
  4582   00179E  EFD3  F00B         	goto	u2091
  4583   0017A2  EFD5  F00B         	goto	u2090
  4584   0017A6                     u2091:
  4585   0017A6  EFDD  F00B         	goto	l974
  4586   0017AA                     u2090:
  4587   0017AA                     
  4588                           ; BSR set to: 61
  4589                           ;mcc_generated_files/i2c1_master.c: 635:     {;mcc_generated_files/i2c1_master.c: 637:  
      +                                 I2C1PIR = 0x00;
  4590   0017AA  0E00               	movlw	0
  4591   0017AC  6F79               	movwf	121,b	;volatile
  4592                           
  4593                           ;mcc_generated_files/i2c1_master.c: 639:         I2C1PIE = 0x00;
  4594   0017AE  0E00               	movlw	0
  4595   0017B0  6F7A               	movwf	122,b	;volatile
  4596                           
  4597                           ;mcc_generated_files/i2c1_master.c: 641:         I2C1ERR = 0x00;
  4598   0017B2  0E00               	movlw	0
  4599   0017B4  6F76               	movwf	118,b	;volatile
  4600   0017B6                     
  4601                           ; BSR set to: 61
  4602                           ;mcc_generated_files/i2c1_master.c: 643:         I2C1CNT = 0xFF;
  4603   0017B6  696C               	setf	108,b	;volatile
  4604   0017B8                     
  4605                           ; BSR set to: 61
  4606                           ;mcc_generated_files/i2c1_master.c: 645:         I2C1CON0bits.EN = 1;
  4607   0017B8  8F73               	bsf	115,7,b	;volatile
  4608   0017BA                     l974:
  4609                           
  4610                           ; BSR set to: 61
  4611   0017BA  0012               	return		;funcret
  4612   0017BC                     __end_of_I2C1_MasterOpen:
  4613                           	callstack 0
  4614                           
  4615 ;; *************** function _I2C1_MasterWrite *****************
  4616 ;; Defined at:
  4617 ;;		line 281 in file "mcc_generated_files/i2c1_master.c"
  4618 ;; Parameters:    Size  Location     Type
  4619 ;;		None
  4620 ;; Auto vars:     Size  Location     Type
  4621 ;;		None
  4622 ;; Return value:  Size  Location     Type
  4623 ;;                  1    wreg      enum E358
  4624 ;; Registers used:
  4625 ;;		wreg, fsr2l, fsr2h, status,2, status,0, pcl, pclath, pclatu, tosl, tblptrl, tblptrh, tblptru, prodl, prodh, cstack
  4626 ;; Tracked objects:
  4627 ;;		On entry : 0/0
  4628 ;;		On exit  : 0/0
  4629 ;;		Unchanged: 0/0
  4630 ;; Data sizes:     COMRAM   BANK0   BANK1   BANK2   BANK3   BANK4   BANK5   BANK6   BANK7   BANK8   BANK9  BANK10  BANK1
      +1  BANK12  BANK13  BANK14  BANK15
  4631 ;;      Params:         0       0       0       0       0       0       0       0       0       0       0       0       
      +0       0       0       0       0
  4632 ;;      Locals:         0       0       0       0       0       0       0       0       0       0       0       0       
      +0       0       0       0       0
  4633 ;;      Temps:          0       0       0       0       0       0       0       0       0       0       0       0       
      +0       0       0       0       0
  4634 ;;      Totals:         0       0       0       0       0       0       0       0       0       0       0       0       
      +0       0       0       0       0
  4635 ;;Total ram usage:        0 bytes
  4636 ;; Hardware stack levels used: 1
  4637 ;; Hardware stack levels required when called: 13
  4638 ;; This function calls:
  4639 ;;		_I2C1_MasterOperation
  4640 ;; This function is called by:
  4641 ;;		_I2C1_Write1ByteRegister
  4642 ;;		_I2C1_Read1ByteRegister
  4643 ;;		_I2C1_Read2ByteRegister
  4644 ;;		_I2C1_Write2ByteRegister
  4645 ;;		_I2C1_WriteNBytes
  4646 ;;		_I2C1_ReadDataBlock
  4647 ;; This function uses a non-reentrant model
  4648 ;;
  4649                           
  4650                           	psect	text27
  4651   0019F6                     __ptext27:
  4652                           	callstack 0
  4653   0019F6                     _I2C1_MasterWrite:
  4654                           	callstack 14
  4655   0019F6                     
  4656                           ;mcc_generated_files/i2c1_master.c: 283:     return I2C1_MasterOperation(0);;	Return val
      +                          ue of _I2C1_MasterWrite is never used
  4657   0019F6  0E00               	movlw	0
  4658   0019F8  EC7B  F009         	call	_I2C1_MasterOperation
  4659   0019FC  0012               	return		;funcret
  4660   0019FE                     __end_of_I2C1_MasterWrite:
  4661                           	callstack 0
  4662                           
  4663 ;; *************** function _I2C1_MasterOperation *****************
  4664 ;; Defined at:
  4665 ;;		line 252 in file "mcc_generated_files/i2c1_master.c"
  4666 ;; Parameters:    Size  Location     Type
  4667 ;;  read            1    wreg     _Bool 
  4668 ;; Auto vars:     Size  Location     Type
  4669 ;;  read            1   22[COMRAM] _Bool 
  4670 ;;  returnValue     1   23[COMRAM] enum E358
  4671 ;; Return value:  Size  Location     Type
  4672 ;;                  1    wreg      enum E358
  4673 ;; Registers used:
  4674 ;;		wreg, fsr2l, fsr2h, status,2, status,0, pcl, pclath, pclatu, tosl, tblptrl, tblptrh, tblptru, prodl, prodh, cstack
  4675 ;; Tracked objects:
  4676 ;;		On entry : 0/0
  4677 ;;		On exit  : 0/0
  4678 ;;		Unchanged: 0/0
  4679 ;; Data sizes:     COMRAM   BANK0   BANK1   BANK2   BANK3   BANK4   BANK5   BANK6   BANK7   BANK8   BANK9  BANK10  BANK1
      +1  BANK12  BANK13  BANK14  BANK15
  4680 ;;      Params:         0       0       0       0       0       0       0       0       0       0       0       0       
      +0       0       0       0       0
  4681 ;;      Locals:         2       0       0       0       0       0       0       0       0       0       0       0       
      +0       0       0       0       0
  4682 ;;      Temps:          0       0       0       0       0       0       0       0       0       0       0       0       
      +0       0       0       0       0
  4683 ;;      Totals:         2       0       0       0       0       0       0       0       0       0       0       0       
      +0       0       0       0       0
  4684 ;;Total ram usage:        2 bytes
  4685 ;; Hardware stack levels used: 1
  4686 ;; Hardware stack levels required when called: 12
  4687 ;; This function calls:
  4688 ;;		_I2C1_DO_SEND_ADR_READ
  4689 ;;		_I2C1_DO_SEND_ADR_WRITE
  4690 ;;		_I2C1_MasterSetCounter
  4691 ;;		_I2C1_Poller
  4692 ;; This function is called by:
  4693 ;;		_I2C1_MasterWrite
  4694 ;;		_I2C1_MasterRead
  4695 ;; This function uses a non-reentrant model
  4696 ;;
  4697                           
  4698                           	psect	text28
  4699   0012F6                     __ptext28:
  4700                           	callstack 0
  4701   0012F6                     _I2C1_MasterOperation:
  4702                           	callstack 14
  4703                           
  4704                           ;incstack = 0
  4705                           ;I2C1_MasterOperation@read stored from wreg
  4706   0012F6  6E17               	movwf	I2C1_MasterOperation@read^0,c
  4707   0012F8                     
  4708                           ;mcc_generated_files/i2c1_master.c: 252: i2c1_error_t I2C1_MasterOperation(_Bool read);m
      +                          cc_generated_files/i2c1_master.c: 253: {;mcc_generated_files/i2c1_master.c: 254:     i2c
      +                          1_error_t returnValue = I2C1_BUSY;
  4709   0012F8  0E01               	movlw	1
  4710   0012FA  6E18               	movwf	I2C1_MasterOperation@returnValue^0,c
  4711   0012FC                     
  4712                           ;mcc_generated_files/i2c1_master.c: 255:     if(!I2C1_Status.busy)
  4713   0012FC  0100               	movlb	0	; () banked
  4714   0012FE  B583               	btfsc	(_I2C1_Status+35)& (0+255),2,b
  4715   001300  EF84  F009         	goto	u2101
  4716   001304  EF86  F009         	goto	u2100
  4717   001308                     u2101:
  4718   001308  EFA2  F009         	goto	l4501
  4719   00130C                     u2100:
  4720   00130C                     
  4721                           ; BSR set to: 0
  4722                           ;mcc_generated_files/i2c1_master.c: 256:     {;mcc_generated_files/i2c1_master.c: 257:  
      +                                 I2C1_Status.busy = 1;
  4723   00130C  8583               	bsf	(_I2C1_Status+35)& (0+255),2,b
  4724   00130E                     
  4725                           ; BSR set to: 0
  4726                           ;mcc_generated_files/i2c1_master.c: 258:         returnValue = I2C1_NOERR;
  4727   00130E  0E00               	movlw	0
  4728   001310  6E18               	movwf	I2C1_MasterOperation@returnValue^0,c
  4729   001312                     
  4730                           ; BSR set to: 0
  4731                           ;mcc_generated_files/i2c1_master.c: 259:         I2C1_MasterSetCounter((uint8_t) I2C1_St
      +                          atus.data_length);
  4732   001312  517F               	movf	(_I2C1_Status+31)& (0+255),w,b
  4733   001314  ECDD  F00C         	call	_I2C1_MasterSetCounter
  4734   001318                     
  4735                           ;mcc_generated_files/i2c1_master.c: 261:         if(read)
  4736   001318  5017               	movf	I2C1_MasterOperation@read^0,w,c
  4737   00131A  B4D8               	btfsc	status,2,c
  4738   00131C  EF92  F009         	goto	u2111
  4739   001320  EF94  F009         	goto	u2110
  4740   001324                     u2111:
  4741   001324  EF9B  F009         	goto	l4495
  4742   001328                     u2110:
  4743   001328                     
  4744                           ;mcc_generated_files/i2c1_master.c: 262:         {;mcc_generated_files/i2c1_master.c: 26
      +                          3:             I2C1_Status.state = I2C1_RX;
  4745   001328  0E04               	movlw	4
  4746   00132A  0100               	movlb	0	; () banked
  4747   00132C  6F81               	movwf	(_I2C1_Status+33)& (0+255),b
  4748   00132E                     
  4749                           ; BSR set to: 0
  4750                           ;mcc_generated_files/i2c1_master.c: 264:             I2C1_DO_SEND_ADR_READ();
  4751   00132E  ECFD  F00A         	call	_I2C1_DO_SEND_ADR_READ	;wreg free
  4752                           
  4753                           ;mcc_generated_files/i2c1_master.c: 265:         }
  4754   001332  EFA0  F009         	goto	l4499
  4755   001336                     l4495:
  4756                           
  4757                           ;mcc_generated_files/i2c1_master.c: 267:         {;mcc_generated_files/i2c1_master.c: 26
      +                          8:             I2C1_Status.state = I2C1_TX;
  4758   001336  0E03               	movlw	3
  4759   001338  0100               	movlb	0	; () banked
  4760   00133A  6F81               	movwf	(_I2C1_Status+33)& (0+255),b
  4761   00133C                     
  4762                           ; BSR set to: 0
  4763                           ;mcc_generated_files/i2c1_master.c: 269:             I2C1_DO_SEND_ADR_WRITE();
  4764   00133C  EC5C  F00C         	call	_I2C1_DO_SEND_ADR_WRITE	;wreg free
  4765   001340                     l4499:
  4766                           
  4767                           ;mcc_generated_files/i2c1_master.c: 271:         I2C1_Poller();
  4768   001340  ECFE  F00B         	call	_I2C1_Poller	;wreg free
  4769   001344                     l4501:
  4770                           
  4771                           ;mcc_generated_files/i2c1_master.c: 273:     return returnValue;
  4772   001344  5018               	movf	I2C1_MasterOperation@returnValue^0,w,c
  4773   001346  0012               	return		;funcret
  4774   001348                     __end_of_I2C1_MasterOperation:
  4775                           	callstack 0
  4776                           
  4777 ;; *************** function _I2C1_Poller *****************
  4778 ;; Defined at:
  4779 ;;		line 342 in file "mcc_generated_files/i2c1_master.c"
  4780 ;; Parameters:    Size  Location     Type
  4781 ;;		None
  4782 ;; Auto vars:     Size  Location     Type
  4783 ;;		None
  4784 ;; Return value:  Size  Location     Type
  4785 ;;                  1    wreg      void 
  4786 ;; Registers used:
  4787 ;;		wreg, fsr2l, fsr2h, status,2, status,0, pcl, pclath, pclatu, tosl, tblptrl, tblptrh, tblptru, prodl, prodh, cstack
  4788 ;; Tracked objects:
  4789 ;;		On entry : 0/0
  4790 ;;		On exit  : 0/0
  4791 ;;		Unchanged: 0/0
  4792 ;; Data sizes:     COMRAM   BANK0   BANK1   BANK2   BANK3   BANK4   BANK5   BANK6   BANK7   BANK8   BANK9  BANK10  BANK1
      +1  BANK12  BANK13  BANK14  BANK15
  4793 ;;      Params:         0       0       0       0       0       0       0       0       0       0       0       0       
      +0       0       0       0       0
  4794 ;;      Locals:         0       0       0       0       0       0       0       0       0       0       0       0       
      +0       0       0       0       0
  4795 ;;      Temps:          0       0       0       0       0       0       0       0       0       0       0       0       
      +0       0       0       0       0
  4796 ;;      Totals:         0       0       0       0       0       0       0       0       0       0       0       0       
      +0       0       0       0       0
  4797 ;;Total ram usage:        0 bytes
  4798 ;; Hardware stack levels used: 1
  4799 ;; Hardware stack levels required when called: 11
  4800 ;; This function calls:
  4801 ;;		_I2C1_MasterFsm
  4802 ;;		_I2C1_MasterWaitForEvent
  4803 ;; This function is called by:
  4804 ;;		_I2C1_MasterOperation
  4805 ;; This function uses a non-reentrant model
  4806 ;;
  4807                           
  4808                           	psect	text29
  4809   0017FC                     __ptext29:
  4810                           	callstack 0
  4811   0017FC                     _I2C1_Poller:
  4812                           	callstack 14
  4813   0017FC                     
  4814                           ;mcc_generated_files/i2c1_master.c: 344:     while(I2C1_Status.busy)
  4815   0017FC  EF04  F00C         	goto	l4361
  4816   001800                     l4357:
  4817                           
  4818                           ; BSR set to: 0
  4819                           ;mcc_generated_files/i2c1_master.c: 345:     {;mcc_generated_files/i2c1_master.c: 346:  
      +                                 I2C1_MasterWaitForEvent();
  4820   001800  ECC9  F008         	call	_I2C1_MasterWaitForEvent	;wreg free
  4821   001804                     
  4822                           ;mcc_generated_files/i2c1_master.c: 347:         I2C1_MasterFsm();
  4823   001804  EC6C  F006         	call	_I2C1_MasterFsm	;wreg free
  4824   001808                     l4361:
  4825                           
  4826                           ;mcc_generated_files/i2c1_master.c: 344:     while(I2C1_Status.busy)
  4827   001808  0100               	movlb	0	; () banked
  4828   00180A  B583               	btfsc	(_I2C1_Status+35)& (0+255),2,b
  4829   00180C  EF0A  F00C         	goto	u1911
  4830   001810  EF0C  F00C         	goto	u1910
  4831   001814                     u1911:
  4832   001814  EF00  F00C         	goto	l4357
  4833   001818                     u1910:
  4834   001818                     
  4835                           ; BSR set to: 0
  4836   001818  0012               	return		;funcret
  4837   00181A                     __end_of_I2C1_Poller:
  4838                           	callstack 0
  4839                           
  4840 ;; *************** function _I2C1_MasterWaitForEvent *****************
  4841 ;; Defined at:
  4842 ;;		line 809 in file "mcc_generated_files/i2c1_master.c"
  4843 ;; Parameters:    Size  Location     Type
  4844 ;;		None
  4845 ;; Auto vars:     Size  Location     Type
  4846 ;;		None
  4847 ;; Return value:  Size  Location     Type
  4848 ;;                  1    wreg      void 
  4849 ;; Registers used:
  4850 ;;		None
  4851 ;; Tracked objects:
  4852 ;;		On entry : 0/0
  4853 ;;		On exit  : 0/0
  4854 ;;		Unchanged: 0/0
  4855 ;; Data sizes:     COMRAM   BANK0   BANK1   BANK2   BANK3   BANK4   BANK5   BANK6   BANK7   BANK8   BANK9  BANK10  BANK1
      +1  BANK12  BANK13  BANK14  BANK15
  4856 ;;      Params:         0       0       0       0       0       0       0       0       0       0       0       0       
      +0       0       0       0       0
  4857 ;;      Locals:         0       0       0       0       0       0       0       0       0       0       0       0       
      +0       0       0       0       0
  4858 ;;      Temps:          0       0       0       0       0       0       0       0       0       0       0       0       
      +0       0       0       0       0
  4859 ;;      Totals:         0       0       0       0       0       0       0       0       0       0       0       0       
      +0       0       0       0       0
  4860 ;;Total ram usage:        0 bytes
  4861 ;; Hardware stack levels used: 1
  4862 ;; Hardware stack levels required when called: 3
  4863 ;; This function calls:
  4864 ;;		Nothing
  4865 ;; This function is called by:
  4866 ;;		_I2C1_Poller
  4867 ;; This function uses a non-reentrant model
  4868 ;;
  4869                           
  4870                           	psect	text30
  4871   001192                     __ptext30:
  4872                           	callstack 0
  4873   001192                     _I2C1_MasterWaitForEvent:
  4874                           	callstack 21
  4875   001192                     l1054:
  4876                           
  4877                           ;mcc_generated_files/i2c1_master.c: 812:     {;mcc_generated_files/i2c1_master.c: 813:  
      +                                 if(PIR3bits.I2C1TXIF)
  4878   001192  0139               	movlb	57	; () banked
  4879   001194  A1A3               	btfss	163,0,b	;volatile
  4880   001196  EFCF  F008         	goto	u1831
  4881   00119A  EFD1  F008         	goto	u1830
  4882   00119E                     u1831:
  4883   00119E  EFD3  F008         	goto	l1055
  4884   0011A2                     u1830:
  4885   0011A2  EFF6  F008         	goto	l1062
  4886   0011A6                     l1055:
  4887                           
  4888                           ; BSR set to: 57
  4889                           ;mcc_generated_files/i2c1_master.c: 817:         if(PIR2bits.I2C1RXIF)
  4890   0011A6  AFA2               	btfss	162,7,b	;volatile
  4891   0011A8  EFD8  F008         	goto	u1841
  4892   0011AC  EFDA  F008         	goto	u1840
  4893   0011B0                     u1841:
  4894   0011B0  EFDC  F008         	goto	l1057
  4895   0011B4                     u1840:
  4896   0011B4  EFF6  F008         	goto	l1062
  4897   0011B8                     l1057:
  4898                           
  4899                           ; BSR set to: 57
  4900                           ;mcc_generated_files/i2c1_master.c: 821:         if(I2C1PIRbits.PCIF)
  4901   0011B8  013D               	movlb	61	; () banked
  4902   0011BA  A579               	btfss	121,2,b	;volatile
  4903   0011BC  EFE2  F008         	goto	u1851
  4904   0011C0  EFE4  F008         	goto	u1850
  4905   0011C4                     u1851:
  4906   0011C4  EFE6  F008         	goto	l1058
  4907   0011C8                     u1850:
  4908   0011C8  EFF6  F008         	goto	l1062
  4909   0011CC                     l1058:
  4910                           
  4911                           ; BSR set to: 61
  4912                           ;mcc_generated_files/i2c1_master.c: 825:         if(I2C1PIRbits.CNTIF)
  4913   0011CC  AF79               	btfss	121,7,b	;volatile
  4914   0011CE  EFEB  F008         	goto	u1861
  4915   0011D2  EFED  F008         	goto	u1860
  4916   0011D6                     u1861:
  4917   0011D6  EFEF  F008         	goto	l1059
  4918   0011DA                     u1860:
  4919   0011DA  EFF6  F008         	goto	l1062
  4920   0011DE                     l1059:
  4921                           
  4922                           ; BSR set to: 61
  4923                           ;mcc_generated_files/i2c1_master.c: 829:         if(I2C1ERRbits.NACKIF)
  4924   0011DE  A976               	btfss	118,4,b	;volatile
  4925   0011E0  EFF4  F008         	goto	u1871
  4926   0011E4  EFF6  F008         	goto	u1870
  4927   0011E8                     u1871:
  4928   0011E8  EFC9  F008         	goto	l1054
  4929   0011EC                     u1870:
  4930   0011EC                     l1062:
  4931   0011EC  0012               	return		;funcret
  4932   0011EE                     __end_of_I2C1_MasterWaitForEvent:
  4933                           	callstack 0
  4934                           
  4935 ;; *************** function _I2C1_MasterFsm *****************
  4936 ;; Defined at:
  4937 ;;		line 351 in file "mcc_generated_files/i2c1_master.c"
  4938 ;; Parameters:    Size  Location     Type
  4939 ;;		None
  4940 ;; Auto vars:     Size  Location     Type
  4941 ;;		None
  4942 ;; Return value:  Size  Location     Type
  4943 ;;                  1    wreg      void 
  4944 ;; Registers used:
  4945 ;;		wreg, fsr2l, fsr2h, status,2, status,0, pcl, pclath, pclatu, tosl, tblptrl, tblptrh, tblptru, prodl, prodh, cstack
  4946 ;; Tracked objects:
  4947 ;;		On entry : 0/0
  4948 ;;		On exit  : 0/0
  4949 ;;		Unchanged: 0/0
  4950 ;; Data sizes:     COMRAM   BANK0   BANK1   BANK2   BANK3   BANK4   BANK5   BANK6   BANK7   BANK8   BANK9  BANK10  BANK1
      +1  BANK12  BANK13  BANK14  BANK15
  4951 ;;      Params:         0       0       0       0       0       0       0       0       0       0       0       0       
      +0       0       0       0       0
  4952 ;;      Locals:         0       0       0       0       0       0       0       0       0       0       0       0       
      +0       0       0       0       0
  4953 ;;      Temps:          2       0       0       0       0       0       0       0       0       0       0       0       
      +0       0       0       0       0
  4954 ;;      Totals:         2       0       0       0       0       0       0       0       0       0       0       0       
      +0       0       0       0       0
  4955 ;;Total ram usage:        2 bytes
  4956 ;; Hardware stack levels used: 1
  4957 ;; Hardware stack levels required when called: 10
  4958 ;; This function calls:
  4959 ;;		_I2C1_ClearInterruptFlags
  4960 ;;		_I2C1_DO_ADDRESS_NACK
  4961 ;;		_I2C1_DO_BUS_COLLISION
  4962 ;;		_I2C1_DO_BUS_ERROR
  4963 ;;		_I2C1_DO_IDLE
  4964 ;;		_I2C1_DO_RESET
  4965 ;;		_I2C1_DO_RX
  4966 ;;		_I2C1_DO_RX_ACK
  4967 ;;		_I2C1_DO_RX_EMPTY
  4968 ;;		_I2C1_DO_RX_NACK_RESTART
  4969 ;;		_I2C1_DO_RX_NACK_STOP
  4970 ;;		_I2C1_DO_SEND_ADR_READ
  4971 ;;		_I2C1_DO_SEND_ADR_WRITE
  4972 ;;		_I2C1_DO_SEND_RESTART
  4973 ;;		_I2C1_DO_SEND_RESTART_READ
  4974 ;;		_I2C1_DO_SEND_RESTART_WRITE
  4975 ;;		_I2C1_DO_SEND_STOP
  4976 ;;		_I2C1_DO_TX
  4977 ;;		_I2C1_DO_TX_ACK
  4978 ;;		_I2C1_DO_TX_EMPTY
  4979 ;;		_I2C1_MasterIsNack
  4980 ;; This function is called by:
  4981 ;;		_I2C1_Poller
  4982 ;; This function uses a non-reentrant model
  4983 ;;
  4984                           
  4985                           	psect	text31
  4986   000CD8                     __ptext31:
  4987                           	callstack 0
  4988   000CD8                     _I2C1_MasterFsm:
  4989                           	callstack 14
  4990   000CD8                     
  4991                           ;mcc_generated_files/i2c1_master.c: 353:     I2C1_ClearInterruptFlags();
  4992   000CD8  ECA4  F009         	call	_I2C1_ClearInterruptFlags	;wreg free
  4993   000CDC                     
  4994                           ;mcc_generated_files/i2c1_master.c: 355:     if(I2C1_Status.addressNackCheck && I2C1_Mas
      +                          terIsNack())
  4995   000CDC  0100               	movlb	0	; () banked
  4996   000CDE  5183               	movf	(_I2C1_Status+35)& (0+255),w,b
  4997   000CE0  0B03               	andlw	3
  4998   000CE2  0900               	iorlw	0
  4999   000CE4  B4D8               	btfsc	status,2,c
  5000   000CE6  EF77  F006         	goto	u1881
  5001   000CEA  EF79  F006         	goto	u1880
  5002   000CEE                     u1881:
  5003   000CEE  EF86  F006         	goto	l4353
  5004   000CF2                     u1880:
  5005   000CF2                     
  5006                           ; BSR set to: 0
  5007   000CF2  EC72  F00C         	call	_I2C1_MasterIsNack	;wreg free
  5008   000CF6  0900               	iorlw	0
  5009   000CF8  B4D8               	btfsc	status,2,c
  5010   000CFA  EF81  F006         	goto	u1891
  5011   000CFE  EF83  F006         	goto	u1890
  5012   000D02                     u1891:
  5013   000D02  EF86  F006         	goto	l4353
  5014   000D06                     u1890:
  5015   000D06                     
  5016                           ;mcc_generated_files/i2c1_master.c: 356:     {;mcc_generated_files/i2c1_master.c: 357:  
      +                                 I2C1_Status.state = I2C1_ADDRESS_NACK;
  5017   000D06  0E10               	movlw	16
  5018   000D08  0100               	movlb	0	; () banked
  5019   000D0A  6F81               	movwf	(_I2C1_Status+33)& (0+255),b
  5020   000D0C                     l4353:
  5021                           
  5022                           ;mcc_generated_files/i2c1_master.c: 359:     I2C1_Status.state = i2c1_fsmStateTable[I2C1
      +                          _Status.state]();
  5023   000D0C  0100               	movlb	0	; () banked
  5024   000D0E  5181               	movf	(_I2C1_Status+33)& (0+255),w,b
  5025   000D10  0D02               	mullw	2
  5026   000D12  0EA5               	movlw	low _i2c1_fsmStateTable
  5027   000D14  24F3               	addwf	243,w,c
  5028   000D16  6EF6               	movwf	tblptrl,c
  5029   000D18  0EFD               	movlw	high _i2c1_fsmStateTable
  5030   000D1A  20F4               	addwfc	244,w,c
  5031   000D1C  6EF7               	movwf	tblptrh,c
  5032   000D1E                     	if	1	;There are 3 active tblptr bytes
  5033   000D1E  6AF8               	clrf	tblptru,c
  5034   000D20  0E00               	movlw	low (__mediumconst shr (0+16))
  5035   000D22  22F8               	addwfc	tblptru,f,c
  5036   000D24                     	endif
  5037   000D24  0009               	tblrd		*+
  5038   000D26  006F FFD4  F015    	movff	tablat,??_I2C1_MasterFsm
  5039   000D2C  0009               	tblrd		*+
  5040   000D2E  006F FFD4  F016    	movff	tablat,??_I2C1_MasterFsm+1
  5041   000D34  D802               	call	u1908
  5042   000D36  EFA6  F006         	goto	u1909
  5043   000D3A                     u1908:
  5044   000D3A  0005               	push	
  5045   000D3C  6EFA               	movwf	pclath,c
  5046   000D3E  5015               	movf	??_I2C1_MasterFsm^0,w,c
  5047   000D40  6EFD               	movwf	tosl,c
  5048   000D42  5016               	movf	(??_I2C1_MasterFsm+1)^0,w,c
  5049   000D44  6EFE               	movwf	tosh,c
  5050   000D46  6AFF               	clrf	tosu,c
  5051   000D48  50FA               	movf	pclath,w,c
  5052   000D4A  0012               	return		;indir
  5053   000D4C                     u1909:
  5054   000D4C  0100               	movlb	0	; () banked
  5055   000D4E  6F81               	movwf	(_I2C1_Status+33)& (0+255),b
  5056   000D50                     
  5057                           ; BSR set to: 0
  5058   000D50  0012               	return		;funcret
  5059   000D52                     __end_of_I2C1_MasterFsm:
  5060                           	callstack 0
  5061                           
  5062 ;; *************** function _I2C1_DO_BUS_ERROR *****************
  5063 ;; Defined at:
  5064 ;;		line 595 in file "mcc_generated_files/i2c1_master.c"
  5065 ;; Parameters:    Size  Location     Type
  5066 ;;		None
  5067 ;; Auto vars:     Size  Location     Type
  5068 ;;		None
  5069 ;; Return value:  Size  Location     Type
  5070 ;;                  1    wreg      enum E22977
  5071 ;; Registers used:
  5072 ;;		wreg, status,2, cstack
  5073 ;; Tracked objects:
  5074 ;;		On entry : 0/0
  5075 ;;		On exit  : 0/0
  5076 ;;		Unchanged: 0/0
  5077 ;; Data sizes:     COMRAM   BANK0   BANK1   BANK2   BANK3   BANK4   BANK5   BANK6   BANK7   BANK8   BANK9  BANK10  BANK1
      +1  BANK12  BANK13  BANK14  BANK15
  5078 ;;      Params:         0       0       0       0       0       0       0       0       0       0       0       0       
      +0       0       0       0       0
  5079 ;;      Locals:         0       0       0       0       0       0       0       0       0       0       0       0       
      +0       0       0       0       0
  5080 ;;      Temps:          0       0       0       0       0       0       0       0       0       0       0       0       
      +0       0       0       0       0
  5081 ;;      Totals:         0       0       0       0       0       0       0       0       0       0       0       0       
      +0       0       0       0       0
  5082 ;;Total ram usage:        0 bytes
  5083 ;; Hardware stack levels used: 1
  5084 ;; Hardware stack levels required when called: 4
  5085 ;; This function calls:
  5086 ;;		_I2C1_MasterResetBus
  5087 ;; This function is called by:
  5088 ;;		_I2C1_MasterFsm
  5089 ;; This function uses a non-reentrant model
  5090 ;;
  5091                           
  5092                           	psect	text32
  5093   001952                     __ptext32:
  5094                           	callstack 0
  5095   001952                     _I2C1_DO_BUS_ERROR:
  5096                           	callstack 19
  5097   001952                     
  5098                           ;mcc_generated_files/i2c1_master.c: 597:     I2C1_MasterResetBus();
  5099   001952  ECE2  F00C         	call	_I2C1_MasterResetBus	;wreg free
  5100   001956                     
  5101                           ;mcc_generated_files/i2c1_master.c: 598:     I2C1_Status.busy = 0;
  5102   001956  0100               	movlb	0	; () banked
  5103   001958  9583               	bcf	(_I2C1_Status+35)& (0+255),2,b
  5104   00195A                     
  5105                           ; BSR set to: 0
  5106                           ;mcc_generated_files/i2c1_master.c: 599:     I2C1_Status.error = I2C1_FAIL;
  5107   00195A  0E02               	movlw	2
  5108   00195C  6F82               	movwf	(_I2C1_Status+34)& (0+255),b
  5109   00195E                     
  5110                           ; BSR set to: 0
  5111                           ;mcc_generated_files/i2c1_master.c: 600:     return I2C1_RESET;
  5112   00195E  0E0F               	movlw	15
  5113   001960                     
  5114                           ; BSR set to: 0
  5115   001960  0012               	return		;funcret
  5116   001962                     __end_of_I2C1_DO_BUS_ERROR:
  5117                           	callstack 0
  5118                           
  5119 ;; *************** function _I2C1_DO_BUS_COLLISION *****************
  5120 ;; Defined at:
  5121 ;;		line 579 in file "mcc_generated_files/i2c1_master.c"
  5122 ;; Parameters:    Size  Location     Type
  5123 ;;		None
  5124 ;; Auto vars:     Size  Location     Type
  5125 ;;		None
  5126 ;; Return value:  Size  Location     Type
  5127 ;;                  1    wreg      enum E22977
  5128 ;; Registers used:
  5129 ;;		wreg, fsr2l, fsr2h, status,2, status,0, pcl, pclath, pclatu, tosl, prodl, prodh, cstack
  5130 ;; Tracked objects:
  5131 ;;		On entry : 0/0
  5132 ;;		On exit  : 0/0
  5133 ;;		Unchanged: 0/0
  5134 ;; Data sizes:     COMRAM   BANK0   BANK1   BANK2   BANK3   BANK4   BANK5   BANK6   BANK7   BANK8   BANK9  BANK10  BANK1
      +1  BANK12  BANK13  BANK14  BANK15
  5135 ;;      Params:         0       0       0       0       0       0       0       0       0       0       0       0       
      +0       0       0       0       0
  5136 ;;      Locals:         0       0       0       0       0       0       0       0       0       0       0       0       
      +0       0       0       0       0
  5137 ;;      Temps:          2       0       0       0       0       0       0       0       0       0       0       0       
      +0       0       0       0       0
  5138 ;;      Totals:         2       0       0       0       0       0       0       0       0       0       0       0       
      +0       0       0       0       0
  5139 ;;Total ram usage:        2 bytes
  5140 ;; Hardware stack levels used: 1
  5141 ;; Hardware stack levels required when called: 9
  5142 ;; This function calls:
  5143 ;;		NULL
  5144 ;;		_I2C1_CallbackReturnReset
  5145 ;;		_I2C1_CallbackReturnStop
  5146 ;;		_I2C1_DO_RESET
  5147 ;;		_I2C1_DO_SEND_RESTART_READ
  5148 ;;		_I2C1_DO_SEND_RESTART_WRITE
  5149 ;;		_I2C1_MasterClearIrq
  5150 ;;		_rd1RegCompleteHandler
  5151 ;;		_rd2RegCompleteHandler
  5152 ;;		_rdBlkRegCompleteHandler
  5153 ;;		_wr1RegCompleteHandler
  5154 ;;		_wr2RegCompleteHandler
  5155 ;; This function is called by:
  5156 ;;		_I2C1_MasterFsm
  5157 ;; This function uses a non-reentrant model
  5158 ;;
  5159                           
  5160                           	psect	text33
  5161   000EA8                     __ptext33:
  5162                           	callstack 0
  5163   000EA8                     _I2C1_DO_BUS_COLLISION:
  5164                           	callstack 14
  5165   000EA8                     
  5166                           ;mcc_generated_files/i2c1_master.c: 582:     I2C1_MasterClearIrq();
  5167   000EA8  EC0B  F00D         	call	_I2C1_MasterClearIrq	;wreg free
  5168   000EAC                     
  5169                           ;mcc_generated_files/i2c1_master.c: 584:     I2C1_Status.error = I2C1_FAIL;
  5170   000EAC  0E02               	movlw	2
  5171   000EAE  0100               	movlb	0	; () banked
  5172   000EB0  6F82               	movwf	(_I2C1_Status+34)& (0+255),b
  5173                           
  5174                           ;mcc_generated_files/i2c1_master.c: 585:     switch (I2C1_Status.callbackTable[I2C1_WRIT
      +                          E_COLLISION](I2C1_Status.callbackPayload[I2C1_WRITE_COLLISION])) {
  5175   000EB2  EF67  F007         	goto	l4317
  5176   000EB6                     l4303:
  5177                           
  5178                           ;mcc_generated_files/i2c1_master.c: 587:         return I2C1_DO_SEND_RESTART_READ();
  5179   000EB6  ECC0  F00C         	call	_I2C1_DO_SEND_RESTART_READ	;wreg free
  5180   000EBA  EF8B  F007         	goto	l949
  5181   000EBE                     l4307:
  5182                           
  5183                           ;mcc_generated_files/i2c1_master.c: 589:         return I2C1_DO_SEND_RESTART_WRITE();
  5184   000EBE  EC2F  F00D         	call	_I2C1_DO_SEND_RESTART_WRITE	;wreg free
  5185   000EC2  EF8B  F007         	goto	l949
  5186   000EC6                     l4311:
  5187                           
  5188                           ;mcc_generated_files/i2c1_master.c: 591:         return I2C1_DO_RESET();
  5189   000EC6  ECB1  F00C         	call	_I2C1_DO_RESET	;wreg free
  5190   000ECA  EF8B  F007         	goto	l949
  5191   000ECE                     l4317:
  5192                           
  5193                           ; BSR set to: 0
  5194   000ECE  C06E  F00C         	movff	_I2C1_Status+14,I2C1_CallbackReturnReset@funPtr
  5195   000ED2  C06F  F00D         	movff	_I2C1_Status+15,I2C1_CallbackReturnReset@funPtr+1
  5196   000ED6  D802               	call	u1828
  5197   000ED8  EF77  F007         	goto	u1829
  5198   000EDC                     u1828:
  5199   000EDC  0005               	push	
  5200   000EDE  6EFA               	movwf	pclath,c
  5201   000EE0  5162               	movf	(_I2C1_Status+2)& (0+255),w,b
  5202   000EE2  6EFD               	movwf	tosl,c
  5203   000EE4  5163               	movf	(_I2C1_Status+3)& (0+255),w,b
  5204   000EE6  6EFE               	movwf	tosh,c
  5205   000EE8  6AFF               	clrf	tosu,c
  5206   000EEA  50FA               	movf	pclath,w,c
  5207   000EEC  0012               	return		;indir
  5208   000EEE                     u1829:
  5209   000EEE  6E0F               	movwf	??_I2C1_DO_BUS_COLLISION^0,c
  5210   000EF0  6A10               	clrf	(??_I2C1_DO_BUS_COLLISION+1)^0,c
  5211                           
  5212                           ; Switch on 2 bytes has been partitioned into a top level switch of size 1, and 1 sub-sw
      +                          itches
  5213                           ; Switch size 1, requested type "simple"
  5214                           ; Number of cases is 1, Range of values is 0 to 0
  5215                           ; switch strategies available:
  5216                           ; Name         Instructions Cycles
  5217                           ; simple_byte            4     3 (average)
  5218                           ;	Chosen strategy is simple_byte
  5219   000EF2  5010               	movf	(??_I2C1_DO_BUS_COLLISION+1)^0,w,c
  5220   000EF4  0A00               	xorlw	0	; case 0
  5221   000EF6  B4D8               	btfsc	status,2,c
  5222   000EF8  EF80  F007         	goto	l5353
  5223   000EFC  EF63  F007         	goto	l4311
  5224   000F00                     l5353:
  5225                           
  5226                           ; Switch size 1, requested type "simple"
  5227                           ; Number of cases is 2, Range of values is 2 to 3
  5228                           ; switch strategies available:
  5229                           ; Name         Instructions Cycles
  5230                           ; simple_byte            7     4 (average)
  5231                           ;	Chosen strategy is simple_byte
  5232   000F00  500F               	movf	??_I2C1_DO_BUS_COLLISION^0,w,c
  5233   000F02  0A02               	xorlw	2	; case 2
  5234   000F04  B4D8               	btfsc	status,2,c
  5235   000F06  EF5B  F007         	goto	l4303
  5236   000F0A  0A01               	xorlw	1	; case 3
  5237   000F0C  B4D8               	btfsc	status,2,c
  5238   000F0E  EF5F  F007         	goto	l4307
  5239   000F12  EF63  F007         	goto	l4311
  5240   000F16                     l949:
  5241   000F16  0012               	return		;funcret
  5242   000F18                     __end_of_I2C1_DO_BUS_COLLISION:
  5243                           	callstack 0
  5244                           
  5245 ;; *************** function _I2C1_DO_ADDRESS_NACK *****************
  5246 ;; Defined at:
  5247 ;;		line 564 in file "mcc_generated_files/i2c1_master.c"
  5248 ;; Parameters:    Size  Location     Type
  5249 ;;		None
  5250 ;; Auto vars:     Size  Location     Type
  5251 ;;		None
  5252 ;; Return value:  Size  Location     Type
  5253 ;;                  1    wreg      enum E22977
  5254 ;; Registers used:
  5255 ;;		wreg, fsr2l, fsr2h, status,2, status,0, pcl, pclath, pclatu, tosl, prodl, prodh, cstack
  5256 ;; Tracked objects:
  5257 ;;		On entry : 0/0
  5258 ;;		On exit  : 0/0
  5259 ;;		Unchanged: 0/0
  5260 ;; Data sizes:     COMRAM   BANK0   BANK1   BANK2   BANK3   BANK4   BANK5   BANK6   BANK7   BANK8   BANK9  BANK10  BANK1
      +1  BANK12  BANK13  BANK14  BANK15
  5261 ;;      Params:         0       0       0       0       0       0       0       0       0       0       0       0       
      +0       0       0       0       0
  5262 ;;      Locals:         0       0       0       0       0       0       0       0       0       0       0       0       
      +0       0       0       0       0
  5263 ;;      Temps:          2       0       0       0       0       0       0       0       0       0       0       0       
      +0       0       0       0       0
  5264 ;;      Totals:         2       0       0       0       0       0       0       0       0       0       0       0       
      +0       0       0       0       0
  5265 ;;Total ram usage:        2 bytes
  5266 ;; Hardware stack levels used: 1
  5267 ;; Hardware stack levels required when called: 6
  5268 ;; This function calls:
  5269 ;;		NULL
  5270 ;;		_I2C1_CallbackReturnReset
  5271 ;;		_I2C1_CallbackReturnStop
  5272 ;;		_I2C1_DO_SEND_RESTART
  5273 ;;		_rd1RegCompleteHandler
  5274 ;;		_rd2RegCompleteHandler
  5275 ;;		_rdBlkRegCompleteHandler
  5276 ;;		_wr1RegCompleteHandler
  5277 ;;		_wr2RegCompleteHandler
  5278 ;; This function is called by:
  5279 ;;		_I2C1_MasterFsm
  5280 ;; This function uses a non-reentrant model
  5281 ;;
  5282                           
  5283                           	psect	text34
  5284   00105E                     __ptext34:
  5285                           	callstack 0
  5286   00105E                     _I2C1_DO_ADDRESS_NACK:
  5287                           	callstack 17
  5288   00105E                     
  5289                           ;mcc_generated_files/i2c1_master.c: 566:     I2C1_Status.addressNackCheck = 0;
  5290   00105E  0EFC               	movlw	-4
  5291   001060  0100               	movlb	0	; () banked
  5292   001062  1783               	andwf	(_I2C1_Status+35)& (0+255),f,b
  5293                           
  5294                           ;mcc_generated_files/i2c1_master.c: 567:     I2C1_Status.error = I2C1_FAIL;
  5295   001064  0E02               	movlw	2
  5296   001066  6F82               	movwf	(_I2C1_Status+34)& (0+255),b
  5297   001068                     
  5298                           ; BSR set to: 0
  5299                           ;mcc_generated_files/i2c1_master.c: 568:     I2C1_Status.busy = 0;
  5300   001068  9583               	bcf	(_I2C1_Status+35)& (0+255),2,b
  5301                           
  5302                           ;mcc_generated_files/i2c1_master.c: 569:     switch(I2C1_Status.callbackTable[I2C1_ADDR_
      +                          NACK](I2C1_Status.callbackPayload[I2C1_ADDR_NACK]))
  5303   00106A  EF3E  F008         	goto	l4293
  5304   00106E                     l4283:
  5305                           
  5306                           ;mcc_generated_files/i2c1_master.c: 573:             return I2C1_DO_SEND_RESTART();
  5307   00106E  EC2D  F00D         	call	_I2C1_DO_SEND_RESTART	;wreg free
  5308   001072  EF62  F008         	goto	l942
  5309   001076                     l4287:
  5310                           
  5311                           ;mcc_generated_files/i2c1_master.c: 575:             return I2C1_RESET;
  5312   001076  0E0F               	movlw	15
  5313   001078  EF62  F008         	goto	l942
  5314   00107C                     l4293:
  5315                           
  5316                           ; BSR set to: 0
  5317   00107C  C070  F00C         	movff	_I2C1_Status+16,I2C1_CallbackReturnReset@funPtr
  5318   001080  C071  F00D         	movff	_I2C1_Status+17,I2C1_CallbackReturnReset@funPtr+1
  5319   001084  D802               	call	u1818
  5320   001086  EF4E  F008         	goto	u1819
  5321   00108A                     u1818:
  5322   00108A  0005               	push	
  5323   00108C  6EFA               	movwf	pclath,c
  5324   00108E  5164               	movf	(_I2C1_Status+4)& (0+255),w,b
  5325   001090  6EFD               	movwf	tosl,c
  5326   001092  5165               	movf	(_I2C1_Status+5)& (0+255),w,b
  5327   001094  6EFE               	movwf	tosh,c
  5328   001096  6AFF               	clrf	tosu,c
  5329   001098  50FA               	movf	pclath,w,c
  5330   00109A  0012               	return		;indir
  5331   00109C                     u1819:
  5332   00109C  6E0F               	movwf	??_I2C1_DO_ADDRESS_NACK^0,c
  5333   00109E  6A10               	clrf	(??_I2C1_DO_ADDRESS_NACK+1)^0,c
  5334                           
  5335                           ; Switch on 2 bytes has been partitioned into a top level switch of size 1, and 1 sub-sw
      +                          itches
  5336                           ; Switch size 1, requested type "simple"
  5337                           ; Number of cases is 1, Range of values is 0 to 0
  5338                           ; switch strategies available:
  5339                           ; Name         Instructions Cycles
  5340                           ; simple_byte            4     3 (average)
  5341                           ;	Chosen strategy is simple_byte
  5342   0010A0  5010               	movf	(??_I2C1_DO_ADDRESS_NACK+1)^0,w,c
  5343   0010A2  0A00               	xorlw	0	; case 0
  5344   0010A4  B4D8               	btfsc	status,2,c
  5345   0010A6  EF57  F008         	goto	l5355
  5346   0010AA  EF3B  F008         	goto	l4287
  5347   0010AE                     l5355:
  5348                           
  5349                           ; Switch size 1, requested type "simple"
  5350                           ; Number of cases is 2, Range of values is 2 to 3
  5351                           ; switch strategies available:
  5352                           ; Name         Instructions Cycles
  5353                           ; simple_byte            7     4 (average)
  5354                           ;	Chosen strategy is simple_byte
  5355   0010AE  500F               	movf	??_I2C1_DO_ADDRESS_NACK^0,w,c
  5356   0010B0  0A02               	xorlw	2	; case 2
  5357   0010B2  B4D8               	btfsc	status,2,c
  5358   0010B4  EF37  F008         	goto	l4283
  5359   0010B8  0A01               	xorlw	1	; case 3
  5360   0010BA  B4D8               	btfsc	status,2,c
  5361   0010BC  EF37  F008         	goto	l4283
  5362   0010C0  EF3B  F008         	goto	l4287
  5363   0010C4                     l942:
  5364   0010C4  0012               	return		;funcret
  5365   0010C6                     __end_of_I2C1_DO_ADDRESS_NACK:
  5366                           	callstack 0
  5367                           
  5368 ;; *************** function _I2C1_DO_RESET *****************
  5369 ;; Defined at:
  5370 ;;		line 557 in file "mcc_generated_files/i2c1_master.c"
  5371 ;; Parameters:    Size  Location     Type
  5372 ;;		None
  5373 ;; Auto vars:     Size  Location     Type
  5374 ;;		None
  5375 ;; Return value:  Size  Location     Type
  5376 ;;                  1    wreg      enum E22977
  5377 ;; Registers used:
  5378 ;;		wreg, status,2, cstack
  5379 ;; Tracked objects:
  5380 ;;		On entry : 0/0
  5381 ;;		On exit  : 0/0
  5382 ;;		Unchanged: 0/0
  5383 ;; Data sizes:     COMRAM   BANK0   BANK1   BANK2   BANK3   BANK4   BANK5   BANK6   BANK7   BANK8   BANK9  BANK10  BANK1
      +1  BANK12  BANK13  BANK14  BANK15
  5384 ;;      Params:         0       0       0       0       0       0       0       0       0       0       0       0       
      +0       0       0       0       0
  5385 ;;      Locals:         0       0       0       0       0       0       0       0       0       0       0       0       
      +0       0       0       0       0
  5386 ;;      Temps:          0       0       0       0       0       0       0       0       0       0       0       0       
      +0       0       0       0       0
  5387 ;;      Totals:         0       0       0       0       0       0       0       0       0       0       0       0       
      +0       0       0       0       0
  5388 ;;Total ram usage:        0 bytes
  5389 ;; Hardware stack levels used: 1
  5390 ;; Hardware stack levels required when called: 4
  5391 ;; This function calls:
  5392 ;;		_I2C1_MasterResetBus
  5393 ;; This function is called by:
  5394 ;;		_I2C1_DO_BUS_COLLISION
  5395 ;;		_I2C1_MasterFsm
  5396 ;; This function uses a non-reentrant model
  5397 ;;
  5398                           
  5399                           	psect	text35
  5400   001962                     __ptext35:
  5401                           	callstack 0
  5402   001962                     _I2C1_DO_RESET:
  5403                           	callstack 19
  5404   001962                     
  5405                           ;mcc_generated_files/i2c1_master.c: 559:     I2C1_MasterResetBus();
  5406   001962  ECE2  F00C         	call	_I2C1_MasterResetBus	;wreg free
  5407   001966                     
  5408                           ;mcc_generated_files/i2c1_master.c: 560:     I2C1_Status.busy = 0;
  5409   001966  0100               	movlb	0	; () banked
  5410   001968  9583               	bcf	(_I2C1_Status+35)& (0+255),2,b
  5411   00196A                     
  5412                           ; BSR set to: 0
  5413                           ;mcc_generated_files/i2c1_master.c: 561:     I2C1_Status.error = I2C1_NOERR;
  5414   00196A  0E00               	movlw	0
  5415   00196C  6F82               	movwf	(_I2C1_Status+34)& (0+255),b
  5416   00196E                     
  5417                           ; BSR set to: 0
  5418                           ;mcc_generated_files/i2c1_master.c: 562:     return I2C1_RESET;
  5419   00196E  0E0F               	movlw	15
  5420   001970                     
  5421                           ; BSR set to: 0
  5422   001970  0012               	return		;funcret
  5423   001972                     __end_of_I2C1_DO_RESET:
  5424                           	callstack 0
  5425                           
  5426 ;; *************** function _I2C1_DO_RX_NACK_RESTART *****************
  5427 ;; Defined at:
  5428 ;;		line 551 in file "mcc_generated_files/i2c1_master.c"
  5429 ;; Parameters:    Size  Location     Type
  5430 ;;		None
  5431 ;; Auto vars:     Size  Location     Type
  5432 ;;		None
  5433 ;; Return value:  Size  Location     Type
  5434 ;;                  1    wreg      enum E22977
  5435 ;; Registers used:
  5436 ;;		wreg, cstack
  5437 ;; Tracked objects:
  5438 ;;		On entry : 0/0
  5439 ;;		On exit  : 0/0
  5440 ;;		Unchanged: 0/0
  5441 ;; Data sizes:     COMRAM   BANK0   BANK1   BANK2   BANK3   BANK4   BANK5   BANK6   BANK7   BANK8   BANK9  BANK10  BANK1
      +1  BANK12  BANK13  BANK14  BANK15
  5442 ;;      Params:         0       0       0       0       0       0       0       0       0       0       0       0       
      +0       0       0       0       0
  5443 ;;      Locals:         0       0       0       0       0       0       0       0       0       0       0       0       
      +0       0       0       0       0
  5444 ;;      Temps:          0       0       0       0       0       0       0       0       0       0       0       0       
      +0       0       0       0       0
  5445 ;;      Totals:         0       0       0       0       0       0       0       0       0       0       0       0       
      +0       0       0       0       0
  5446 ;;Total ram usage:        0 bytes
  5447 ;; Hardware stack levels used: 1
  5448 ;; Hardware stack levels required when called: 4
  5449 ;; This function calls:
  5450 ;;		_I2C1_MasterSendNack
  5451 ;; This function is called by:
  5452 ;;		_I2C1_MasterFsm
  5453 ;; This function uses a non-reentrant model
  5454 ;;
  5455                           
  5456                           	psect	text36
  5457   0019FE                     __ptext36:
  5458                           	callstack 0
  5459   0019FE                     _I2C1_DO_RX_NACK_RESTART:
  5460                           	callstack 19
  5461   0019FE                     
  5462                           ;mcc_generated_files/i2c1_master.c: 553:     I2C1_MasterSendNack();
  5463   0019FE  EC15  F00D         	call	_I2C1_MasterSendNack	;wreg free
  5464   001A02                     
  5465                           ;mcc_generated_files/i2c1_master.c: 554:     return I2C1_SEND_RESTART;
  5466   001A02  0E09               	movlw	9
  5467   001A04  0012               	return		;funcret
  5468   001A06                     __end_of_I2C1_DO_RX_NACK_RESTART:
  5469                           	callstack 0
  5470                           
  5471 ;; *************** function _I2C1_DO_RX_NACK_STOP *****************
  5472 ;; Defined at:
  5473 ;;		line 544 in file "mcc_generated_files/i2c1_master.c"
  5474 ;; Parameters:    Size  Location     Type
  5475 ;;		None
  5476 ;; Auto vars:     Size  Location     Type
  5477 ;;		None
  5478 ;; Return value:  Size  Location     Type
  5479 ;;                  1    wreg      enum E22977
  5480 ;; Registers used:
  5481 ;;		wreg, status,2, cstack
  5482 ;; Tracked objects:
  5483 ;;		On entry : 0/0
  5484 ;;		On exit  : 0/0
  5485 ;;		Unchanged: 0/0
  5486 ;; Data sizes:     COMRAM   BANK0   BANK1   BANK2   BANK3   BANK4   BANK5   BANK6   BANK7   BANK8   BANK9  BANK10  BANK1
      +1  BANK12  BANK13  BANK14  BANK15
  5487 ;;      Params:         0       0       0       0       0       0       0       0       0       0       0       0       
      +0       0       0       0       0
  5488 ;;      Locals:         0       0       0       0       0       0       0       0       0       0       0       0       
      +0       0       0       0       0
  5489 ;;      Temps:          0       0       0       0       0       0       0       0       0       0       0       0       
      +0       0       0       0       0
  5490 ;;      Totals:         0       0       0       0       0       0       0       0       0       0       0       0       
      +0       0       0       0       0
  5491 ;;Total ram usage:        0 bytes
  5492 ;; Hardware stack levels used: 1
  5493 ;; Hardware stack levels required when called: 4
  5494 ;; This function calls:
  5495 ;;		_I2C1_DO_IDLE
  5496 ;;		_I2C1_MasterSendNack
  5497 ;;		_I2C1_MasterStop
  5498 ;; This function is called by:
  5499 ;;		_I2C1_MasterFsm
  5500 ;; This function uses a non-reentrant model
  5501 ;;
  5502                           
  5503                           	psect	text37
  5504   001972                     __ptext37:
  5505                           	callstack 0
  5506   001972                     _I2C1_DO_RX_NACK_STOP:
  5507                           	callstack 19
  5508   001972                     
  5509                           ;mcc_generated_files/i2c1_master.c: 546:     I2C1_MasterSendNack();
  5510   001972  EC15  F00D         	call	_I2C1_MasterSendNack	;wreg free
  5511                           
  5512                           ;mcc_generated_files/i2c1_master.c: 547:     I2C1_MasterStop();
  5513   001976  EC12  F00D         	call	_I2C1_MasterStop	;wreg free
  5514   00197A                     
  5515                           ;mcc_generated_files/i2c1_master.c: 548:     return I2C1_DO_IDLE();
  5516   00197A  ECC7  F00C         	call	_I2C1_DO_IDLE	;wreg free
  5517   00197E  0012               	return		;funcret
  5518   001980                     __end_of_I2C1_DO_RX_NACK_STOP:
  5519                           	callstack 0
  5520                           
  5521 ;; *************** function _I2C1_DO_RX_ACK *****************
  5522 ;; Defined at:
  5523 ;;		line 532 in file "mcc_generated_files/i2c1_master.c"
  5524 ;; Parameters:    Size  Location     Type
  5525 ;;		None
  5526 ;; Auto vars:     Size  Location     Type
  5527 ;;		None
  5528 ;; Return value:  Size  Location     Type
  5529 ;;                  1    wreg      enum E22977
  5530 ;; Registers used:
  5531 ;;		wreg, cstack
  5532 ;; Tracked objects:
  5533 ;;		On entry : 0/0
  5534 ;;		On exit  : 0/0
  5535 ;;		Unchanged: 0/0
  5536 ;; Data sizes:     COMRAM   BANK0   BANK1   BANK2   BANK3   BANK4   BANK5   BANK6   BANK7   BANK8   BANK9  BANK10  BANK1
      +1  BANK12  BANK13  BANK14  BANK15
  5537 ;;      Params:         0       0       0       0       0       0       0       0       0       0       0       0       
      +0       0       0       0       0
  5538 ;;      Locals:         0       0       0       0       0       0       0       0       0       0       0       0       
      +0       0       0       0       0
  5539 ;;      Temps:          0       0       0       0       0       0       0       0       0       0       0       0       
      +0       0       0       0       0
  5540 ;;      Totals:         0       0       0       0       0       0       0       0       0       0       0       0       
      +0       0       0       0       0
  5541 ;;Total ram usage:        0 bytes
  5542 ;; Hardware stack levels used: 1
  5543 ;; Hardware stack levels required when called: 4
  5544 ;; This function calls:
  5545 ;;		_I2C1_MasterSendAck
  5546 ;; This function is called by:
  5547 ;;		_I2C1_MasterFsm
  5548 ;; This function uses a non-reentrant model
  5549 ;;
  5550                           
  5551                           	psect	text38
  5552   001A06                     __ptext38:
  5553                           	callstack 0
  5554   001A06                     _I2C1_DO_RX_ACK:
  5555                           	callstack 19
  5556   001A06                     
  5557                           ;mcc_generated_files/i2c1_master.c: 534:     I2C1_MasterSendAck();
  5558   001A06  EC18  F00D         	call	_I2C1_MasterSendAck	;wreg free
  5559   001A0A                     
  5560                           ;mcc_generated_files/i2c1_master.c: 535:     return I2C1_RX;
  5561   001A0A  0E04               	movlw	4
  5562   001A0C  0012               	return		;funcret
  5563   001A0E                     __end_of_I2C1_DO_RX_ACK:
  5564                           	callstack 0
  5565                           
  5566 ;; *************** function _I2C1_DO_SEND_STOP *****************
  5567 ;; Defined at:
  5568 ;;		line 521 in file "mcc_generated_files/i2c1_master.c"
  5569 ;; Parameters:    Size  Location     Type
  5570 ;;		None
  5571 ;; Auto vars:     Size  Location     Type
  5572 ;;		None
  5573 ;; Return value:  Size  Location     Type
  5574 ;;                  1    wreg      enum E22977
  5575 ;; Registers used:
  5576 ;;		wreg, status,2, cstack
  5577 ;; Tracked objects:
  5578 ;;		On entry : 0/0
  5579 ;;		On exit  : 0/0
  5580 ;;		Unchanged: 0/0
  5581 ;; Data sizes:     COMRAM   BANK0   BANK1   BANK2   BANK3   BANK4   BANK5   BANK6   BANK7   BANK8   BANK9  BANK10  BANK1
      +1  BANK12  BANK13  BANK14  BANK15
  5582 ;;      Params:         0       0       0       0       0       0       0       0       0       0       0       0       
      +0       0       0       0       0
  5583 ;;      Locals:         0       0       0       0       0       0       0       0       0       0       0       0       
      +0       0       0       0       0
  5584 ;;      Temps:          0       0       0       0       0       0       0       0       0       0       0       0       
      +0       0       0       0       0
  5585 ;;      Totals:         0       0       0       0       0       0       0       0       0       0       0       0       
      +0       0       0       0       0
  5586 ;;Total ram usage:        0 bytes
  5587 ;; Hardware stack levels used: 1
  5588 ;; Hardware stack levels required when called: 4
  5589 ;; This function calls:
  5590 ;;		_I2C1_MasterGetCounter
  5591 ;;		_I2C1_MasterSendTxData
  5592 ;;		_I2C1_MasterSetCounter
  5593 ;;		_I2C1_MasterStop
  5594 ;; This function is called by:
  5595 ;;		_I2C1_MasterFsm
  5596 ;; This function uses a non-reentrant model
  5597 ;;
  5598                           
  5599                           	psect	text39
  5600   001704                     __ptext39:
  5601                           	callstack 0
  5602   001704                     _I2C1_DO_SEND_STOP:
  5603                           	callstack 19
  5604   001704                     
  5605                           ;mcc_generated_files/i2c1_master.c: 523:     I2C1_MasterStop();
  5606   001704  EC12  F00D         	call	_I2C1_MasterStop	;wreg free
  5607   001708                     
  5608                           ;mcc_generated_files/i2c1_master.c: 524:     if(I2C1_MasterGetCounter())
  5609   001708  EC0F  F00D         	call	_I2C1_MasterGetCounter	;wreg free
  5610   00170C  0900               	iorlw	0
  5611   00170E  B4D8               	btfsc	status,2,c
  5612   001710  EF8C  F00B         	goto	u1801
  5613   001714  EF8E  F00B         	goto	u1800
  5614   001718                     u1801:
  5615   001718  EF94  F00B         	goto	l4251
  5616   00171C                     u1800:
  5617   00171C                     
  5618                           ;mcc_generated_files/i2c1_master.c: 525:     {;mcc_generated_files/i2c1_master.c: 526:  
      +                                 I2C1_MasterSetCounter(0);
  5619   00171C  0E00               	movlw	0
  5620   00171E  ECDD  F00C         	call	_I2C1_MasterSetCounter
  5621                           
  5622                           ;mcc_generated_files/i2c1_master.c: 527:         I2C1_MasterSendTxData(0);
  5623   001722  0E00               	movlw	0
  5624   001724  ECD8  F00C         	call	_I2C1_MasterSendTxData
  5625   001728                     l4251:
  5626                           
  5627                           ;mcc_generated_files/i2c1_master.c: 529:     return I2C1_IDLE;
  5628   001728  0E00               	movlw	0
  5629   00172A  0012               	return		;funcret
  5630   00172C                     __end_of_I2C1_DO_SEND_STOP:
  5631                           	callstack 0
  5632                           
  5633 ;; *************** function _I2C1_DO_SEND_RESTART *****************
  5634 ;; Defined at:
  5635 ;;		line 516 in file "mcc_generated_files/i2c1_master.c"
  5636 ;; Parameters:    Size  Location     Type
  5637 ;;		None
  5638 ;; Auto vars:     Size  Location     Type
  5639 ;;		None
  5640 ;; Return value:  Size  Location     Type
  5641 ;;                  1    wreg      enum E22977
  5642 ;; Registers used:
  5643 ;;		wreg
  5644 ;; Tracked objects:
  5645 ;;		On entry : 0/0
  5646 ;;		On exit  : 0/0
  5647 ;;		Unchanged: 0/0
  5648 ;; Data sizes:     COMRAM   BANK0   BANK1   BANK2   BANK3   BANK4   BANK5   BANK6   BANK7   BANK8   BANK9  BANK10  BANK1
      +1  BANK12  BANK13  BANK14  BANK15
  5649 ;;      Params:         0       0       0       0       0       0       0       0       0       0       0       0       
      +0       0       0       0       0
  5650 ;;      Locals:         0       0       0       0       0       0       0       0       0       0       0       0       
      +0       0       0       0       0
  5651 ;;      Temps:          0       0       0       0       0       0       0       0       0       0       0       0       
      +0       0       0       0       0
  5652 ;;      Totals:         0       0       0       0       0       0       0       0       0       0       0       0       
      +0       0       0       0       0
  5653 ;;Total ram usage:        0 bytes
  5654 ;; Hardware stack levels used: 1
  5655 ;; Hardware stack levels required when called: 3
  5656 ;; This function calls:
  5657 ;;		Nothing
  5658 ;; This function is called by:
  5659 ;;		_I2C1_DO_ADDRESS_NACK
  5660 ;;		_I2C1_MasterFsm
  5661 ;; This function uses a non-reentrant model
  5662 ;;
  5663                           
  5664                           	psect	text40
  5665   001A5A                     __ptext40:
  5666                           	callstack 0
  5667   001A5A                     _I2C1_DO_SEND_RESTART:
  5668                           	callstack 20
  5669   001A5A                     
  5670                           ;mcc_generated_files/i2c1_master.c: 518:     return I2C1_SEND_ADR_READ;
  5671   001A5A  0E01               	movlw	1
  5672   001A5C  0012               	return		;funcret
  5673   001A5E                     __end_of_I2C1_DO_SEND_RESTART:
  5674                           	callstack 0
  5675                           
  5676 ;; *************** function _I2C1_DO_SEND_RESTART_WRITE *****************
  5677 ;; Defined at:
  5678 ;;		line 510 in file "mcc_generated_files/i2c1_master.c"
  5679 ;; Parameters:    Size  Location     Type
  5680 ;;		None
  5681 ;; Auto vars:     Size  Location     Type
  5682 ;;		None
  5683 ;; Return value:  Size  Location     Type
  5684 ;;                  1    wreg      enum E22977
  5685 ;; Registers used:
  5686 ;;		wreg
  5687 ;; Tracked objects:
  5688 ;;		On entry : 0/0
  5689 ;;		On exit  : 0/0
  5690 ;;		Unchanged: 0/0
  5691 ;; Data sizes:     COMRAM   BANK0   BANK1   BANK2   BANK3   BANK4   BANK5   BANK6   BANK7   BANK8   BANK9  BANK10  BANK1
      +1  BANK12  BANK13  BANK14  BANK15
  5692 ;;      Params:         0       0       0       0       0       0       0       0       0       0       0       0       
      +0       0       0       0       0
  5693 ;;      Locals:         0       0       0       0       0       0       0       0       0       0       0       0       
      +0       0       0       0       0
  5694 ;;      Temps:          0       0       0       0       0       0       0       0       0       0       0       0       
      +0       0       0       0       0
  5695 ;;      Totals:         0       0       0       0       0       0       0       0       0       0       0       0       
      +0       0       0       0       0
  5696 ;;Total ram usage:        0 bytes
  5697 ;; Hardware stack levels used: 1
  5698 ;; Hardware stack levels required when called: 3
  5699 ;; This function calls:
  5700 ;;		Nothing
  5701 ;; This function is called by:
  5702 ;;		_I2C1_DO_TX
  5703 ;;		_I2C1_DO_BUS_COLLISION
  5704 ;;		_I2C1_MasterFsm
  5705 ;; This function uses a non-reentrant model
  5706 ;;
  5707                           
  5708                           	psect	text41
  5709   001A5E                     __ptext41:
  5710                           	callstack 0
  5711   001A5E                     _I2C1_DO_SEND_RESTART_WRITE:
  5712                           	callstack 19
  5713   001A5E                     
  5714                           ;mcc_generated_files/i2c1_master.c: 512:     return I2C1_SEND_ADR_WRITE;
  5715   001A5E  0E02               	movlw	2
  5716   001A60  0012               	return		;funcret
  5717   001A62                     __end_of_I2C1_DO_SEND_RESTART_WRITE:
  5718                           	callstack 0
  5719                           
  5720 ;; *************** function _I2C1_DO_SEND_RESTART_READ *****************
  5721 ;; Defined at:
  5722 ;;		line 504 in file "mcc_generated_files/i2c1_master.c"
  5723 ;; Parameters:    Size  Location     Type
  5724 ;;		None
  5725 ;; Auto vars:     Size  Location     Type
  5726 ;;		None
  5727 ;; Return value:  Size  Location     Type
  5728 ;;                  1    wreg      enum E22977
  5729 ;; Registers used:
  5730 ;;		wreg, fsr2l, fsr2h, status,2, status,0, pcl, pclath, pclatu, tosl, prodl, prodh, cstack
  5731 ;; Tracked objects:
  5732 ;;		On entry : 0/0
  5733 ;;		On exit  : 0/0
  5734 ;;		Unchanged: 0/0
  5735 ;; Data sizes:     COMRAM   BANK0   BANK1   BANK2   BANK3   BANK4   BANK5   BANK6   BANK7   BANK8   BANK9  BANK10  BANK1
      +1  BANK12  BANK13  BANK14  BANK15
  5736 ;;      Params:         0       0       0       0       0       0       0       0       0       0       0       0       
      +0       0       0       0       0
  5737 ;;      Locals:         0       0       0       0       0       0       0       0       0       0       0       0       
      +0       0       0       0       0
  5738 ;;      Temps:          0       0       0       0       0       0       0       0       0       0       0       0       
      +0       0       0       0       0
  5739 ;;      Totals:         0       0       0       0       0       0       0       0       0       0       0       0       
      +0       0       0       0       0
  5740 ;;Total ram usage:        0 bytes
  5741 ;; Hardware stack levels used: 1
  5742 ;; Hardware stack levels required when called: 8
  5743 ;; This function calls:
  5744 ;;		_I2C1_DO_SEND_ADR_READ
  5745 ;;		_I2C1_MasterSetCounter
  5746 ;; This function is called by:
  5747 ;;		_I2C1_DO_TX
  5748 ;;		_I2C1_DO_BUS_COLLISION
  5749 ;;		_I2C1_MasterFsm
  5750 ;; This function uses a non-reentrant model
  5751 ;;
  5752                           
  5753                           	psect	text42
  5754   001980                     __ptext42:
  5755                           	callstack 0
  5756   001980                     _I2C1_DO_SEND_RESTART_READ:
  5757                           	callstack 14
  5758   001980                     
  5759                           ;mcc_generated_files/i2c1_master.c: 506:     I2C1_MasterSetCounter((uint8_t) I2C1_Status
      +                          .data_length);
  5760   001980  0100               	movlb	0	; () banked
  5761   001982  517F               	movf	(_I2C1_Status+31)& (0+255),w,b
  5762   001984  ECDD  F00C         	call	_I2C1_MasterSetCounter
  5763   001988                     
  5764                           ;mcc_generated_files/i2c1_master.c: 507:     return I2C1_DO_SEND_ADR_READ();
  5765   001988  ECFD  F00A         	call	_I2C1_DO_SEND_ADR_READ	;wreg free
  5766   00198C  0012               	return		;funcret
  5767   00198E                     __end_of_I2C1_DO_SEND_RESTART_READ:
  5768                           	callstack 0
  5769                           
  5770 ;; *************** function _I2C1_DO_RX_EMPTY *****************
  5771 ;; Defined at:
  5772 ;;		line 479 in file "mcc_generated_files/i2c1_master.c"
  5773 ;; Parameters:    Size  Location     Type
  5774 ;;		None
  5775 ;; Auto vars:     Size  Location     Type
  5776 ;;		None
  5777 ;; Return value:  Size  Location     Type
  5778 ;;                  1    wreg      enum E22977
  5779 ;; Registers used:
  5780 ;;		wreg, fsr2l, fsr2h, status,2, status,0, pcl, pclath, pclatu, tosl, prodl, prodh, cstack
  5781 ;; Tracked objects:
  5782 ;;		On entry : 0/0
  5783 ;;		On exit  : 0/0
  5784 ;;		Unchanged: 0/0
  5785 ;; Data sizes:     COMRAM   BANK0   BANK1   BANK2   BANK3   BANK4   BANK5   BANK6   BANK7   BANK8   BANK9  BANK10  BANK1
      +1  BANK12  BANK13  BANK14  BANK15
  5786 ;;      Params:         0       0       0       0       0       0       0       0       0       0       0       0       
      +0       0       0       0       0
  5787 ;;      Locals:         0       0       0       0       0       0       0       0       0       0       0       0       
      +0       0       0       0       0
  5788 ;;      Temps:          2       0       0       0       0       0       0       0       0       0       0       0       
      +0       0       0       0       0
  5789 ;;      Totals:         2       0       0       0       0       0       0       0       0       0       0       0       
      +0       0       0       0       0
  5790 ;;Total ram usage:        2 bytes
  5791 ;; Hardware stack levels used: 1
  5792 ;; Hardware stack levels required when called: 6
  5793 ;; This function calls:
  5794 ;;		NULL
  5795 ;;		_I2C1_CallbackReturnReset
  5796 ;;		_I2C1_CallbackReturnStop
  5797 ;;		_I2C1_MasterDisableRestart
  5798 ;;		_I2C1_MasterEnableRestart
  5799 ;;		_I2C1_MasterSetCounter
  5800 ;;		_rd1RegCompleteHandler
  5801 ;;		_rd2RegCompleteHandler
  5802 ;;		_rdBlkRegCompleteHandler
  5803 ;;		_wr1RegCompleteHandler
  5804 ;;		_wr2RegCompleteHandler
  5805 ;; This function is called by:
  5806 ;;		_I2C1_DO_SEND_ADR_READ
  5807 ;;		_I2C1_DO_RX
  5808 ;;		_I2C1_MasterFsm
  5809 ;; This function uses a non-reentrant model
  5810 ;;
  5811                           
  5812                           	psect	text43
  5813   0008F6                     __ptext43:
  5814                           	callstack 0
  5815   0008F6                     _I2C1_DO_RX_EMPTY:
  5816                           	callstack 14
  5817   0008F6                     
  5818                           ;mcc_generated_files/i2c1_master.c: 481:     I2C1_Status.bufferFree = 1;
  5819   0008F6  0100               	movlb	0	; () banked
  5820   0008F8  8983               	bsf	(_I2C1_Status+35)& (0+255),4,b
  5821                           
  5822                           ;mcc_generated_files/i2c1_master.c: 482:     switch(I2C1_Status.callbackTable[I2C1_DATA_
      +                          COMPLETE](I2C1_Status.callbackPayload[I2C1_DATA_COMPLETE]))
  5823   0008FA  EF9F  F004         	goto	l4009
  5824   0008FE                     l3981:
  5825                           
  5826                           ;mcc_generated_files/i2c1_master.c: 485:             I2C1_MasterEnableRestart();
  5827   0008FE  EC1E  F00D         	call	_I2C1_MasterEnableRestart	;wreg free
  5828   000902                     
  5829                           ;mcc_generated_files/i2c1_master.c: 486:             return I2C1_SEND_RESTART_WRITE;
  5830   000902  0E08               	movlw	8
  5831   000904  EFCB  F004         	goto	l902
  5832   000908                     l3987:
  5833                           
  5834                           ;mcc_generated_files/i2c1_master.c: 488:             I2C1_MasterEnableRestart();
  5835   000908  EC1E  F00D         	call	_I2C1_MasterEnableRestart	;wreg free
  5836   00090C                     
  5837                           ;mcc_generated_files/i2c1_master.c: 489:             return I2C1_SEND_RESTART_READ;
  5838   00090C  0E07               	movlw	7
  5839   00090E  EFCB  F004         	goto	l902
  5840   000912                     l3993:
  5841                           
  5842                           ;mcc_generated_files/i2c1_master.c: 492:             I2C1_MasterSetCounter((uint8_t) (I2
      +                          C1_Status.data_length + 1));
  5843   000912  0100               	movlb	0	; () banked
  5844   000914  297F               	incf	(_I2C1_Status+31)& (0+255),w,b
  5845   000916  ECDD  F00C         	call	_I2C1_MasterSetCounter
  5846   00091A                     
  5847                           ;mcc_generated_files/i2c1_master.c: 493:             return I2C1_RX;
  5848   00091A  0E04               	movlw	4
  5849   00091C  EFCB  F004         	goto	l902
  5850   000920                     l3999:
  5851                           
  5852                           ;mcc_generated_files/i2c1_master.c: 496:             if(I2C1_Status.state != I2C1_SEND_R
      +                          ESTART_READ)
  5853   000920  0E07               	movlw	7
  5854   000922  0100               	movlb	0	; () banked
  5855   000924  1981               	xorwf	(_I2C1_Status+33)& (0+255),w,b
  5856   000926  B4D8               	btfsc	status,2,c
  5857   000928  EF98  F004         	goto	u1581
  5858   00092C  EF9A  F004         	goto	u1580
  5859   000930                     u1581:
  5860   000930  EF9C  F004         	goto	l4003
  5861   000934                     u1580:
  5862   000934                     
  5863                           ; BSR set to: 0
  5864                           ;mcc_generated_files/i2c1_master.c: 497:             {;mcc_generated_files/i2c1_master.c
      +                          : 498:                 I2C1_MasterDisableRestart();
  5865   000934  EC21  F00D         	call	_I2C1_MasterDisableRestart	;wreg free
  5866   000938                     l4003:
  5867                           
  5868                           ;mcc_generated_files/i2c1_master.c: 500:             return I2C1_RESET;
  5869   000938  0E0F               	movlw	15
  5870   00093A  EFCB  F004         	goto	l902
  5871   00093E                     l4009:
  5872                           
  5873                           ; BSR set to: 0
  5874   00093E  C06C  F00C         	movff	_I2C1_Status+12,I2C1_CallbackReturnReset@funPtr
  5875   000942  C06D  F00D         	movff	_I2C1_Status+13,I2C1_CallbackReturnReset@funPtr+1
  5876   000946  D802               	call	u1598
  5877   000948  EFAF  F004         	goto	u1599
  5878   00094C                     u1598:
  5879   00094C  0005               	push	
  5880   00094E  6EFA               	movwf	pclath,c
  5881   000950  5160               	movf	_I2C1_Status& (0+255),w,b
  5882   000952  6EFD               	movwf	tosl,c
  5883   000954  5161               	movf	(_I2C1_Status+1)& (0+255),w,b
  5884   000956  6EFE               	movwf	tosh,c
  5885   000958  6AFF               	clrf	tosu,c
  5886   00095A  50FA               	movf	pclath,w,c
  5887   00095C  0012               	return		;indir
  5888   00095E                     u1599:
  5889   00095E  6E0F               	movwf	??_I2C1_DO_RX_EMPTY^0,c
  5890   000960  6A10               	clrf	(??_I2C1_DO_RX_EMPTY+1)^0,c
  5891                           
  5892                           ; Switch on 2 bytes has been partitioned into a top level switch of size 1, and 1 sub-sw
      +                          itches
  5893                           ; Switch size 1, requested type "simple"
  5894                           ; Number of cases is 1, Range of values is 0 to 0
  5895                           ; switch strategies available:
  5896                           ; Name         Instructions Cycles
  5897                           ; simple_byte            4     3 (average)
  5898                           ;	Chosen strategy is simple_byte
  5899   000962  5010               	movf	(??_I2C1_DO_RX_EMPTY+1)^0,w,c
  5900   000964  0A00               	xorlw	0	; case 0
  5901   000966  B4D8               	btfsc	status,2,c
  5902   000968  EFB8  F004         	goto	l5357
  5903   00096C  EF90  F004         	goto	l3999
  5904   000970                     l5357:
  5905                           
  5906                           ; Switch size 1, requested type "simple"
  5907                           ; Number of cases is 4, Range of values is 1 to 4
  5908                           ; switch strategies available:
  5909                           ; Name         Instructions Cycles
  5910                           ; simple_byte           13     7 (average)
  5911                           ;	Chosen strategy is simple_byte
  5912   000970  500F               	movf	??_I2C1_DO_RX_EMPTY^0,w,c
  5913   000972  0A01               	xorlw	1	; case 1
  5914   000974  B4D8               	btfsc	status,2,c
  5915   000976  EF90  F004         	goto	l3999
  5916   00097A  0A03               	xorlw	3	; case 2
  5917   00097C  B4D8               	btfsc	status,2,c
  5918   00097E  EF84  F004         	goto	l3987
  5919   000982  0A01               	xorlw	1	; case 3
  5920   000984  B4D8               	btfsc	status,2,c
  5921   000986  EF7F  F004         	goto	l3981
  5922   00098A  0A07               	xorlw	7	; case 4
  5923   00098C  B4D8               	btfsc	status,2,c
  5924   00098E  EF89  F004         	goto	l3993
  5925   000992  EF90  F004         	goto	l3999
  5926   000996                     l902:
  5927   000996  0012               	return		;funcret
  5928   000998                     __end_of_I2C1_DO_RX_EMPTY:
  5929                           	callstack 0
  5930                           
  5931 ;; *************** function _I2C1_DO_TX_EMPTY *****************
  5932 ;; Defined at:
  5933 ;;		line 460 in file "mcc_generated_files/i2c1_master.c"
  5934 ;; Parameters:    Size  Location     Type
  5935 ;;		None
  5936 ;; Auto vars:     Size  Location     Type
  5937 ;;		None
  5938 ;; Return value:  Size  Location     Type
  5939 ;;                  1    wreg      enum E22977
  5940 ;; Registers used:
  5941 ;;		wreg, fsr2l, fsr2h, status,2, status,0, pcl, pclath, pclatu, tosl, prodl, prodh, cstack
  5942 ;; Tracked objects:
  5943 ;;		On entry : 0/0
  5944 ;;		On exit  : 0/0
  5945 ;;		Unchanged: 0/0
  5946 ;; Data sizes:     COMRAM   BANK0   BANK1   BANK2   BANK3   BANK4   BANK5   BANK6   BANK7   BANK8   BANK9  BANK10  BANK1
      +1  BANK12  BANK13  BANK14  BANK15
  5947 ;;      Params:         0       0       0       0       0       0       0       0       0       0       0       0       
      +0       0       0       0       0
  5948 ;;      Locals:         0       0       0       0       0       0       0       0       0       0       0       0       
      +0       0       0       0       0
  5949 ;;      Temps:          2       0       0       0       0       0       0       0       0       0       0       0       
      +0       0       0       0       0
  5950 ;;      Totals:         2       0       0       0       0       0       0       0       0       0       0       0       
      +0       0       0       0       0
  5951 ;;Total ram usage:        2 bytes
  5952 ;; Hardware stack levels used: 1
  5953 ;; Hardware stack levels required when called: 6
  5954 ;; This function calls:
  5955 ;;		NULL
  5956 ;;		_I2C1_CallbackReturnReset
  5957 ;;		_I2C1_CallbackReturnStop
  5958 ;;		_I2C1_MasterDisableRestart
  5959 ;;		_I2C1_MasterEnableRestart
  5960 ;;		_I2C1_MasterSetCounter
  5961 ;;		_rd1RegCompleteHandler
  5962 ;;		_rd2RegCompleteHandler
  5963 ;;		_rdBlkRegCompleteHandler
  5964 ;;		_wr1RegCompleteHandler
  5965 ;;		_wr2RegCompleteHandler
  5966 ;; This function is called by:
  5967 ;;		_I2C1_DO_TX
  5968 ;;		_I2C1_MasterFsm
  5969 ;; This function uses a non-reentrant model
  5970 ;;
  5971                           
  5972                           	psect	text44
  5973   000C5C                     __ptext44:
  5974                           	callstack 0
  5975   000C5C                     _I2C1_DO_TX_EMPTY:
  5976                           	callstack 17
  5977   000C5C                     
  5978                           ;mcc_generated_files/i2c1_master.c: 462:     I2C1_Status.bufferFree = 1;
  5979   000C5C  0100               	movlb	0	; () banked
  5980   000C5E  8983               	bsf	(_I2C1_Status+35)& (0+255),4,b
  5981                           
  5982                           ;mcc_generated_files/i2c1_master.c: 463:     switch(I2C1_Status.callbackTable[I2C1_DATA_
      +                          COMPLETE](I2C1_Status.callbackPayload[I2C1_DATA_COMPLETE]))
  5983   000C60  EF43  F006         	goto	l4099
  5984   000C64                     l4079:
  5985                           
  5986                           ;mcc_generated_files/i2c1_master.c: 466:             I2C1_MasterEnableRestart();
  5987   000C64  EC1E  F00D         	call	_I2C1_MasterEnableRestart	;wreg free
  5988   000C68                     
  5989                           ;mcc_generated_files/i2c1_master.c: 467:             return I2C1_SEND_RESTART_READ;
  5990   000C68  0E07               	movlw	7
  5991   000C6A  EF6B  F006         	goto	l893
  5992   000C6E                     l4085:
  5993                           
  5994                           ;mcc_generated_files/i2c1_master.c: 470:             I2C1_MasterSetCounter((uint8_t) I2C
      +                          1_Status.data_length + 1);
  5995   000C6E  0100               	movlb	0	; () banked
  5996   000C70  297F               	incf	(_I2C1_Status+31)& (0+255),w,b
  5997   000C72  ECDD  F00C         	call	_I2C1_MasterSetCounter
  5998   000C76                     
  5999                           ;mcc_generated_files/i2c1_master.c: 471:             return I2C1_TX;
  6000   000C76  0E03               	movlw	3
  6001   000C78  EF6B  F006         	goto	l893
  6002   000C7C                     l4091:
  6003                           
  6004                           ;mcc_generated_files/i2c1_master.c: 474:             I2C1_MasterDisableRestart();
  6005   000C7C  EC21  F00D         	call	_I2C1_MasterDisableRestart	;wreg free
  6006   000C80                     
  6007                           ;mcc_generated_files/i2c1_master.c: 475:             return I2C1_SEND_STOP;
  6008   000C80  0E0A               	movlw	10
  6009   000C82  EF6B  F006         	goto	l893
  6010   000C86                     l4099:
  6011                           
  6012                           ; BSR set to: 0
  6013   000C86  C06C  F00C         	movff	_I2C1_Status+12,I2C1_CallbackReturnReset@funPtr
  6014   000C8A  C06D  F00D         	movff	_I2C1_Status+13,I2C1_CallbackReturnReset@funPtr+1
  6015   000C8E  D802               	call	u1668
  6016   000C90  EF53  F006         	goto	u1669
  6017   000C94                     u1668:
  6018   000C94  0005               	push	
  6019   000C96  6EFA               	movwf	pclath,c
  6020   000C98  5160               	movf	_I2C1_Status& (0+255),w,b
  6021   000C9A  6EFD               	movwf	tosl,c
  6022   000C9C  5161               	movf	(_I2C1_Status+1)& (0+255),w,b
  6023   000C9E  6EFE               	movwf	tosh,c
  6024   000CA0  6AFF               	clrf	tosu,c
  6025   000CA2  50FA               	movf	pclath,w,c
  6026   000CA4  0012               	return		;indir
  6027   000CA6                     u1669:
  6028   000CA6  6E0F               	movwf	??_I2C1_DO_TX_EMPTY^0,c
  6029   000CA8  6A10               	clrf	(??_I2C1_DO_TX_EMPTY+1)^0,c
  6030                           
  6031                           ; Switch on 2 bytes has been partitioned into a top level switch of size 1, and 1 sub-sw
      +                          itches
  6032                           ; Switch size 1, requested type "simple"
  6033                           ; Number of cases is 1, Range of values is 0 to 0
  6034                           ; switch strategies available:
  6035                           ; Name         Instructions Cycles
  6036                           ; simple_byte            4     3 (average)
  6037                           ;	Chosen strategy is simple_byte
  6038   000CAA  5010               	movf	(??_I2C1_DO_TX_EMPTY+1)^0,w,c
  6039   000CAC  0A00               	xorlw	0	; case 0
  6040   000CAE  B4D8               	btfsc	status,2,c
  6041   000CB0  EF5C  F006         	goto	l5359
  6042   000CB4  EF3E  F006         	goto	l4091
  6043   000CB8                     l5359:
  6044                           
  6045                           ; Switch size 1, requested type "simple"
  6046                           ; Number of cases is 3, Range of values is 1 to 4
  6047                           ; switch strategies available:
  6048                           ; Name         Instructions Cycles
  6049                           ; simple_byte           10     6 (average)
  6050                           ;	Chosen strategy is simple_byte
  6051   000CB8  500F               	movf	??_I2C1_DO_TX_EMPTY^0,w,c
  6052   000CBA  0A01               	xorlw	1	; case 1
  6053   000CBC  B4D8               	btfsc	status,2,c
  6054   000CBE  EF3E  F006         	goto	l4091
  6055   000CC2  0A03               	xorlw	3	; case 2
  6056   000CC4  B4D8               	btfsc	status,2,c
  6057   000CC6  EF32  F006         	goto	l4079
  6058   000CCA  0A06               	xorlw	6	; case 4
  6059   000CCC  B4D8               	btfsc	status,2,c
  6060   000CCE  EF37  F006         	goto	l4085
  6061   000CD2  EF3E  F006         	goto	l4091
  6062   000CD6                     l893:
  6063   000CD6  0012               	return		;funcret
  6064   000CD8                     __end_of_I2C1_DO_TX_EMPTY:
  6065                           	callstack 0
  6066                           
  6067 ;; *************** function _I2C1_DO_RX *****************
  6068 ;; Defined at:
  6069 ;;		line 436 in file "mcc_generated_files/i2c1_master.c"
  6070 ;; Parameters:    Size  Location     Type
  6071 ;;		None
  6072 ;; Auto vars:     Size  Location     Type
  6073 ;;  retFsmState     1   18[COMRAM] enum E22977
  6074 ;; Return value:  Size  Location     Type
  6075 ;;                  1    wreg      enum E22977
  6076 ;; Registers used:
  6077 ;;		wreg, fsr2l, fsr2h, status,2, status,0, pcl, pclath, pclatu, tosl, prodl, prodh, cstack
  6078 ;; Tracked objects:
  6079 ;;		On entry : 0/0
  6080 ;;		On exit  : 0/0
  6081 ;;		Unchanged: 0/0
  6082 ;; Data sizes:     COMRAM   BANK0   BANK1   BANK2   BANK3   BANK4   BANK5   BANK6   BANK7   BANK8   BANK9  BANK10  BANK1
      +1  BANK12  BANK13  BANK14  BANK15
  6083 ;;      Params:         0       0       0       0       0       0       0       0       0       0       0       0       
      +0       0       0       0       0
  6084 ;;      Locals:         1       0       0       0       0       0       0       0       0       0       0       0       
      +0       0       0       0       0
  6085 ;;      Temps:          2       0       0       0       0       0       0       0       0       0       0       0       
      +0       0       0       0       0
  6086 ;;      Totals:         3       0       0       0       0       0       0       0       0       0       0       0       
      +0       0       0       0       0
  6087 ;;Total ram usage:        3 bytes
  6088 ;; Hardware stack levels used: 1
  6089 ;; Hardware stack levels required when called: 7
  6090 ;; This function calls:
  6091 ;;		_I2C1_DO_RX_EMPTY
  6092 ;;		_I2C1_MasterGetRxData
  6093 ;;		_I2C1_MasterIsRxBufFull
  6094 ;; This function is called by:
  6095 ;;		_I2C1_MasterFsm
  6096 ;; This function uses a non-reentrant model
  6097 ;;
  6098                           
  6099                           	psect	text45
  6100   000998                     __ptext45:
  6101                           	callstack 0
  6102   000998                     _I2C1_DO_RX:
  6103                           	callstack 16
  6104   000998                     
  6105                           ;mcc_generated_files/i2c1_master.c: 438:     if(!I2C1_MasterIsRxBufFull())
  6106   000998  EC7D  F00C         	call	_I2C1_MasterIsRxBufFull	;wreg free
  6107   00099C  0900               	iorlw	0
  6108   00099E  A4D8               	btfss	status,2,c
  6109   0009A0  EFD4  F004         	goto	u1771
  6110   0009A4  EFD6  F004         	goto	u1770
  6111   0009A8                     u1771:
  6112   0009A8  EFD9  F004         	goto	l4221
  6113   0009AC                     u1770:
  6114   0009AC                     l4217:
  6115                           
  6116                           ;mcc_generated_files/i2c1_master.c: 439:     {;mcc_generated_files/i2c1_master.c: 440:  
      +                                 return I2C1_RX;
  6117   0009AC  0E04               	movlw	4
  6118   0009AE  EF1A  F005         	goto	l885
  6119   0009B2                     l4221:
  6120                           
  6121                           ;mcc_generated_files/i2c1_master.c: 442:     if(I2C1_Status.addressNackCheck)
  6122   0009B2  0100               	movlb	0	; () banked
  6123   0009B4  5183               	movf	(_I2C1_Status+35)& (0+255),w,b
  6124   0009B6  0B03               	andlw	3
  6125   0009B8  0900               	iorlw	0
  6126   0009BA  B4D8               	btfsc	status,2,c
  6127   0009BC  EFE2  F004         	goto	u1781
  6128   0009C0  EFE4  F004         	goto	u1780
  6129   0009C4                     u1781:
  6130   0009C4  EFF0  F004         	goto	l886
  6131   0009C8                     u1780:
  6132   0009C8                     
  6133                           ; BSR set to: 0
  6134                           ;mcc_generated_files/i2c1_master.c: 443:     {;mcc_generated_files/i2c1_master.c: 444:  
      +                                 I2C1_Status.addressNackCheck--;
  6135   0009C8  0E01               	movlw	1
  6136   0009CA  6E11               	movwf	??_I2C1_DO_RX^0,c
  6137   0009CC  5183               	movf	(_I2C1_Status+35)& (0+255),w,b
  6138   0009CE  0B03               	andlw	3
  6139   0009D0  6E12               	movwf	(??_I2C1_DO_RX+1)^0,c
  6140   0009D2  5011               	movf	??_I2C1_DO_RX^0,w,c
  6141   0009D4  5E12               	subwf	(??_I2C1_DO_RX+1)^0,f,c
  6142   0009D6  5183               	movf	(_I2C1_Status+35)& (0+255),w,b
  6143   0009D8  1812               	xorwf	(??_I2C1_DO_RX+1)^0,w,c
  6144   0009DA  0BFC               	andlw	-4
  6145   0009DC  1812               	xorwf	(??_I2C1_DO_RX+1)^0,w,c
  6146   0009DE  6F83               	movwf	(_I2C1_Status+35)& (0+255),b
  6147   0009E0                     l886:
  6148                           
  6149                           ; BSR set to: 0
  6150                           ;mcc_generated_files/i2c1_master.c: 447:     if(--I2C1_Status.data_length)
  6151   0009E0  077F               	decf	(_I2C1_Status+31)& (0+255),f,b
  6152   0009E2  A0D8               	btfss	status,0,c
  6153   0009E4  0780               	decf	(_I2C1_Status+32)& (0+255),f,b
  6154   0009E6  517F               	movf	(_I2C1_Status+31)& (0+255),w,b
  6155   0009E8  1180               	iorwf	(_I2C1_Status+32)& (0+255),w,b
  6156   0009EA  B4D8               	btfsc	status,2,c
  6157   0009EC  EFFA  F004         	goto	u1791
  6158   0009F0  EFFC  F004         	goto	u1790
  6159   0009F4                     u1791:
  6160   0009F4  EF0A  F005         	goto	l4235
  6161   0009F8                     u1790:
  6162   0009F8                     
  6163                           ; BSR set to: 0
  6164                           ;mcc_generated_files/i2c1_master.c: 448:     {;mcc_generated_files/i2c1_master.c: 449:  
      +                                 *I2C1_Status.data_ptr++ = I2C1_MasterGetRxData();
  6165   0009F8  EC1B  F00D         	call	_I2C1_MasterGetRxData	;wreg free
  6166   0009FC  0060  F1F7  FFD9   	movff	_I2C1_Status+29,fsr2l
  6167   000A02  0060  F1FB  FFDA   	movff	_I2C1_Status+30,fsr2h
  6168   000A08  6EDF               	movwf	indf2,c
  6169   000A0A  0100               	movlb	0	; () banked
  6170   000A0C  4B7D               	infsnz	(_I2C1_Status+29)& (0+255),f,b
  6171   000A0E  2B7E               	incf	(_I2C1_Status+30)& (0+255),f,b
  6172   000A10  EFD6  F004         	goto	l4217
  6173   000A14                     l4235:
  6174                           
  6175                           ; BSR set to: 0
  6176                           ;mcc_generated_files/i2c1_master.c: 453:     {;mcc_generated_files/i2c1_master.c: 454:  
      +                                 i2c1_fsm_states_t retFsmState = I2C1_DO_RX_EMPTY();
  6177   000A14  EC7B  F004         	call	_I2C1_DO_RX_EMPTY	;wreg free
  6178   000A18  6E13               	movwf	I2C1_DO_RX@retFsmState^0,c
  6179   000A1A                     
  6180                           ;mcc_generated_files/i2c1_master.c: 455:         *I2C1_Status.data_ptr++ = I2C1_MasterGe
      +                          tRxData();
  6181   000A1A  EC1B  F00D         	call	_I2C1_MasterGetRxData	;wreg free
  6182   000A1E  0060  F1F7  FFD9   	movff	_I2C1_Status+29,fsr2l
  6183   000A24  0060  F1FB  FFDA   	movff	_I2C1_Status+30,fsr2h
  6184   000A2A  6EDF               	movwf	indf2,c
  6185   000A2C  0100               	movlb	0	; () banked
  6186   000A2E  4B7D               	infsnz	(_I2C1_Status+29)& (0+255),f,b
  6187   000A30  2B7E               	incf	(_I2C1_Status+30)& (0+255),f,b
  6188   000A32                     
  6189                           ; BSR set to: 0
  6190                           ;mcc_generated_files/i2c1_master.c: 456:         return retFsmState;
  6191   000A32  5013               	movf	I2C1_DO_RX@retFsmState^0,w,c
  6192   000A34                     l885:
  6193   000A34  0012               	return		;funcret
  6194   000A36                     __end_of_I2C1_DO_RX:
  6195                           	callstack 0
  6196                           
  6197 ;; *************** function _I2C1_DO_TX *****************
  6198 ;; Defined at:
  6199 ;;		line 403 in file "mcc_generated_files/i2c1_master.c"
  6200 ;; Parameters:    Size  Location     Type
  6201 ;;		None
  6202 ;; Auto vars:     Size  Location     Type
  6203 ;;  retFsmState     1   19[COMRAM] enum E22977
  6204 ;;  dataTx          1   18[COMRAM] unsigned char 
  6205 ;; Return value:  Size  Location     Type
  6206 ;;                  1    wreg      enum E22977
  6207 ;; Registers used:
  6208 ;;		wreg, fsr2l, fsr2h, status,2, status,0, pcl, pclath, pclatu, tosl, prodl, prodh, cstack
  6209 ;; Tracked objects:
  6210 ;;		On entry : 0/0
  6211 ;;		On exit  : 0/0
  6212 ;;		Unchanged: 0/0
  6213 ;; Data sizes:     COMRAM   BANK0   BANK1   BANK2   BANK3   BANK4   BANK5   BANK6   BANK7   BANK8   BANK9  BANK10  BANK1
      +1  BANK12  BANK13  BANK14  BANK15
  6214 ;;      Params:         0       0       0       0       0       0       0       0       0       0       0       0       
      +0       0       0       0       0
  6215 ;;      Locals:         4       0       0       0       0       0       0       0       0       0       0       0       
      +0       0       0       0       0
  6216 ;;      Temps:          2       0       0       0       0       0       0       0       0       0       0       0       
      +0       0       0       0       0
  6217 ;;      Totals:         6       0       0       0       0       0       0       0       0       0       0       0       
      +0       0       0       0       0
  6218 ;;Total ram usage:        6 bytes
  6219 ;; Hardware stack levels used: 1
  6220 ;; Hardware stack levels required when called: 9
  6221 ;; This function calls:
  6222 ;;		NULL
  6223 ;;		_I2C1_CallbackReturnReset
  6224 ;;		_I2C1_CallbackReturnStop
  6225 ;;		_I2C1_DO_SEND_RESTART_READ
  6226 ;;		_I2C1_DO_SEND_RESTART_WRITE
  6227 ;;		_I2C1_DO_TX_EMPTY
  6228 ;;		_I2C1_MasterIsNack
  6229 ;;		_I2C1_MasterIsTxBufEmpty
  6230 ;;		_I2C1_MasterSendTxData
  6231 ;;		_rd1RegCompleteHandler
  6232 ;;		_rd2RegCompleteHandler
  6233 ;;		_rdBlkRegCompleteHandler
  6234 ;;		_wr1RegCompleteHandler
  6235 ;;		_wr2RegCompleteHandler
  6236 ;; This function is called by:
  6237 ;;		_I2C1_MasterFsm
  6238 ;; This function uses a non-reentrant model
  6239 ;;
  6240                           
  6241                           	psect	text46
  6242   0004B8                     __ptext46:
  6243                           	callstack 0
  6244   0004B8                     _I2C1_DO_TX:
  6245                           	callstack 14
  6246   0004B8                     
  6247                           ;mcc_generated_files/i2c1_master.c: 405:     if(I2C1_MasterIsNack())
  6248   0004B8  EC72  F00C         	call	_I2C1_MasterIsNack	;wreg free
  6249   0004BC  0900               	iorlw	0
  6250   0004BE  B4D8               	btfsc	status,2,c
  6251   0004C0  EF64  F002         	goto	u1721
  6252   0004C4  EF66  F002         	goto	u1720
  6253   0004C8                     u1721:
  6254   0004C8  EFA0  F002         	goto	l4181
  6255   0004CC                     u1720:
  6256   0004CC  EF73  F002         	goto	l4179
  6257   0004D0                     l4165:
  6258                           
  6259                           ;mcc_generated_files/i2c1_master.c: 410:                 return I2C1_DO_SEND_RESTART_REA
      +                          D();
  6260   0004D0  ECC0  F00C         	call	_I2C1_DO_SEND_RESTART_READ	;wreg free
  6261   0004D4  EFEC  F002         	goto	l868
  6262   0004D8                     l4169:
  6263                           
  6264                           ;mcc_generated_files/i2c1_master.c: 412:                   return I2C1_DO_SEND_RESTART_W
      +                          RITE();
  6265   0004D8  EC2F  F00D         	call	_I2C1_DO_SEND_RESTART_WRITE	;wreg free
  6266   0004DC  EFEC  F002         	goto	l868
  6267   0004E0                     l4173:
  6268                           
  6269                           ;mcc_generated_files/i2c1_master.c: 416:                 return I2C1_IDLE;
  6270   0004E0  0E00               	movlw	0
  6271   0004E2  EFEC  F002         	goto	l868
  6272   0004E6                     l4179:
  6273   0004E6  C072  F00C         	movff	_I2C1_Status+18,I2C1_CallbackReturnReset@funPtr
  6274   0004EA  C073  F00D         	movff	_I2C1_Status+19,I2C1_CallbackReturnReset@funPtr+1
  6275   0004EE  D802               	call	u1738
  6276   0004F0  EF84  F002         	goto	u1739
  6277   0004F4                     u1738:
  6278   0004F4  0005               	push	
  6279   0004F6  6EFA               	movwf	pclath,c
  6280   0004F8  0100               	movlb	0	; () banked
  6281   0004FA  5166               	movf	(_I2C1_Status+6)& (0+255),w,b
  6282   0004FC  6EFD               	movwf	tosl,c
  6283   0004FE  5167               	movf	(_I2C1_Status+7)& (0+255),w,b
  6284   000500  6EFE               	movwf	tosh,c
  6285   000502  6AFF               	clrf	tosu,c
  6286   000504  50FA               	movf	pclath,w,c
  6287   000506  0012               	return		;indir
  6288   000508                     u1739:
  6289   000508  6E0F               	movwf	??_I2C1_DO_TX^0,c
  6290   00050A  6A10               	clrf	(??_I2C1_DO_TX+1)^0,c
  6291                           
  6292                           ; Switch on 2 bytes has been partitioned into a top level switch of size 1, and 1 sub-sw
      +                          itches
  6293                           ; Switch size 1, requested type "simple"
  6294                           ; Number of cases is 1, Range of values is 0 to 0
  6295                           ; switch strategies available:
  6296                           ; Name         Instructions Cycles
  6297                           ; simple_byte            4     3 (average)
  6298                           ;	Chosen strategy is simple_byte
  6299   00050C  5010               	movf	(??_I2C1_DO_TX+1)^0,w,c
  6300   00050E  0A00               	xorlw	0	; case 0
  6301   000510  B4D8               	btfsc	status,2,c
  6302   000512  EF8D  F002         	goto	l5361
  6303   000516  EF70  F002         	goto	l4173
  6304   00051A                     l5361:
  6305                           
  6306                           ; Switch size 1, requested type "simple"
  6307                           ; Number of cases is 4, Range of values is 1 to 4
  6308                           ; switch strategies available:
  6309                           ; Name         Instructions Cycles
  6310                           ; simple_byte           13     7 (average)
  6311                           ;	Chosen strategy is simple_byte
  6312   00051A  500F               	movf	??_I2C1_DO_TX^0,w,c
  6313   00051C  0A01               	xorlw	1	; case 1
  6314   00051E  B4D8               	btfsc	status,2,c
  6315   000520  EF70  F002         	goto	l4173
  6316   000524  0A03               	xorlw	3	; case 2
  6317   000526  B4D8               	btfsc	status,2,c
  6318   000528  EF68  F002         	goto	l4165
  6319   00052C  0A01               	xorlw	1	; case 3
  6320   00052E  B4D8               	btfsc	status,2,c
  6321   000530  EF6C  F002         	goto	l4169
  6322   000534  0A07               	xorlw	7	; case 4
  6323   000536  B4D8               	btfsc	status,2,c
  6324   000538  EF70  F002         	goto	l4173
  6325   00053C  EF70  F002         	goto	l4173
  6326   000540                     l4181:
  6327   000540  EC67  F00C         	call	_I2C1_MasterIsTxBufEmpty	;wreg free
  6328   000544  0900               	iorlw	0
  6329   000546  B4D8               	btfsc	status,2,c
  6330   000548  EFA8  F002         	goto	u1741
  6331   00054C  EFAA  F002         	goto	u1740
  6332   000550                     u1741:
  6333   000550  EFEB  F002         	goto	l4207
  6334   000554                     u1740:
  6335   000554                     
  6336                           ;mcc_generated_files/i2c1_master.c: 420:     {;mcc_generated_files/i2c1_master.c: 421:  
      +                                 if(I2C1_Status.addressNackCheck)
  6337   000554  0100               	movlb	0	; () banked
  6338   000556  5183               	movf	(_I2C1_Status+35)& (0+255),w,b
  6339   000558  0B03               	andlw	3
  6340   00055A  0900               	iorlw	0
  6341   00055C  B4D8               	btfsc	status,2,c
  6342   00055E  EFB3  F002         	goto	u1751
  6343   000562  EFB5  F002         	goto	u1750
  6344   000566                     u1751:
  6345   000566  EFC1  F002         	goto	l4187
  6346   00056A                     u1750:
  6347   00056A                     
  6348                           ; BSR set to: 0
  6349                           ;mcc_generated_files/i2c1_master.c: 422:         {;mcc_generated_files/i2c1_master.c: 42
      +                          3:             I2C1_Status.addressNackCheck--;
  6350   00056A  0E01               	movlw	1
  6351   00056C  6E0F               	movwf	??_I2C1_DO_TX^0,c
  6352   00056E  5183               	movf	(_I2C1_Status+35)& (0+255),w,b
  6353   000570  0B03               	andlw	3
  6354   000572  6E10               	movwf	(??_I2C1_DO_TX+1)^0,c
  6355   000574  500F               	movf	??_I2C1_DO_TX^0,w,c
  6356   000576  5E10               	subwf	(??_I2C1_DO_TX+1)^0,f,c
  6357   000578  5183               	movf	(_I2C1_Status+35)& (0+255),w,b
  6358   00057A  1810               	xorwf	(??_I2C1_DO_TX+1)^0,w,c
  6359   00057C  0BFC               	andlw	-4
  6360   00057E  1810               	xorwf	(??_I2C1_DO_TX+1)^0,w,c
  6361   000580  6F83               	movwf	(_I2C1_Status+35)& (0+255),b
  6362   000582                     l4187:
  6363                           
  6364                           ; BSR set to: 0
  6365                           ;mcc_generated_files/i2c1_master.c: 425:         uint8_t dataTx = *I2C1_Status.data_ptr+
      +                          +;
  6366   000582  0060  F1F7  FFD9   	movff	_I2C1_Status+29,fsr2l
  6367   000588  0060  F1FB  FFDA   	movff	_I2C1_Status+30,fsr2h
  6368   00058E  50DF               	movf	indf2,w,c
  6369   000590  6E13               	movwf	I2C1_DO_TX@dataTx^0,c
  6370   000592                     
  6371                           ; BSR set to: 0
  6372   000592  4B7D               	infsnz	(_I2C1_Status+29)& (0+255),f,b
  6373   000594  2B7E               	incf	(_I2C1_Status+30)& (0+255),f,b
  6374   000596                     
  6375                           ; BSR set to: 0
  6376                           ;mcc_generated_files/i2c1_master.c: 426:         i2c1_fsm_states_t retFsmState = (--I2C1
      +                          _Status.data_length)?I2C1_TX:I2C1_DO_TX_EMPTY();
  6377   000596  077F               	decf	(_I2C1_Status+31)& (0+255),f,b
  6378   000598  A0D8               	btfss	status,0,c
  6379   00059A  0780               	decf	(_I2C1_Status+32)& (0+255),f,b
  6380   00059C  517F               	movf	(_I2C1_Status+31)& (0+255),w,b
  6381   00059E  1180               	iorwf	(_I2C1_Status+32)& (0+255),w,b
  6382   0005A0  A4D8               	btfss	status,2,c
  6383   0005A2  EFD5  F002         	goto	u1761
  6384   0005A6  EFD7  F002         	goto	u1760
  6385   0005AA                     u1761:
  6386   0005AA  EFDF  F002         	goto	l4195
  6387   0005AE                     u1760:
  6388   0005AE                     
  6389                           ; BSR set to: 0
  6390   0005AE  EC2E  F006         	call	_I2C1_DO_TX_EMPTY	;wreg free
  6391   0005B2  6E0F               	movwf	??_I2C1_DO_TX^0,c
  6392   0005B4  500F               	movf	??_I2C1_DO_TX^0,w,c
  6393   0005B6  6E11               	movwf	_I2C1_DO_TX$1983^0,c
  6394   0005B8  6A12               	clrf	(_I2C1_DO_TX$1983+1)^0,c
  6395   0005BA  EFE3  F002         	goto	l4197
  6396   0005BE                     l4195:
  6397                           
  6398                           ; BSR set to: 0
  6399   0005BE  0E00               	movlw	0
  6400   0005C0  6E12               	movwf	(_I2C1_DO_TX$1983+1)^0,c
  6401   0005C2  0E03               	movlw	3
  6402   0005C4  6E11               	movwf	_I2C1_DO_TX$1983^0,c
  6403   0005C6                     l4197:
  6404   0005C6  C011  F014         	movff	_I2C1_DO_TX$1983,I2C1_DO_TX@retFsmState
  6405   0005CA                     
  6406                           ;mcc_generated_files/i2c1_master.c: 427:         I2C1_MasterSendTxData(dataTx);
  6407   0005CA  5013               	movf	I2C1_DO_TX@dataTx^0,w,c
  6408   0005CC  ECD8  F00C         	call	_I2C1_MasterSendTxData
  6409   0005D0                     
  6410                           ;mcc_generated_files/i2c1_master.c: 428:         return retFsmState;
  6411   0005D0  5014               	movf	I2C1_DO_TX@retFsmState^0,w,c
  6412   0005D2  EFEC  F002         	goto	l868
  6413   0005D6                     l4207:
  6414                           
  6415                           ;mcc_generated_files/i2c1_master.c: 431:     {;mcc_generated_files/i2c1_master.c: 432:  
      +                                 return I2C1_TX;
  6416   0005D6  0E03               	movlw	3
  6417   0005D8                     l868:
  6418   0005D8  0012               	return		;funcret
  6419   0005DA                     __end_of_I2C1_DO_TX:
  6420                           	callstack 0
  6421                           
  6422 ;; *************** function _I2C1_DO_SEND_ADR_WRITE *****************
  6423 ;; Defined at:
  6424 ;;		line 396 in file "mcc_generated_files/i2c1_master.c"
  6425 ;; Parameters:    Size  Location     Type
  6426 ;;		None
  6427 ;; Auto vars:     Size  Location     Type
  6428 ;;		None
  6429 ;; Return value:  Size  Location     Type
  6430 ;;                  1    wreg      enum E22977
  6431 ;; Registers used:
  6432 ;;		wreg, status,2, status,0, cstack
  6433 ;; Tracked objects:
  6434 ;;		On entry : 0/0
  6435 ;;		On exit  : 0/0
  6436 ;;		Unchanged: 0/0
  6437 ;; Data sizes:     COMRAM   BANK0   BANK1   BANK2   BANK3   BANK4   BANK5   BANK6   BANK7   BANK8   BANK9  BANK10  BANK1
      +1  BANK12  BANK13  BANK14  BANK15
  6438 ;;      Params:         0       0       0       0       0       0       0       0       0       0       0       0       
      +0       0       0       0       0
  6439 ;;      Locals:         0       0       0       0       0       0       0       0       0       0       0       0       
      +0       0       0       0       0
  6440 ;;      Temps:          0       0       0       0       0       0       0       0       0       0       0       0       
      +0       0       0       0       0
  6441 ;;      Totals:         0       0       0       0       0       0       0       0       0       0       0       0       
      +0       0       0       0       0
  6442 ;;Total ram usage:        0 bytes
  6443 ;; Hardware stack levels used: 1
  6444 ;; Hardware stack levels required when called: 4
  6445 ;; This function calls:
  6446 ;;		_I2C1_MasterSendTxData
  6447 ;; This function is called by:
  6448 ;;		_I2C1_MasterOperation
  6449 ;;		_I2C1_MasterFsm
  6450 ;; This function uses a non-reentrant model
  6451 ;;
  6452                           
  6453                           	psect	text47
  6454   0018B8                     __ptext47:
  6455                           	callstack 0
  6456   0018B8                     _I2C1_DO_SEND_ADR_WRITE:
  6457                           	callstack 19
  6458   0018B8                     
  6459                           ;mcc_generated_files/i2c1_master.c: 398:     I2C1_Status.addressNackCheck = 2;
  6460   0018B8  0100               	movlb	0	; () banked
  6461   0018BA  5183               	movf	(_I2C1_Status+35)& (0+255),w,b
  6462   0018BC  0BFC               	andlw	-4
  6463   0018BE  0902               	iorlw	2
  6464   0018C0  6F83               	movwf	(_I2C1_Status+35)& (0+255),b
  6465   0018C2                     
  6466                           ; BSR set to: 0
  6467                           ;mcc_generated_files/i2c1_master.c: 399:     I2C1_MasterSendTxData((uint8_t) (I2C1_Statu
      +                          s.address << 1));
  6468   0018C2  517C               	movf	(_I2C1_Status+28)& (0+255),w,b
  6469   0018C4  257C               	addwf	(_I2C1_Status+28)& (0+255),w,b
  6470   0018C6  ECD8  F00C         	call	_I2C1_MasterSendTxData
  6471   0018CA                     
  6472                           ;mcc_generated_files/i2c1_master.c: 400:     return I2C1_TX;
  6473   0018CA  0E03               	movlw	3
  6474   0018CC  0012               	return		;funcret
  6475   0018CE                     __end_of_I2C1_DO_SEND_ADR_WRITE:
  6476                           	callstack 0
  6477                           
  6478 ;; *************** function _I2C1_DO_SEND_ADR_READ *****************
  6479 ;; Defined at:
  6480 ;;		line 385 in file "mcc_generated_files/i2c1_master.c"
  6481 ;; Parameters:    Size  Location     Type
  6482 ;;		None
  6483 ;; Auto vars:     Size  Location     Type
  6484 ;;		None
  6485 ;; Return value:  Size  Location     Type
  6486 ;;                  1    wreg      enum E22977
  6487 ;; Registers used:
  6488 ;;		wreg, fsr2l, fsr2h, status,2, status,0, pcl, pclath, pclatu, tosl, prodl, prodh, cstack
  6489 ;; Tracked objects:
  6490 ;;		On entry : 0/0
  6491 ;;		On exit  : 0/0
  6492 ;;		Unchanged: 0/0
  6493 ;; Data sizes:     COMRAM   BANK0   BANK1   BANK2   BANK3   BANK4   BANK5   BANK6   BANK7   BANK8   BANK9  BANK10  BANK1
      +1  BANK12  BANK13  BANK14  BANK15
  6494 ;;      Params:         0       0       0       0       0       0       0       0       0       0       0       0       
      +0       0       0       0       0
  6495 ;;      Locals:         0       0       0       0       0       0       0       0       0       0       0       0       
      +0       0       0       0       0
  6496 ;;      Temps:          0       0       0       0       0       0       0       0       0       0       0       0       
      +0       0       0       0       0
  6497 ;;      Totals:         0       0       0       0       0       0       0       0       0       0       0       0       
      +0       0       0       0       0
  6498 ;;Total ram usage:        0 bytes
  6499 ;; Hardware stack levels used: 1
  6500 ;; Hardware stack levels required when called: 7
  6501 ;; This function calls:
  6502 ;;		_I2C1_DO_RX_EMPTY
  6503 ;;		_I2C1_MasterSendTxData
  6504 ;; This function is called by:
  6505 ;;		_I2C1_MasterOperation
  6506 ;;		_I2C1_DO_SEND_RESTART_READ
  6507 ;;		_I2C1_MasterFsm
  6508 ;; This function uses a non-reentrant model
  6509 ;;
  6510                           
  6511                           	psect	text48
  6512   0015FA                     __ptext48:
  6513                           	callstack 0
  6514   0015FA                     _I2C1_DO_SEND_ADR_READ:
  6515                           	callstack 14
  6516   0015FA                     
  6517                           ;mcc_generated_files/i2c1_master.c: 387:     I2C1_Status.addressNackCheck = 2;
  6518   0015FA  0100               	movlb	0	; () banked
  6519   0015FC  5183               	movf	(_I2C1_Status+35)& (0+255),w,b
  6520   0015FE  0BFC               	andlw	-4
  6521   001600  0902               	iorlw	2
  6522   001602  6F83               	movwf	(_I2C1_Status+35)& (0+255),b
  6523   001604                     
  6524                           ; BSR set to: 0
  6525                           ;mcc_generated_files/i2c1_master.c: 388:     if(I2C1_Status.data_length == 1)
  6526   001604  057F               	decf	(_I2C1_Status+31)& (0+255),w,b
  6527   001606  1180               	iorwf	(_I2C1_Status+32)& (0+255),w,b
  6528   001608  A4D8               	btfss	status,2,c
  6529   00160A  EF09  F00B         	goto	u1601
  6530   00160E  EF0B  F00B         	goto	u1600
  6531   001612                     u1601:
  6532   001612  EF0D  F00B         	goto	l4023
  6533   001616                     u1600:
  6534   001616                     
  6535                           ; BSR set to: 0
  6536                           ;mcc_generated_files/i2c1_master.c: 389:     {;mcc_generated_files/i2c1_master.c: 390:  
      +                                 I2C1_DO_RX_EMPTY();
  6537   001616  EC7B  F004         	call	_I2C1_DO_RX_EMPTY	;wreg free
  6538   00161A                     l4023:
  6539                           
  6540                           ;mcc_generated_files/i2c1_master.c: 392:     I2C1_MasterSendTxData((uint8_t) (I2C1_Statu
      +                          s.address << 1 | 1));
  6541   00161A  80D8               	bsf	status,0,c
  6542   00161C  0100               	movlb	0	; () banked
  6543   00161E  357C               	rlcf	(_I2C1_Status+28)& (0+255),w,b
  6544   001620  ECD8  F00C         	call	_I2C1_MasterSendTxData
  6545   001624                     
  6546                           ;mcc_generated_files/i2c1_master.c: 393:     return I2C1_RX;
  6547   001624  0E04               	movlw	4
  6548   001626  0012               	return		;funcret
  6549   001628                     __end_of_I2C1_DO_SEND_ADR_READ:
  6550                           	callstack 0
  6551                           
  6552 ;; *************** function _I2C1_DO_IDLE *****************
  6553 ;; Defined at:
  6554 ;;		line 378 in file "mcc_generated_files/i2c1_master.c"
  6555 ;; Parameters:    Size  Location     Type
  6556 ;;		None
  6557 ;; Auto vars:     Size  Location     Type
  6558 ;;		None
  6559 ;; Return value:  Size  Location     Type
  6560 ;;                  1    wreg      enum E22977
  6561 ;; Registers used:
  6562 ;;		wreg, status,2
  6563 ;; Tracked objects:
  6564 ;;		On entry : 0/0
  6565 ;;		On exit  : 0/0
  6566 ;;		Unchanged: 0/0
  6567 ;; Data sizes:     COMRAM   BANK0   BANK1   BANK2   BANK3   BANK4   BANK5   BANK6   BANK7   BANK8   BANK9  BANK10  BANK1
      +1  BANK12  BANK13  BANK14  BANK15
  6568 ;;      Params:         0       0       0       0       0       0       0       0       0       0       0       0       
      +0       0       0       0       0
  6569 ;;      Locals:         0       0       0       0       0       0       0       0       0       0       0       0       
      +0       0       0       0       0
  6570 ;;      Temps:          0       0       0       0       0       0       0       0       0       0       0       0       
      +0       0       0       0       0
  6571 ;;      Totals:         0       0       0       0       0       0       0       0       0       0       0       0       
      +0       0       0       0       0
  6572 ;;Total ram usage:        0 bytes
  6573 ;; Hardware stack levels used: 1
  6574 ;; Hardware stack levels required when called: 3
  6575 ;; This function calls:
  6576 ;;		Nothing
  6577 ;; This function is called by:
  6578 ;;		_I2C1_DO_RX_NACK_STOP
  6579 ;;		_I2C1_MasterFsm
  6580 ;; This function uses a non-reentrant model
  6581 ;;
  6582                           
  6583                           	psect	text49
  6584   00198E                     __ptext49:
  6585                           	callstack 0
  6586   00198E                     _I2C1_DO_IDLE:
  6587                           	callstack 19
  6588   00198E                     
  6589                           ;mcc_generated_files/i2c1_master.c: 380:     I2C1_Status.busy = 0;
  6590   00198E  0100               	movlb	0	; () banked
  6591   001990  9583               	bcf	(_I2C1_Status+35)& (0+255),2,b
  6592   001992                     
  6593                           ; BSR set to: 0
  6594                           ;mcc_generated_files/i2c1_master.c: 381:     I2C1_Status.error = I2C1_NOERR;
  6595   001992  0E00               	movlw	0
  6596   001994  6F82               	movwf	(_I2C1_Status+34)& (0+255),b
  6597   001996                     
  6598                           ; BSR set to: 0
  6599                           ;mcc_generated_files/i2c1_master.c: 382:     return I2C1_RESET;
  6600   001996  0E0F               	movlw	15
  6601   001998                     
  6602                           ; BSR set to: 0
  6603   001998  0012               	return		;funcret
  6604   00199A                     __end_of_I2C1_DO_IDLE:
  6605                           	callstack 0
  6606                           
  6607 ;; *************** function _I2C1_DO_TX_ACK *****************
  6608 ;; Defined at:
  6609 ;;		line 538 in file "mcc_generated_files/i2c1_master.c"
  6610 ;; Parameters:    Size  Location     Type
  6611 ;;		None
  6612 ;; Auto vars:     Size  Location     Type
  6613 ;;		None
  6614 ;; Return value:  Size  Location     Type
  6615 ;;                  1    wreg      enum E22977
  6616 ;; Registers used:
  6617 ;;		wreg, cstack
  6618 ;; Tracked objects:
  6619 ;;		On entry : 0/0
  6620 ;;		On exit  : 0/0
  6621 ;;		Unchanged: 0/0
  6622 ;; Data sizes:     COMRAM   BANK0   BANK1   BANK2   BANK3   BANK4   BANK5   BANK6   BANK7   BANK8   BANK9  BANK10  BANK1
      +1  BANK12  BANK13  BANK14  BANK15
  6623 ;;      Params:         0       0       0       0       0       0       0       0       0       0       0       0       
      +0       0       0       0       0
  6624 ;;      Locals:         0       0       0       0       0       0       0       0       0       0       0       0       
      +0       0       0       0       0
  6625 ;;      Temps:          0       0       0       0       0       0       0       0       0       0       0       0       
      +0       0       0       0       0
  6626 ;;      Totals:         0       0       0       0       0       0       0       0       0       0       0       0       
      +0       0       0       0       0
  6627 ;;Total ram usage:        0 bytes
  6628 ;; Hardware stack levels used: 1
  6629 ;; Hardware stack levels required when called: 4
  6630 ;; This function calls:
  6631 ;;		_I2C1_MasterSendAck
  6632 ;; This function is called by:
  6633 ;;		_I2C1_MasterFsm
  6634 ;; This function uses a non-reentrant model
  6635 ;;
  6636                           
  6637                           	psect	text50
  6638   001A0E                     __ptext50:
  6639                           	callstack 0
  6640   001A0E                     _I2C1_DO_TX_ACK:
  6641                           	callstack 19
  6642   001A0E                     
  6643                           ;mcc_generated_files/i2c1_master.c: 540:     I2C1_MasterSendAck();
  6644   001A0E  EC18  F00D         	call	_I2C1_MasterSendAck	;wreg free
  6645   001A12                     
  6646                           ;mcc_generated_files/i2c1_master.c: 541:     return I2C1_TX;
  6647   001A12  0E03               	movlw	3
  6648   001A14  0012               	return		;funcret
  6649   001A16                     __end_of_I2C1_DO_TX_ACK:
  6650                           	callstack 0
  6651                           
  6652 ;; *************** function _I2C1_MasterIsTxBufEmpty *****************
  6653 ;; Defined at:
  6654 ;;		line 736 in file "mcc_generated_files/i2c1_master.c"
  6655 ;; Parameters:    Size  Location     Type
  6656 ;;		None
  6657 ;; Auto vars:     Size  Location     Type
  6658 ;;		None
  6659 ;; Return value:  Size  Location     Type
  6660 ;;                  1    wreg      _Bool 
  6661 ;; Registers used:
  6662 ;;		wreg
  6663 ;; Tracked objects:
  6664 ;;		On entry : 0/0
  6665 ;;		On exit  : 0/0
  6666 ;;		Unchanged: 0/0
  6667 ;; Data sizes:     COMRAM   BANK0   BANK1   BANK2   BANK3   BANK4   BANK5   BANK6   BANK7   BANK8   BANK9  BANK10  BANK1
      +1  BANK12  BANK13  BANK14  BANK15
  6668 ;;      Params:         0       0       0       0       0       0       0       0       0       0       0       0       
      +0       0       0       0       0
  6669 ;;      Locals:         0       0       0       0       0       0       0       0       0       0       0       0       
      +0       0       0       0       0
  6670 ;;      Temps:          0       0       0       0       0       0       0       0       0       0       0       0       
      +0       0       0       0       0
  6671 ;;      Totals:         0       0       0       0       0       0       0       0       0       0       0       0       
      +0       0       0       0       0
  6672 ;;Total ram usage:        0 bytes
  6673 ;; Hardware stack levels used: 1
  6674 ;; Hardware stack levels required when called: 3
  6675 ;; This function calls:
  6676 ;;		Nothing
  6677 ;; This function is called by:
  6678 ;;		_I2C1_DO_TX
  6679 ;; This function uses a non-reentrant model
  6680 ;;
  6681                           
  6682                           	psect	text51
  6683   0018CE                     __ptext51:
  6684                           	callstack 0
  6685   0018CE                     _I2C1_MasterIsTxBufEmpty:
  6686                           	callstack 19
  6687   0018CE                     
  6688                           ;mcc_generated_files/i2c1_master.c: 738:     return I2C1STAT1bits.TXBE;
  6689   0018CE  013D               	movlb	61	; () banked
  6690   0018D0  BB78               	btfsc	120,5,b	;volatile
  6691   0018D2  EF6D  F00C         	goto	u1651
  6692   0018D6  EF70  F00C         	goto	u1650
  6693   0018DA                     u1651:
  6694   0018DA  0E01               	movlw	1
  6695   0018DC  EF71  F00C         	goto	u1656
  6696   0018E0                     u1650:
  6697   0018E0  0E00               	movlw	0
  6698   0018E2                     u1656:
  6699   0018E2                     
  6700                           ; BSR set to: 61
  6701   0018E2  0012               	return		;funcret
  6702   0018E4                     __end_of_I2C1_MasterIsTxBufEmpty:
  6703                           	callstack 0
  6704                           
  6705 ;; *************** function _I2C1_MasterIsNack *****************
  6706 ;; Defined at:
  6707 ;;		line 709 in file "mcc_generated_files/i2c1_master.c"
  6708 ;; Parameters:    Size  Location     Type
  6709 ;;		None
  6710 ;; Auto vars:     Size  Location     Type
  6711 ;;		None
  6712 ;; Return value:  Size  Location     Type
  6713 ;;                  1    wreg      _Bool 
  6714 ;; Registers used:
  6715 ;;		wreg
  6716 ;; Tracked objects:
  6717 ;;		On entry : 0/0
  6718 ;;		On exit  : 0/0
  6719 ;;		Unchanged: 0/0
  6720 ;; Data sizes:     COMRAM   BANK0   BANK1   BANK2   BANK3   BANK4   BANK5   BANK6   BANK7   BANK8   BANK9  BANK10  BANK1
      +1  BANK12  BANK13  BANK14  BANK15
  6721 ;;      Params:         0       0       0       0       0       0       0       0       0       0       0       0       
      +0       0       0       0       0
  6722 ;;      Locals:         0       0       0       0       0       0       0       0       0       0       0       0       
      +0       0       0       0       0
  6723 ;;      Temps:          0       0       0       0       0       0       0       0       0       0       0       0       
      +0       0       0       0       0
  6724 ;;      Totals:         0       0       0       0       0       0       0       0       0       0       0       0       
      +0       0       0       0       0
  6725 ;;Total ram usage:        0 bytes
  6726 ;; Hardware stack levels used: 1
  6727 ;; Hardware stack levels required when called: 3
  6728 ;; This function calls:
  6729 ;;		Nothing
  6730 ;; This function is called by:
  6731 ;;		_I2C1_MasterFsm
  6732 ;;		_I2C1_DO_TX
  6733 ;; This function uses a non-reentrant model
  6734 ;;
  6735                           
  6736                           	psect	text52
  6737   0018E4                     __ptext52:
  6738                           	callstack 0
  6739   0018E4                     _I2C1_MasterIsNack:
  6740                           	callstack 20
  6741   0018E4                     
  6742                           ;mcc_generated_files/i2c1_master.c: 711:     return I2C1CON1bits.ACKSTAT;
  6743   0018E4  013D               	movlb	61	; () banked
  6744   0018E6  BB74               	btfsc	116,5,b	;volatile
  6745   0018E8  EF78  F00C         	goto	u1611
  6746   0018EC  EF7B  F00C         	goto	u1610
  6747   0018F0                     u1611:
  6748   0018F0  0E01               	movlw	1
  6749   0018F2  EF7C  F00C         	goto	u1616
  6750   0018F6                     u1610:
  6751   0018F6  0E00               	movlw	0
  6752   0018F8                     u1616:
  6753   0018F8                     
  6754                           ; BSR set to: 61
  6755   0018F8  0012               	return		;funcret
  6756   0018FA                     __end_of_I2C1_MasterIsNack:
  6757                           	callstack 0
  6758                           
  6759 ;; *************** function _I2C1_MasterGetCounter *****************
  6760 ;; Defined at:
  6761 ;;		line 671 in file "mcc_generated_files/i2c1_master.c"
  6762 ;; Parameters:    Size  Location     Type
  6763 ;;		None
  6764 ;; Auto vars:     Size  Location     Type
  6765 ;;		None
  6766 ;; Return value:  Size  Location     Type
  6767 ;;                  1    wreg      unsigned char 
  6768 ;; Registers used:
  6769 ;;		wreg, status,2
  6770 ;; Tracked objects:
  6771 ;;		On entry : 0/0
  6772 ;;		On exit  : 0/0
  6773 ;;		Unchanged: 0/0
  6774 ;; Data sizes:     COMRAM   BANK0   BANK1   BANK2   BANK3   BANK4   BANK5   BANK6   BANK7   BANK8   BANK9  BANK10  BANK1
      +1  BANK12  BANK13  BANK14  BANK15
  6775 ;;      Params:         0       0       0       0       0       0       0       0       0       0       0       0       
      +0       0       0       0       0
  6776 ;;      Locals:         0       0       0       0       0       0       0       0       0       0       0       0       
      +0       0       0       0       0
  6777 ;;      Temps:          0       0       0       0       0       0       0       0       0       0       0       0       
      +0       0       0       0       0
  6778 ;;      Totals:         0       0       0       0       0       0       0       0       0       0       0       0       
      +0       0       0       0       0
  6779 ;;Total ram usage:        0 bytes
  6780 ;; Hardware stack levels used: 1
  6781 ;; Hardware stack levels required when called: 3
  6782 ;; This function calls:
  6783 ;;		Nothing
  6784 ;; This function is called by:
  6785 ;;		_I2C1_DO_SEND_STOP
  6786 ;; This function uses a non-reentrant model
  6787 ;;
  6788                           
  6789                           	psect	text53
  6790   001A1E                     __ptext53:
  6791                           	callstack 0
  6792   001A1E                     _I2C1_MasterGetCounter:
  6793                           	callstack 19
  6794   001A1E                     
  6795                           ;mcc_generated_files/i2c1_master.c: 673:     return I2C1CNT;
  6796   001A1E  013D               	movlb	61	; () banked
  6797   001A20  516C               	movf	108,w,b	;volatile
  6798   001A22                     
  6799                           ; BSR set to: 61
  6800   001A22  0012               	return		;funcret
  6801   001A24                     __end_of_I2C1_MasterGetCounter:
  6802                           	callstack 0
  6803                           
  6804 ;; *************** function _I2C1_MasterStop *****************
  6805 ;; Defined at:
  6806 ;;		line 703 in file "mcc_generated_files/i2c1_master.c"
  6807 ;; Parameters:    Size  Location     Type
  6808 ;;		None
  6809 ;; Auto vars:     Size  Location     Type
  6810 ;;		None
  6811 ;; Return value:  Size  Location     Type
  6812 ;;                  1    wreg      void 
  6813 ;; Registers used:
  6814 ;;		None
  6815 ;; Tracked objects:
  6816 ;;		On entry : 0/0
  6817 ;;		On exit  : 0/0
  6818 ;;		Unchanged: 0/0
  6819 ;; Data sizes:     COMRAM   BANK0   BANK1   BANK2   BANK3   BANK4   BANK5   BANK6   BANK7   BANK8   BANK9  BANK10  BANK1
      +1  BANK12  BANK13  BANK14  BANK15
  6820 ;;      Params:         0       0       0       0       0       0       0       0       0       0       0       0       
      +0       0       0       0       0
  6821 ;;      Locals:         0       0       0       0       0       0       0       0       0       0       0       0       
      +0       0       0       0       0
  6822 ;;      Temps:          0       0       0       0       0       0       0       0       0       0       0       0       
      +0       0       0       0       0
  6823 ;;      Totals:         0       0       0       0       0       0       0       0       0       0       0       0       
      +0       0       0       0       0
  6824 ;;Total ram usage:        0 bytes
  6825 ;; Hardware stack levels used: 1
  6826 ;; Hardware stack levels required when called: 3
  6827 ;; This function calls:
  6828 ;;		Nothing
  6829 ;; This function is called by:
  6830 ;;		_I2C1_DO_SEND_STOP
  6831 ;;		_I2C1_DO_RX_NACK_STOP
  6832 ;; This function uses a non-reentrant model
  6833 ;;
  6834                           
  6835                           	psect	text54
  6836   001A24                     __ptext54:
  6837                           	callstack 0
  6838   001A24                     _I2C1_MasterStop:
  6839                           	callstack 19
  6840   001A24                     
  6841                           ;mcc_generated_files/i2c1_master.c: 706:     I2C1CON0bits.S = 0;
  6842   001A24  013D               	movlb	61	; () banked
  6843   001A26  9B73               	bcf	115,5,b	;volatile
  6844   001A28                     
  6845                           ; BSR set to: 61
  6846   001A28  0012               	return		;funcret
  6847   001A2A                     __end_of_I2C1_MasterStop:
  6848                           	callstack 0
  6849                           
  6850 ;; *************** function _I2C1_MasterSendNack *****************
  6851 ;; Defined at:
  6852 ;;		line 719 in file "mcc_generated_files/i2c1_master.c"
  6853 ;; Parameters:    Size  Location     Type
  6854 ;;		None
  6855 ;; Auto vars:     Size  Location     Type
  6856 ;;		None
  6857 ;; Return value:  Size  Location     Type
  6858 ;;                  1    wreg      void 
  6859 ;; Registers used:
  6860 ;;		None
  6861 ;; Tracked objects:
  6862 ;;		On entry : 0/0
  6863 ;;		On exit  : 0/0
  6864 ;;		Unchanged: 0/0
  6865 ;; Data sizes:     COMRAM   BANK0   BANK1   BANK2   BANK3   BANK4   BANK5   BANK6   BANK7   BANK8   BANK9  BANK10  BANK1
      +1  BANK12  BANK13  BANK14  BANK15
  6866 ;;      Params:         0       0       0       0       0       0       0       0       0       0       0       0       
      +0       0       0       0       0
  6867 ;;      Locals:         0       0       0       0       0       0       0       0       0       0       0       0       
      +0       0       0       0       0
  6868 ;;      Temps:          0       0       0       0       0       0       0       0       0       0       0       0       
      +0       0       0       0       0
  6869 ;;      Totals:         0       0       0       0       0       0       0       0       0       0       0       0       
      +0       0       0       0       0
  6870 ;;Total ram usage:        0 bytes
  6871 ;; Hardware stack levels used: 1
  6872 ;; Hardware stack levels required when called: 3
  6873 ;; This function calls:
  6874 ;;		Nothing
  6875 ;; This function is called by:
  6876 ;;		_I2C1_DO_RX_NACK_STOP
  6877 ;;		_I2C1_DO_RX_NACK_RESTART
  6878 ;; This function uses a non-reentrant model
  6879 ;;
  6880                           
  6881                           	psect	text55
  6882   001A2A                     __ptext55:
  6883                           	callstack 0
  6884   001A2A                     _I2C1_MasterSendNack:
  6885                           	callstack 19
  6886   001A2A                     
  6887                           ;mcc_generated_files/i2c1_master.c: 721:     I2C1CON1bits.ACKDT = 1;
  6888   001A2A  013D               	movlb	61	; () banked
  6889   001A2C  8D74               	bsf	116,6,b	;volatile
  6890   001A2E                     
  6891                           ; BSR set to: 61
  6892   001A2E  0012               	return		;funcret
  6893   001A30                     __end_of_I2C1_MasterSendNack:
  6894                           	callstack 0
  6895                           
  6896 ;; *************** function _I2C1_MasterSendAck *****************
  6897 ;; Defined at:
  6898 ;;		line 714 in file "mcc_generated_files/i2c1_master.c"
  6899 ;; Parameters:    Size  Location     Type
  6900 ;;		None
  6901 ;; Auto vars:     Size  Location     Type
  6902 ;;		None
  6903 ;; Return value:  Size  Location     Type
  6904 ;;                  1    wreg      void 
  6905 ;; Registers used:
  6906 ;;		None
  6907 ;; Tracked objects:
  6908 ;;		On entry : 0/0
  6909 ;;		On exit  : 0/0
  6910 ;;		Unchanged: 0/0
  6911 ;; Data sizes:     COMRAM   BANK0   BANK1   BANK2   BANK3   BANK4   BANK5   BANK6   BANK7   BANK8   BANK9  BANK10  BANK1
      +1  BANK12  BANK13  BANK14  BANK15
  6912 ;;      Params:         0       0       0       0       0       0       0       0       0       0       0       0       
      +0       0       0       0       0
  6913 ;;      Locals:         0       0       0       0       0       0       0       0       0       0       0       0       
      +0       0       0       0       0
  6914 ;;      Temps:          0       0       0       0       0       0       0       0       0       0       0       0       
      +0       0       0       0       0
  6915 ;;      Totals:         0       0       0       0       0       0       0       0       0       0       0       0       
      +0       0       0       0       0
  6916 ;;Total ram usage:        0 bytes
  6917 ;; Hardware stack levels used: 1
  6918 ;; Hardware stack levels required when called: 3
  6919 ;; This function calls:
  6920 ;;		Nothing
  6921 ;; This function is called by:
  6922 ;;		_I2C1_DO_RX_ACK
  6923 ;;		_I2C1_DO_TX_ACK
  6924 ;; This function uses a non-reentrant model
  6925 ;;
  6926                           
  6927                           	psect	text56
  6928   001A30                     __ptext56:
  6929                           	callstack 0
  6930   001A30                     _I2C1_MasterSendAck:
  6931                           	callstack 19
  6932   001A30                     
  6933                           ;mcc_generated_files/i2c1_master.c: 716:     I2C1CON1bits.ACKDT = 0;
  6934   001A30  013D               	movlb	61	; () banked
  6935   001A32  9D74               	bcf	116,6,b	;volatile
  6936   001A34                     
  6937                           ; BSR set to: 61
  6938   001A34  0012               	return		;funcret
  6939   001A36                     __end_of_I2C1_MasterSendAck:
  6940                           	callstack 0
  6941                           
  6942 ;; *************** function _I2C1_MasterIsRxBufFull *****************
  6943 ;; Defined at:
  6944 ;;		line 731 in file "mcc_generated_files/i2c1_master.c"
  6945 ;; Parameters:    Size  Location     Type
  6946 ;;		None
  6947 ;; Auto vars:     Size  Location     Type
  6948 ;;		None
  6949 ;; Return value:  Size  Location     Type
  6950 ;;                  1    wreg      _Bool 
  6951 ;; Registers used:
  6952 ;;		wreg
  6953 ;; Tracked objects:
  6954 ;;		On entry : 0/0
  6955 ;;		On exit  : 0/0
  6956 ;;		Unchanged: 0/0
  6957 ;; Data sizes:     COMRAM   BANK0   BANK1   BANK2   BANK3   BANK4   BANK5   BANK6   BANK7   BANK8   BANK9  BANK10  BANK1
      +1  BANK12  BANK13  BANK14  BANK15
  6958 ;;      Params:         0       0       0       0       0       0       0       0       0       0       0       0       
      +0       0       0       0       0
  6959 ;;      Locals:         0       0       0       0       0       0       0       0       0       0       0       0       
      +0       0       0       0       0
  6960 ;;      Temps:          0       0       0       0       0       0       0       0       0       0       0       0       
      +0       0       0       0       0
  6961 ;;      Totals:         0       0       0       0       0       0       0       0       0       0       0       0       
      +0       0       0       0       0
  6962 ;;Total ram usage:        0 bytes
  6963 ;; Hardware stack levels used: 1
  6964 ;; Hardware stack levels required when called: 3
  6965 ;; This function calls:
  6966 ;;		Nothing
  6967 ;; This function is called by:
  6968 ;;		_I2C1_DO_RX
  6969 ;; This function uses a non-reentrant model
  6970 ;;
  6971                           
  6972                           	psect	text57
  6973   0018FA                     __ptext57:
  6974                           	callstack 0
  6975   0018FA                     _I2C1_MasterIsRxBufFull:
  6976                           	callstack 19
  6977   0018FA                     
  6978                           ;mcc_generated_files/i2c1_master.c: 733:     return I2C1STAT1bits.RXBF;
  6979   0018FA  013D               	movlb	61	; () banked
  6980   0018FC  B178               	btfsc	120,0,b	;volatile
  6981   0018FE  EF83  F00C         	goto	u1671
  6982   001902  EF86  F00C         	goto	u1670
  6983   001906                     u1671:
  6984   001906  0E01               	movlw	1
  6985   001908  EF87  F00C         	goto	u1676
  6986   00190C                     u1670:
  6987   00190C  0E00               	movlw	0
  6988   00190E                     u1676:
  6989   00190E                     
  6990                           ; BSR set to: 61
  6991   00190E  0012               	return		;funcret
  6992   001910                     __end_of_I2C1_MasterIsRxBufFull:
  6993                           	callstack 0
  6994                           
  6995 ;; *************** function _I2C1_MasterGetRxData *****************
  6996 ;; Defined at:
  6997 ;;		line 661 in file "mcc_generated_files/i2c1_master.c"
  6998 ;; Parameters:    Size  Location     Type
  6999 ;;		None
  7000 ;; Auto vars:     Size  Location     Type
  7001 ;;		None
  7002 ;; Return value:  Size  Location     Type
  7003 ;;                  1    wreg      unsigned char 
  7004 ;; Registers used:
  7005 ;;		wreg, status,2
  7006 ;; Tracked objects:
  7007 ;;		On entry : 0/0
  7008 ;;		On exit  : 0/0
  7009 ;;		Unchanged: 0/0
  7010 ;; Data sizes:     COMRAM   BANK0   BANK1   BANK2   BANK3   BANK4   BANK5   BANK6   BANK7   BANK8   BANK9  BANK10  BANK1
      +1  BANK12  BANK13  BANK14  BANK15
  7011 ;;      Params:         0       0       0       0       0       0       0       0       0       0       0       0       
      +0       0       0       0       0
  7012 ;;      Locals:         0       0       0       0       0       0       0       0       0       0       0       0       
      +0       0       0       0       0
  7013 ;;      Temps:          0       0       0       0       0       0       0       0       0       0       0       0       
      +0       0       0       0       0
  7014 ;;      Totals:         0       0       0       0       0       0       0       0       0       0       0       0       
      +0       0       0       0       0
  7015 ;;Total ram usage:        0 bytes
  7016 ;; Hardware stack levels used: 1
  7017 ;; Hardware stack levels required when called: 3
  7018 ;; This function calls:
  7019 ;;		Nothing
  7020 ;; This function is called by:
  7021 ;;		_I2C1_DO_RX
  7022 ;; This function uses a non-reentrant model
  7023 ;;
  7024                           
  7025                           	psect	text58
  7026   001A36                     __ptext58:
  7027                           	callstack 0
  7028   001A36                     _I2C1_MasterGetRxData:
  7029                           	callstack 19
  7030   001A36                     
  7031                           ;mcc_generated_files/i2c1_master.c: 663:     return I2C1RXB;
  7032   001A36  013D               	movlb	61	; () banked
  7033   001A38  516A               	movf	106,w,b	;volatile
  7034   001A3A                     
  7035                           ; BSR set to: 61
  7036   001A3A  0012               	return		;funcret
  7037   001A3C                     __end_of_I2C1_MasterGetRxData:
  7038                           	callstack 0
  7039                           
  7040 ;; *************** function _I2C1_MasterSendTxData *****************
  7041 ;; Defined at:
  7042 ;;		line 666 in file "mcc_generated_files/i2c1_master.c"
  7043 ;; Parameters:    Size  Location     Type
  7044 ;;  data            1    wreg     unsigned char 
  7045 ;; Auto vars:     Size  Location     Type
  7046 ;;  data            1    2[COMRAM] unsigned char 
  7047 ;; Return value:  Size  Location     Type
  7048 ;;                  1    wreg      void 
  7049 ;; Registers used:
  7050 ;;		wreg
  7051 ;; Tracked objects:
  7052 ;;		On entry : 0/0
  7053 ;;		On exit  : 0/0
  7054 ;;		Unchanged: 0/0
  7055 ;; Data sizes:     COMRAM   BANK0   BANK1   BANK2   BANK3   BANK4   BANK5   BANK6   BANK7   BANK8   BANK9  BANK10  BANK1
      +1  BANK12  BANK13  BANK14  BANK15
  7056 ;;      Params:         0       0       0       0       0       0       0       0       0       0       0       0       
      +0       0       0       0       0
  7057 ;;      Locals:         1       0       0       0       0       0       0       0       0       0       0       0       
      +0       0       0       0       0
  7058 ;;      Temps:          0       0       0       0       0       0       0       0       0       0       0       0       
      +0       0       0       0       0
  7059 ;;      Totals:         1       0       0       0       0       0       0       0       0       0       0       0       
      +0       0       0       0       0
  7060 ;;Total ram usage:        1 bytes
  7061 ;; Hardware stack levels used: 1
  7062 ;; Hardware stack levels required when called: 3
  7063 ;; This function calls:
  7064 ;;		Nothing
  7065 ;; This function is called by:
  7066 ;;		_I2C1_DO_SEND_ADR_READ
  7067 ;;		_I2C1_DO_SEND_ADR_WRITE
  7068 ;;		_I2C1_DO_TX
  7069 ;;		_I2C1_DO_SEND_STOP
  7070 ;; This function uses a non-reentrant model
  7071 ;;
  7072                           
  7073                           	psect	text59
  7074   0019B0                     __ptext59:
  7075                           	callstack 0
  7076   0019B0                     _I2C1_MasterSendTxData:
  7077                           	callstack 19
  7078                           
  7079                           ; BSR set to: 61
  7080                           ;incstack = 0
  7081                           ;I2C1_MasterSendTxData@data stored from wreg
  7082   0019B0  6E03               	movwf	I2C1_MasterSendTxData@data^0,c
  7083   0019B2                     
  7084                           ;mcc_generated_files/i2c1_master.c: 666: static __attribute__((inline)) void I2C1_Master
      +                          SendTxData(uint8_t data);mcc_generated_files/i2c1_master.c: 667: {;mcc_generated_files/i
      +                          2c1_master.c: 668:     I2C1TXB = data;
  7085   0019B2  0060  F00F  FD6B   	movff	I2C1_MasterSendTxData@data,15723	;volatile
  7086   0019B8  0012               	return		;funcret
  7087   0019BA                     __end_of_I2C1_MasterSendTxData:
  7088                           	callstack 0
  7089                           
  7090 ;; *************** function _I2C1_MasterSetCounter *****************
  7091 ;; Defined at:
  7092 ;;		line 676 in file "mcc_generated_files/i2c1_master.c"
  7093 ;; Parameters:    Size  Location     Type
  7094 ;;  counter         1    wreg     unsigned char 
  7095 ;; Auto vars:     Size  Location     Type
  7096 ;;  counter         1    2[COMRAM] unsigned char 
  7097 ;; Return value:  Size  Location     Type
  7098 ;;                  1    wreg      void 
  7099 ;; Registers used:
  7100 ;;		wreg
  7101 ;; Tracked objects:
  7102 ;;		On entry : 0/0
  7103 ;;		On exit  : 0/0
  7104 ;;		Unchanged: 0/0
  7105 ;; Data sizes:     COMRAM   BANK0   BANK1   BANK2   BANK3   BANK4   BANK5   BANK6   BANK7   BANK8   BANK9  BANK10  BANK1
      +1  BANK12  BANK13  BANK14  BANK15
  7106 ;;      Params:         0       0       0       0       0       0       0       0       0       0       0       0       
      +0       0       0       0       0
  7107 ;;      Locals:         1       0       0       0       0       0       0       0       0       0       0       0       
      +0       0       0       0       0
  7108 ;;      Temps:          0       0       0       0       0       0       0       0       0       0       0       0       
      +0       0       0       0       0
  7109 ;;      Totals:         1       0       0       0       0       0       0       0       0       0       0       0       
      +0       0       0       0       0
  7110 ;;Total ram usage:        1 bytes
  7111 ;; Hardware stack levels used: 1
  7112 ;; Hardware stack levels required when called: 3
  7113 ;; This function calls:
  7114 ;;		Nothing
  7115 ;; This function is called by:
  7116 ;;		_I2C1_MasterOperation
  7117 ;;		_I2C1_DO_TX_EMPTY
  7118 ;;		_I2C1_DO_RX_EMPTY
  7119 ;;		_I2C1_DO_SEND_RESTART_READ
  7120 ;;		_I2C1_DO_SEND_STOP
  7121 ;; This function uses a non-reentrant model
  7122 ;;
  7123                           
  7124                           	psect	text60
  7125   0019BA                     __ptext60:
  7126                           	callstack 0
  7127   0019BA                     _I2C1_MasterSetCounter:
  7128                           	callstack 19
  7129                           
  7130                           ;incstack = 0
  7131                           ;I2C1_MasterSetCounter@counter stored from wreg
  7132   0019BA  6E03               	movwf	I2C1_MasterSetCounter@counter^0,c
  7133   0019BC                     
  7134                           ;mcc_generated_files/i2c1_master.c: 676: static __attribute__((inline)) void I2C1_Master
      +                          SetCounter(uint8_t counter);mcc_generated_files/i2c1_master.c: 677: {;mcc_generated_file
      +                          s/i2c1_master.c: 678:     I2C1CNT = counter;
  7135   0019BC  0060  F00F  FD6C   	movff	I2C1_MasterSetCounter@counter,15724	;volatile
  7136   0019C2  0012               	return		;funcret
  7137   0019C4                     __end_of_I2C1_MasterSetCounter:
  7138                           	callstack 0
  7139                           
  7140 ;; *************** function _I2C1_MasterEnableRestart *****************
  7141 ;; Defined at:
  7142 ;;		line 691 in file "mcc_generated_files/i2c1_master.c"
  7143 ;; Parameters:    Size  Location     Type
  7144 ;;		None
  7145 ;; Auto vars:     Size  Location     Type
  7146 ;;		None
  7147 ;; Return value:  Size  Location     Type
  7148 ;;                  1    wreg      void 
  7149 ;; Registers used:
  7150 ;;		None
  7151 ;; Tracked objects:
  7152 ;;		On entry : 0/0
  7153 ;;		On exit  : 0/0
  7154 ;;		Unchanged: 0/0
  7155 ;; Data sizes:     COMRAM   BANK0   BANK1   BANK2   BANK3   BANK4   BANK5   BANK6   BANK7   BANK8   BANK9  BANK10  BANK1
      +1  BANK12  BANK13  BANK14  BANK15
  7156 ;;      Params:         0       0       0       0       0       0       0       0       0       0       0       0       
      +0       0       0       0       0
  7157 ;;      Locals:         0       0       0       0       0       0       0       0       0       0       0       0       
      +0       0       0       0       0
  7158 ;;      Temps:          0       0       0       0       0       0       0       0       0       0       0       0       
      +0       0       0       0       0
  7159 ;;      Totals:         0       0       0       0       0       0       0       0       0       0       0       0       
      +0       0       0       0       0
  7160 ;;Total ram usage:        0 bytes
  7161 ;; Hardware stack levels used: 1
  7162 ;; Hardware stack levels required when called: 3
  7163 ;; This function calls:
  7164 ;;		Nothing
  7165 ;; This function is called by:
  7166 ;;		_I2C1_DO_TX_EMPTY
  7167 ;;		_I2C1_DO_RX_EMPTY
  7168 ;; This function uses a non-reentrant model
  7169 ;;
  7170                           
  7171                           	psect	text61
  7172   001A3C                     __ptext61:
  7173                           	callstack 0
  7174   001A3C                     _I2C1_MasterEnableRestart:
  7175                           	callstack 19
  7176   001A3C                     
  7177                           ;mcc_generated_files/i2c1_master.c: 694:     I2C1CON0bits.RSEN = 1;
  7178   001A3C  013D               	movlb	61	; () banked
  7179   001A3E  8D73               	bsf	115,6,b	;volatile
  7180   001A40                     
  7181                           ; BSR set to: 61
  7182   001A40  0012               	return		;funcret
  7183   001A42                     __end_of_I2C1_MasterEnableRestart:
  7184                           	callstack 0
  7185                           
  7186 ;; *************** function _I2C1_MasterDisableRestart *****************
  7187 ;; Defined at:
  7188 ;;		line 697 in file "mcc_generated_files/i2c1_master.c"
  7189 ;; Parameters:    Size  Location     Type
  7190 ;;		None
  7191 ;; Auto vars:     Size  Location     Type
  7192 ;;		None
  7193 ;; Return value:  Size  Location     Type
  7194 ;;                  1    wreg      void 
  7195 ;; Registers used:
  7196 ;;		None
  7197 ;; Tracked objects:
  7198 ;;		On entry : 0/0
  7199 ;;		On exit  : 0/0
  7200 ;;		Unchanged: 0/0
  7201 ;; Data sizes:     COMRAM   BANK0   BANK1   BANK2   BANK3   BANK4   BANK5   BANK6   BANK7   BANK8   BANK9  BANK10  BANK1
      +1  BANK12  BANK13  BANK14  BANK15
  7202 ;;      Params:         0       0       0       0       0       0       0       0       0       0       0       0       
      +0       0       0       0       0
  7203 ;;      Locals:         0       0       0       0       0       0       0       0       0       0       0       0       
      +0       0       0       0       0
  7204 ;;      Temps:          0       0       0       0       0       0       0       0       0       0       0       0       
      +0       0       0       0       0
  7205 ;;      Totals:         0       0       0       0       0       0       0       0       0       0       0       0       
      +0       0       0       0       0
  7206 ;;Total ram usage:        0 bytes
  7207 ;; Hardware stack levels used: 1
  7208 ;; Hardware stack levels required when called: 3
  7209 ;; This function calls:
  7210 ;;		Nothing
  7211 ;; This function is called by:
  7212 ;;		_I2C1_DO_TX_EMPTY
  7213 ;;		_I2C1_DO_RX_EMPTY
  7214 ;; This function uses a non-reentrant model
  7215 ;;
  7216                           
  7217                           	psect	text62
  7218   001A42                     __ptext62:
  7219                           	callstack 0
  7220   001A42                     _I2C1_MasterDisableRestart:
  7221                           	callstack 19
  7222   001A42                     
  7223                           ;mcc_generated_files/i2c1_master.c: 700:     I2C1CON0bits.RSEN = 0;
  7224   001A42  013D               	movlb	61	; () banked
  7225   001A44  9D73               	bcf	115,6,b	;volatile
  7226   001A46                     
  7227                           ; BSR set to: 61
  7228   001A46  0012               	return		;funcret
  7229   001A48                     __end_of_I2C1_MasterDisableRestart:
  7230                           	callstack 0
  7231                           
  7232 ;; *************** function _I2C1_MasterResetBus *****************
  7233 ;; Defined at:
  7234 ;;		line 681 in file "mcc_generated_files/i2c1_master.c"
  7235 ;; Parameters:    Size  Location     Type
  7236 ;;		None
  7237 ;; Auto vars:     Size  Location     Type
  7238 ;;		None
  7239 ;; Return value:  Size  Location     Type
  7240 ;;                  1    wreg      void 
  7241 ;; Registers used:
  7242 ;;		None
  7243 ;; Tracked objects:
  7244 ;;		On entry : 0/0
  7245 ;;		On exit  : 0/0
  7246 ;;		Unchanged: 0/0
  7247 ;; Data sizes:     COMRAM   BANK0   BANK1   BANK2   BANK3   BANK4   BANK5   BANK6   BANK7   BANK8   BANK9  BANK10  BANK1
      +1  BANK12  BANK13  BANK14  BANK15
  7248 ;;      Params:         0       0       0       0       0       0       0       0       0       0       0       0       
      +0       0       0       0       0
  7249 ;;      Locals:         0       0       0       0       0       0       0       0       0       0       0       0       
      +0       0       0       0       0
  7250 ;;      Temps:          0       0       0       0       0       0       0       0       0       0       0       0       
      +0       0       0       0       0
  7251 ;;      Totals:         0       0       0       0       0       0       0       0       0       0       0       0       
      +0       0       0       0       0
  7252 ;;Total ram usage:        0 bytes
  7253 ;; Hardware stack levels used: 1
  7254 ;; Hardware stack levels required when called: 3
  7255 ;; This function calls:
  7256 ;;		Nothing
  7257 ;; This function is called by:
  7258 ;;		_I2C1_DO_RESET
  7259 ;;		_I2C1_DO_BUS_ERROR
  7260 ;; This function uses a non-reentrant model
  7261 ;;
  7262                           
  7263                           	psect	text63
  7264   0019C4                     __ptext63:
  7265                           	callstack 0
  7266   0019C4                     _I2C1_MasterResetBus:
  7267                           	callstack 19
  7268   0019C4                     
  7269                           ;mcc_generated_files/i2c1_master.c: 684:     I2C1CON0bits.EN = 0;
  7270   0019C4  013D               	movlb	61	; () banked
  7271   0019C6  9F73               	bcf	115,7,b	;volatile
  7272                           
  7273                           ;mcc_generated_files/i2c1_master.c: 686:     I2C1STAT1bits.CLRBF = 1;
  7274   0019C8  8578               	bsf	120,2,b	;volatile
  7275                           
  7276                           ;mcc_generated_files/i2c1_master.c: 688:     I2C1CON0bits.EN = 1;
  7277   0019CA  8F73               	bsf	115,7,b	;volatile
  7278   0019CC                     
  7279                           ; BSR set to: 61
  7280   0019CC  0012               	return		;funcret
  7281   0019CE                     __end_of_I2C1_MasterResetBus:
  7282                           	callstack 0
  7283                           
  7284 ;; *************** function _I2C1_CallbackReturnReset *****************
  7285 ;; Defined at:
  7286 ;;		line 614 in file "mcc_generated_files/i2c1_master.c"
  7287 ;; Parameters:    Size  Location     Type
  7288 ;;  funPtr          2   11[COMRAM] PTR void 
  7289 ;;		 -> I2C1_ReadDataBlock@bufferBlock(4), I2C1_Write2ByteRegister@data(2), I2C1_Write1ByteRegister@data(1), I2C1_Read2B
      +yteRegister@returnValue(2), 
  7290 ;;		 -> NULL(0), I2C1_Read1ByteRegister@returnValue(1), 
  7291 ;; Auto vars:     Size  Location     Type
  7292 ;;		None
  7293 ;; Return value:  Size  Location     Type
  7294 ;;                  1    wreg      enum E363
  7295 ;; Registers used:
  7296 ;;		wreg
  7297 ;; Tracked objects:
  7298 ;;		On entry : 0/0
  7299 ;;		On exit  : 0/0
  7300 ;;		Unchanged: 0/0
  7301 ;; Data sizes:     COMRAM   BANK0   BANK1   BANK2   BANK3   BANK4   BANK5   BANK6   BANK7   BANK8   BANK9  BANK10  BANK1
      +1  BANK12  BANK13  BANK14  BANK15
  7302 ;;      Params:         2       0       0       0       0       0       0       0       0       0       0       0       
      +0       0       0       0       0
  7303 ;;      Locals:         0       0       0       0       0       0       0       0       0       0       0       0       
      +0       0       0       0       0
  7304 ;;      Temps:          0       0       0       0       0       0       0       0       0       0       0       0       
      +0       0       0       0       0
  7305 ;;      Totals:         2       0       0       0       0       0       0       0       0       0       0       0       
      +0       0       0       0       0
  7306 ;;Total ram usage:        2 bytes
  7307 ;; Hardware stack levels used: 1
  7308 ;; Hardware stack levels required when called: 3
  7309 ;; This function calls:
  7310 ;;		Nothing
  7311 ;; This function is called by:
  7312 ;;		_I2C1_Open
  7313 ;;		_I2C1_DO_RX_EMPTY
  7314 ;;		_I2C1_DO_TX_EMPTY
  7315 ;;		_I2C1_DO_TX
  7316 ;;		_I2C1_DO_ADDRESS_NACK
  7317 ;;		_I2C1_DO_BUS_COLLISION
  7318 ;; This function uses a non-reentrant model
  7319 ;;
  7320                           
  7321                           	psect	text64
  7322   001A62                     __ptext64:
  7323                           	callstack 0
  7324   001A62                     _I2C1_CallbackReturnReset:
  7325                           	callstack 19
  7326   001A62                     
  7327                           ;mcc_generated_files/i2c1_master.c: 614: i2c1_operations_t I2C1_CallbackReturnReset(void
      +                           *funPtr);mcc_generated_files/i2c1_master.c: 615: {;mcc_generated_files/i2c1_master.c: 6
      +                          16:     return I2C1_RESET_LINK;
  7328   001A62  0E05               	movlw	5
  7329   001A64  0012               	return		;funcret
  7330   001A66                     __end_of_I2C1_CallbackReturnReset:
  7331                           	callstack 0
  7332                           
  7333 ;; *************** function _I2C1_CallbackReturnStop *****************
  7334 ;; Defined at:
  7335 ;;		line 609 in file "mcc_generated_files/i2c1_master.c"
  7336 ;; Parameters:    Size  Location     Type
  7337 ;;  funPtr          2   11[COMRAM] PTR void 
  7338 ;;		 -> I2C1_ReadDataBlock@bufferBlock(4), I2C1_Write2ByteRegister@data(2), I2C1_Write1ByteRegister@data(1), I2C1_Read2B
      +yteRegister@returnValue(2), 
  7339 ;;		 -> NULL(0), I2C1_Read1ByteRegister@returnValue(1), 
  7340 ;; Auto vars:     Size  Location     Type
  7341 ;;		None
  7342 ;; Return value:  Size  Location     Type
  7343 ;;                  1    wreg      enum E363
  7344 ;; Registers used:
  7345 ;;		wreg
  7346 ;; Tracked objects:
  7347 ;;		On entry : 0/0
  7348 ;;		On exit  : 0/0
  7349 ;;		Unchanged: 0/0
  7350 ;; Data sizes:     COMRAM   BANK0   BANK1   BANK2   BANK3   BANK4   BANK5   BANK6   BANK7   BANK8   BANK9  BANK10  BANK1
      +1  BANK12  BANK13  BANK14  BANK15
  7351 ;;      Params:         2       0       0       0       0       0       0       0       0       0       0       0       
      +0       0       0       0       0
  7352 ;;      Locals:         0       0       0       0       0       0       0       0       0       0       0       0       
      +0       0       0       0       0
  7353 ;;      Temps:          0       0       0       0       0       0       0       0       0       0       0       0       
      +0       0       0       0       0
  7354 ;;      Totals:         2       0       0       0       0       0       0       0       0       0       0       0       
      +0       0       0       0       0
  7355 ;;Total ram usage:        2 bytes
  7356 ;; Hardware stack levels used: 1
  7357 ;; Hardware stack levels required when called: 3
  7358 ;; This function calls:
  7359 ;;		Nothing
  7360 ;; This function is called by:
  7361 ;;		_I2C1_Open
  7362 ;;		_I2C1_SetCallback
  7363 ;;		_I2C1_DO_RX_EMPTY
  7364 ;;		_I2C1_DO_TX_EMPTY
  7365 ;;		_I2C1_DO_TX
  7366 ;;		_I2C1_DO_ADDRESS_NACK
  7367 ;;		_I2C1_DO_BUS_COLLISION
  7368 ;; This function uses a non-reentrant model
  7369 ;;
  7370                           
  7371                           	psect	text65
  7372   001A66                     __ptext65:
  7373                           	callstack 0
  7374   001A66                     _I2C1_CallbackReturnStop:
  7375                           	callstack 19
  7376   001A66                     
  7377                           ;mcc_generated_files/i2c1_master.c: 609: i2c1_operations_t I2C1_CallbackReturnStop(void 
      +                          *funPtr);mcc_generated_files/i2c1_master.c: 610: {;mcc_generated_files/i2c1_master.c: 61
      +                          1:     return I2C1_STOP;
  7378   001A66  0E01               	movlw	1
  7379   001A68  0012               	return		;funcret
  7380   001A6A                     __end_of_I2C1_CallbackReturnStop:
  7381                           	callstack 0
  7382                           
  7383 ;; *************** function _rdBlkRegCompleteHandler *****************
  7384 ;; Defined at:
  7385 ;;		line 198 in file "mcc_generated_files/examples/i2c1_master_example.c"
  7386 ;; Parameters:    Size  Location     Type
  7387 ;;  ptr             2   11[COMRAM] PTR void 
  7388 ;;		 -> I2C1_ReadDataBlock@bufferBlock(4), I2C1_Write2ByteRegister@data(2), I2C1_Write1ByteRegister@data(1), I2C1_Read2B
      +yteRegister@returnValue(2), 
  7389 ;;		 -> NULL(0), I2C1_Read1ByteRegister@returnValue(1), 
  7390 ;; Auto vars:     Size  Location     Type
  7391 ;;		None
  7392 ;; Return value:  Size  Location     Type
  7393 ;;                  1    wreg      enum E363
  7394 ;; Registers used:
  7395 ;;		wreg, fsr2l, fsr2h, status,2, status,0, prodl, prodh, cstack
  7396 ;; Tracked objects:
  7397 ;;		On entry : 0/0
  7398 ;;		On exit  : 0/0
  7399 ;;		Unchanged: 0/0
  7400 ;; Data sizes:     COMRAM   BANK0   BANK1   BANK2   BANK3   BANK4   BANK5   BANK6   BANK7   BANK8   BANK9  BANK10  BANK1
      +1  BANK12  BANK13  BANK14  BANK15
  7401 ;;      Params:         2       0       0       0       0       0       0       0       0       0       0       0       
      +0       0       0       0       0
  7402 ;;      Locals:         0       0       0       0       0       0       0       0       0       0       0       0       
      +0       0       0       0       0
  7403 ;;      Temps:          1       0       0       0       0       0       0       0       0       0       0       0       
      +0       0       0       0       0
  7404 ;;      Totals:         3       0       0       0       0       0       0       0       0       0       0       0       
      +0       0       0       0       0
  7405 ;;Total ram usage:        3 bytes
  7406 ;; Hardware stack levels used: 1
  7407 ;; Hardware stack levels required when called: 5
  7408 ;; This function calls:
  7409 ;;		_I2C1_SetBuffer
  7410 ;;		_I2C1_SetDataCompleteCallback
  7411 ;; This function is called by:
  7412 ;;		_I2C1_ReadDataBlock
  7413 ;;		_I2C1_DO_RX_EMPTY
  7414 ;;		_I2C1_DO_TX_EMPTY
  7415 ;;		_I2C1_DO_TX
  7416 ;;		_I2C1_DO_ADDRESS_NACK
  7417 ;;		_I2C1_DO_BUS_COLLISION
  7418 ;; This function uses a non-reentrant model
  7419 ;;
  7420                           
  7421                           	psect	text66
  7422   0013E6                     __ptext66:
  7423                           	callstack 0
  7424   0013E6                     _rdBlkRegCompleteHandler:
  7425                           	callstack 17
  7426   0013E6                     
  7427                           ;mcc_generated_files/examples/i2c1_master_example.c: 198: static i2c1_operations_t rdBlk
      +                          RegCompleteHandler(void *ptr);mcc_generated_files/examples/i2c1_master_example.c: 199: {
      +                          ;mcc_generated_files/examples/i2c1_master_example.c: 200:     I2C1_SetBuffer(((i2c1_buff
      +                          er_t *)ptr)->data,((i2c1_buffer_t*)ptr)->len);
  7428   0013E6  EE20 F002          	lfsr	2,2
  7429   0013EA  500C               	movf	rdBlkRegCompleteHandler@ptr^0,w,c
  7430   0013EC  26D9               	addwf	fsr2l,f,c
  7431   0013EE  500D               	movf	(rdBlkRegCompleteHandler@ptr+1)^0,w,c
  7432   0013F0  22DA               	addwfc	fsr2h,f,c
  7433   0013F2  50DF               	movf	indf2,w,c
  7434   0013F4  6E0E               	movwf	??_rdBlkRegCompleteHandler^0,c
  7435   0013F6  C00E  F003         	movff	??_rdBlkRegCompleteHandler,I2C1_SetBuffer@buffer
  7436   0013FA  6A04               	clrf	(I2C1_SetBuffer@buffer+1)^0,c
  7437   0013FC  0060  F033  FFD9   	movff	rdBlkRegCompleteHandler@ptr,fsr2l
  7438   001402  0060  F037  FFDA   	movff	rdBlkRegCompleteHandler@ptr+1,fsr2h
  7439   001408  006F FF78  F005    	movff	postinc2,I2C1_SetBuffer@bufferSize
  7440   00140E  006F FF74  F006    	movff	postdec2,I2C1_SetBuffer@bufferSize+1
  7441   001414  ECA9  F00B         	call	_I2C1_SetBuffer	;wreg free
  7442   001418                     
  7443                           ;mcc_generated_files/examples/i2c1_master_example.c: 201:     I2C1_SetDataCompleteCallba
      +                          ck(((void*)0),((void*)0));
  7444   001418  0E00               	movlw	0
  7445   00141A  6E08               	movwf	I2C1_SetDataCompleteCallback@cb^0,c
  7446   00141C  0E00               	movlw	0
  7447   00141E  6E09               	movwf	(I2C1_SetDataCompleteCallback@cb+1)^0,c
  7448   001420  0E00               	movlw	0
  7449   001422  6E0A               	movwf	I2C1_SetDataCompleteCallback@ptr^0,c
  7450   001424  0E00               	movlw	0
  7451   001426  6E0B               	movwf	(I2C1_SetDataCompleteCallback@ptr+1)^0,c
  7452   001428  EC44  F00C         	call	_I2C1_SetDataCompleteCallback	;wreg free
  7453   00142C                     
  7454                           ;mcc_generated_files/examples/i2c1_master_example.c: 202:     return I2C1_RESTART_READ;
  7455   00142C  0E02               	movlw	2
  7456   00142E  0012               	return		;funcret
  7457   001430                     __end_of_rdBlkRegCompleteHandler:
  7458                           	callstack 0
  7459                           
  7460 ;; *************** function _wr1RegCompleteHandler *****************
  7461 ;; Defined at:
  7462 ;;		line 184 in file "mcc_generated_files/examples/i2c1_master_example.c"
  7463 ;; Parameters:    Size  Location     Type
  7464 ;;  ptr             2   11[COMRAM] PTR void 
  7465 ;;		 -> I2C1_ReadDataBlock@bufferBlock(4), I2C1_Write2ByteRegister@data(2), I2C1_Write1ByteRegister@data(1), I2C1_Read2B
      +yteRegister@returnValue(2), 
  7466 ;;		 -> NULL(0), I2C1_Read1ByteRegister@returnValue(1), 
  7467 ;; Auto vars:     Size  Location     Type
  7468 ;;		None
  7469 ;; Return value:  Size  Location     Type
  7470 ;;                  1    wreg      enum E363
  7471 ;; Registers used:
  7472 ;;		wreg, fsr2l, fsr2h, status,2, status,0, prodl, prodh, cstack
  7473 ;; Tracked objects:
  7474 ;;		On entry : 0/0
  7475 ;;		On exit  : 0/0
  7476 ;;		Unchanged: 0/0
  7477 ;; Data sizes:     COMRAM   BANK0   BANK1   BANK2   BANK3   BANK4   BANK5   BANK6   BANK7   BANK8   BANK9  BANK10  BANK1
      +1  BANK12  BANK13  BANK14  BANK15
  7478 ;;      Params:         2       0       0       0       0       0       0       0       0       0       0       0       
      +0       0       0       0       0
  7479 ;;      Locals:         0       0       0       0       0       0       0       0       0       0       0       0       
      +0       0       0       0       0
  7480 ;;      Temps:          0       0       0       0       0       0       0       0       0       0       0       0       
      +0       0       0       0       0
  7481 ;;      Totals:         2       0       0       0       0       0       0       0       0       0       0       0       
      +0       0       0       0       0
  7482 ;;Total ram usage:        2 bytes
  7483 ;; Hardware stack levels used: 1
  7484 ;; Hardware stack levels required when called: 5
  7485 ;; This function calls:
  7486 ;;		_I2C1_SetBuffer
  7487 ;;		_I2C1_SetDataCompleteCallback
  7488 ;; This function is called by:
  7489 ;;		_I2C1_Write1ByteRegister
  7490 ;;		_I2C1_DO_RX_EMPTY
  7491 ;;		_I2C1_DO_TX_EMPTY
  7492 ;;		_I2C1_DO_TX
  7493 ;;		_I2C1_DO_ADDRESS_NACK
  7494 ;;		_I2C1_DO_BUS_COLLISION
  7495 ;; This function uses a non-reentrant model
  7496 ;;
  7497                           
  7498                           	psect	text67
  7499   001628                     __ptext67:
  7500                           	callstack 0
  7501   001628                     _wr1RegCompleteHandler:
  7502                           	callstack 17
  7503   001628                     
  7504                           ;mcc_generated_files/examples/i2c1_master_example.c: 184: static i2c1_operations_t wr1Re
      +                          gCompleteHandler(void *ptr);mcc_generated_files/examples/i2c1_master_example.c: 185: {;m
      +                          cc_generated_files/examples/i2c1_master_example.c: 186:     I2C1_SetBuffer(ptr,1);
  7505   001628  C00C  F003         	movff	wr1RegCompleteHandler@ptr,I2C1_SetBuffer@buffer
  7506   00162C  C00D  F004         	movff	wr1RegCompleteHandler@ptr+1,I2C1_SetBuffer@buffer+1
  7507   001630  0E00               	movlw	0
  7508   001632  6E06               	movwf	(I2C1_SetBuffer@bufferSize+1)^0,c
  7509   001634  0E01               	movlw	1
  7510   001636  6E05               	movwf	I2C1_SetBuffer@bufferSize^0,c
  7511   001638  ECA9  F00B         	call	_I2C1_SetBuffer	;wreg free
  7512   00163C                     
  7513                           ;mcc_generated_files/examples/i2c1_master_example.c: 187:     I2C1_SetDataCompleteCallba
      +                          ck(((void*)0),((void*)0));
  7514   00163C  0E00               	movlw	0
  7515   00163E  6E08               	movwf	I2C1_SetDataCompleteCallback@cb^0,c
  7516   001640  0E00               	movlw	0
  7517   001642  6E09               	movwf	(I2C1_SetDataCompleteCallback@cb+1)^0,c
  7518   001644  0E00               	movlw	0
  7519   001646  6E0A               	movwf	I2C1_SetDataCompleteCallback@ptr^0,c
  7520   001648  0E00               	movlw	0
  7521   00164A  6E0B               	movwf	(I2C1_SetDataCompleteCallback@ptr+1)^0,c
  7522   00164C  EC44  F00C         	call	_I2C1_SetDataCompleteCallback	;wreg free
  7523   001650                     
  7524                           ;mcc_generated_files/examples/i2c1_master_example.c: 188:     return I2C1_CONTINUE;
  7525   001650  0E04               	movlw	4
  7526   001652  0012               	return		;funcret
  7527   001654                     __end_of_wr1RegCompleteHandler:
  7528                           	callstack 0
  7529                           
  7530 ;; *************** function _rd2RegCompleteHandler *****************
  7531 ;; Defined at:
  7532 ;;		line 177 in file "mcc_generated_files/examples/i2c1_master_example.c"
  7533 ;; Parameters:    Size  Location     Type
  7534 ;;  ptr             2   11[COMRAM] PTR void 
  7535 ;;		 -> I2C1_ReadDataBlock@bufferBlock(4), I2C1_Write2ByteRegister@data(2), I2C1_Write1ByteRegister@data(1), I2C1_Read2B
      +yteRegister@returnValue(2), 
  7536 ;;		 -> NULL(0), I2C1_Read1ByteRegister@returnValue(1), 
  7537 ;; Auto vars:     Size  Location     Type
  7538 ;;		None
  7539 ;; Return value:  Size  Location     Type
  7540 ;;                  1    wreg      enum E363
  7541 ;; Registers used:
  7542 ;;		wreg, fsr2l, fsr2h, status,2, status,0, prodl, prodh, cstack
  7543 ;; Tracked objects:
  7544 ;;		On entry : 0/0
  7545 ;;		On exit  : 0/0
  7546 ;;		Unchanged: 0/0
  7547 ;; Data sizes:     COMRAM   BANK0   BANK1   BANK2   BANK3   BANK4   BANK5   BANK6   BANK7   BANK8   BANK9  BANK10  BANK1
      +1  BANK12  BANK13  BANK14  BANK15
  7548 ;;      Params:         2       0       0       0       0       0       0       0       0       0       0       0       
      +0       0       0       0       0
  7549 ;;      Locals:         0       0       0       0       0       0       0       0       0       0       0       0       
      +0       0       0       0       0
  7550 ;;      Temps:          0       0       0       0       0       0       0       0       0       0       0       0       
      +0       0       0       0       0
  7551 ;;      Totals:         2       0       0       0       0       0       0       0       0       0       0       0       
      +0       0       0       0       0
  7552 ;;Total ram usage:        2 bytes
  7553 ;; Hardware stack levels used: 1
  7554 ;; Hardware stack levels required when called: 5
  7555 ;; This function calls:
  7556 ;;		_I2C1_SetBuffer
  7557 ;;		_I2C1_SetDataCompleteCallback
  7558 ;; This function is called by:
  7559 ;;		_I2C1_Read2ByteRegister
  7560 ;;		_I2C1_DO_RX_EMPTY
  7561 ;;		_I2C1_DO_TX_EMPTY
  7562 ;;		_I2C1_DO_TX
  7563 ;;		_I2C1_DO_ADDRESS_NACK
  7564 ;;		_I2C1_DO_BUS_COLLISION
  7565 ;; This function uses a non-reentrant model
  7566 ;;
  7567                           
  7568                           	psect	text68
  7569   001654                     __ptext68:
  7570                           	callstack 0
  7571   001654                     _rd2RegCompleteHandler:
  7572                           	callstack 17
  7573   001654                     
  7574                           ;mcc_generated_files/examples/i2c1_master_example.c: 177: static i2c1_operations_t rd2Re
      +                          gCompleteHandler(void *ptr);mcc_generated_files/examples/i2c1_master_example.c: 178: {;m
      +                          cc_generated_files/examples/i2c1_master_example.c: 179:     I2C1_SetBuffer(ptr,2);
  7575   001654  C00C  F003         	movff	rd2RegCompleteHandler@ptr,I2C1_SetBuffer@buffer
  7576   001658  C00D  F004         	movff	rd2RegCompleteHandler@ptr+1,I2C1_SetBuffer@buffer+1
  7577   00165C  0E00               	movlw	0
  7578   00165E  6E06               	movwf	(I2C1_SetBuffer@bufferSize+1)^0,c
  7579   001660  0E02               	movlw	2
  7580   001662  6E05               	movwf	I2C1_SetBuffer@bufferSize^0,c
  7581   001664  ECA9  F00B         	call	_I2C1_SetBuffer	;wreg free
  7582   001668                     
  7583                           ;mcc_generated_files/examples/i2c1_master_example.c: 180:     I2C1_SetDataCompleteCallba
      +                          ck(((void*)0),((void*)0));
  7584   001668  0E00               	movlw	0
  7585   00166A  6E08               	movwf	I2C1_SetDataCompleteCallback@cb^0,c
  7586   00166C  0E00               	movlw	0
  7587   00166E  6E09               	movwf	(I2C1_SetDataCompleteCallback@cb+1)^0,c
  7588   001670  0E00               	movlw	0
  7589   001672  6E0A               	movwf	I2C1_SetDataCompleteCallback@ptr^0,c
  7590   001674  0E00               	movlw	0
  7591   001676  6E0B               	movwf	(I2C1_SetDataCompleteCallback@ptr+1)^0,c
  7592   001678  EC44  F00C         	call	_I2C1_SetDataCompleteCallback	;wreg free
  7593   00167C                     
  7594                           ;mcc_generated_files/examples/i2c1_master_example.c: 181:     return I2C1_RESTART_READ;
  7595   00167C  0E02               	movlw	2
  7596   00167E  0012               	return		;funcret
  7597   001680                     __end_of_rd2RegCompleteHandler:
  7598                           	callstack 0
  7599                           
  7600 ;; *************** function _rd1RegCompleteHandler *****************
  7601 ;; Defined at:
  7602 ;;		line 170 in file "mcc_generated_files/examples/i2c1_master_example.c"
  7603 ;; Parameters:    Size  Location     Type
  7604 ;;  ptr             2   11[COMRAM] PTR void 
  7605 ;;		 -> I2C1_ReadDataBlock@bufferBlock(4), I2C1_Write2ByteRegister@data(2), I2C1_Write1ByteRegister@data(1), I2C1_Read2B
      +yteRegister@returnValue(2), 
  7606 ;;		 -> NULL(0), I2C1_Read1ByteRegister@returnValue(1), 
  7607 ;; Auto vars:     Size  Location     Type
  7608 ;;		None
  7609 ;; Return value:  Size  Location     Type
  7610 ;;                  1    wreg      enum E363
  7611 ;; Registers used:
  7612 ;;		wreg, fsr2l, fsr2h, status,2, status,0, prodl, prodh, cstack
  7613 ;; Tracked objects:
  7614 ;;		On entry : 0/0
  7615 ;;		On exit  : 0/0
  7616 ;;		Unchanged: 0/0
  7617 ;; Data sizes:     COMRAM   BANK0   BANK1   BANK2   BANK3   BANK4   BANK5   BANK6   BANK7   BANK8   BANK9  BANK10  BANK1
      +1  BANK12  BANK13  BANK14  BANK15
  7618 ;;      Params:         2       0       0       0       0       0       0       0       0       0       0       0       
      +0       0       0       0       0
  7619 ;;      Locals:         0       0       0       0       0       0       0       0       0       0       0       0       
      +0       0       0       0       0
  7620 ;;      Temps:          0       0       0       0       0       0       0       0       0       0       0       0       
      +0       0       0       0       0
  7621 ;;      Totals:         2       0       0       0       0       0       0       0       0       0       0       0       
      +0       0       0       0       0
  7622 ;;Total ram usage:        2 bytes
  7623 ;; Hardware stack levels used: 1
  7624 ;; Hardware stack levels required when called: 5
  7625 ;; This function calls:
  7626 ;;		_I2C1_SetBuffer
  7627 ;;		_I2C1_SetDataCompleteCallback
  7628 ;; This function is called by:
  7629 ;;		_I2C1_Read1ByteRegister
  7630 ;;		_I2C1_DO_RX_EMPTY
  7631 ;;		_I2C1_DO_TX_EMPTY
  7632 ;;		_I2C1_DO_TX
  7633 ;;		_I2C1_DO_ADDRESS_NACK
  7634 ;;		_I2C1_DO_BUS_COLLISION
  7635 ;; This function uses a non-reentrant model
  7636 ;;
  7637                           
  7638                           	psect	text69
  7639   001680                     __ptext69:
  7640                           	callstack 0
  7641   001680                     _rd1RegCompleteHandler:
  7642                           	callstack 17
  7643   001680                     
  7644                           ;mcc_generated_files/examples/i2c1_master_example.c: 170: static i2c1_operations_t rd1Re
      +                          gCompleteHandler(void *ptr);mcc_generated_files/examples/i2c1_master_example.c: 171: {;m
      +                          cc_generated_files/examples/i2c1_master_example.c: 172:     I2C1_SetBuffer(ptr,1);
  7645   001680  C00C  F003         	movff	rd1RegCompleteHandler@ptr,I2C1_SetBuffer@buffer
  7646   001684  C00D  F004         	movff	rd1RegCompleteHandler@ptr+1,I2C1_SetBuffer@buffer+1
  7647   001688  0E00               	movlw	0
  7648   00168A  6E06               	movwf	(I2C1_SetBuffer@bufferSize+1)^0,c
  7649   00168C  0E01               	movlw	1
  7650   00168E  6E05               	movwf	I2C1_SetBuffer@bufferSize^0,c
  7651   001690  ECA9  F00B         	call	_I2C1_SetBuffer	;wreg free
  7652   001694                     
  7653                           ;mcc_generated_files/examples/i2c1_master_example.c: 173:     I2C1_SetDataCompleteCallba
      +                          ck(((void*)0),((void*)0));
  7654   001694  0E00               	movlw	0
  7655   001696  6E08               	movwf	I2C1_SetDataCompleteCallback@cb^0,c
  7656   001698  0E00               	movlw	0
  7657   00169A  6E09               	movwf	(I2C1_SetDataCompleteCallback@cb+1)^0,c
  7658   00169C  0E00               	movlw	0
  7659   00169E  6E0A               	movwf	I2C1_SetDataCompleteCallback@ptr^0,c
  7660   0016A0  0E00               	movlw	0
  7661   0016A2  6E0B               	movwf	(I2C1_SetDataCompleteCallback@ptr+1)^0,c
  7662   0016A4  EC44  F00C         	call	_I2C1_SetDataCompleteCallback	;wreg free
  7663   0016A8                     
  7664                           ;mcc_generated_files/examples/i2c1_master_example.c: 174:     return I2C1_RESTART_READ;
  7665   0016A8  0E02               	movlw	2
  7666   0016AA  0012               	return		;funcret
  7667   0016AC                     __end_of_rd1RegCompleteHandler:
  7668                           	callstack 0
  7669                           
  7670 ;; *************** function _wr2RegCompleteHandler *****************
  7671 ;; Defined at:
  7672 ;;		line 191 in file "mcc_generated_files/examples/i2c1_master_example.c"
  7673 ;; Parameters:    Size  Location     Type
  7674 ;;  ptr             2   11[COMRAM] PTR void 
  7675 ;;		 -> I2C1_ReadDataBlock@bufferBlock(4), I2C1_Write2ByteRegister@data(2), I2C1_Write1ByteRegister@data(1), I2C1_Read2B
      +yteRegister@returnValue(2), 
  7676 ;;		 -> NULL(0), I2C1_Read1ByteRegister@returnValue(1), 
  7677 ;; Auto vars:     Size  Location     Type
  7678 ;;		None
  7679 ;; Return value:  Size  Location     Type
  7680 ;;                  1    wreg      enum E363
  7681 ;; Registers used:
  7682 ;;		wreg, fsr2l, fsr2h, status,2, status,0, prodl, prodh, cstack
  7683 ;; Tracked objects:
  7684 ;;		On entry : 0/0
  7685 ;;		On exit  : 0/0
  7686 ;;		Unchanged: 0/0
  7687 ;; Data sizes:     COMRAM   BANK0   BANK1   BANK2   BANK3   BANK4   BANK5   BANK6   BANK7   BANK8   BANK9  BANK10  BANK1
      +1  BANK12  BANK13  BANK14  BANK15
  7688 ;;      Params:         2       0       0       0       0       0       0       0       0       0       0       0       
      +0       0       0       0       0
  7689 ;;      Locals:         0       0       0       0       0       0       0       0       0       0       0       0       
      +0       0       0       0       0
  7690 ;;      Temps:          0       0       0       0       0       0       0       0       0       0       0       0       
      +0       0       0       0       0
  7691 ;;      Totals:         2       0       0       0       0       0       0       0       0       0       0       0       
      +0       0       0       0       0
  7692 ;;Total ram usage:        2 bytes
  7693 ;; Hardware stack levels used: 1
  7694 ;; Hardware stack levels required when called: 5
  7695 ;; This function calls:
  7696 ;;		_I2C1_SetBuffer
  7697 ;;		_I2C1_SetDataCompleteCallback
  7698 ;; This function is called by:
  7699 ;;		_I2C1_Write2ByteRegister
  7700 ;;		_I2C1_DO_RX_EMPTY
  7701 ;;		_I2C1_DO_TX_EMPTY
  7702 ;;		_I2C1_DO_TX
  7703 ;;		_I2C1_DO_ADDRESS_NACK
  7704 ;;		_I2C1_DO_BUS_COLLISION
  7705 ;; This function uses a non-reentrant model
  7706 ;;
  7707                           
  7708                           	psect	text70
  7709   0016AC                     __ptext70:
  7710                           	callstack 0
  7711   0016AC                     _wr2RegCompleteHandler:
  7712                           	callstack 17
  7713   0016AC                     
  7714                           ;mcc_generated_files/examples/i2c1_master_example.c: 191: static i2c1_operations_t wr2Re
      +                          gCompleteHandler(void *ptr);mcc_generated_files/examples/i2c1_master_example.c: 192: {;m
      +                          cc_generated_files/examples/i2c1_master_example.c: 193:     I2C1_SetBuffer(ptr,2);
  7715   0016AC  C00C  F003         	movff	wr2RegCompleteHandler@ptr,I2C1_SetBuffer@buffer
  7716   0016B0  C00D  F004         	movff	wr2RegCompleteHandler@ptr+1,I2C1_SetBuffer@buffer+1
  7717   0016B4  0E00               	movlw	0
  7718   0016B6  6E06               	movwf	(I2C1_SetBuffer@bufferSize+1)^0,c
  7719   0016B8  0E02               	movlw	2
  7720   0016BA  6E05               	movwf	I2C1_SetBuffer@bufferSize^0,c
  7721   0016BC  ECA9  F00B         	call	_I2C1_SetBuffer	;wreg free
  7722   0016C0                     
  7723                           ;mcc_generated_files/examples/i2c1_master_example.c: 194:     I2C1_SetDataCompleteCallba
      +                          ck(((void*)0),((void*)0));
  7724   0016C0  0E00               	movlw	0
  7725   0016C2  6E08               	movwf	I2C1_SetDataCompleteCallback@cb^0,c
  7726   0016C4  0E00               	movlw	0
  7727   0016C6  6E09               	movwf	(I2C1_SetDataCompleteCallback@cb+1)^0,c
  7728   0016C8  0E00               	movlw	0
  7729   0016CA  6E0A               	movwf	I2C1_SetDataCompleteCallback@ptr^0,c
  7730   0016CC  0E00               	movlw	0
  7731   0016CE  6E0B               	movwf	(I2C1_SetDataCompleteCallback@ptr+1)^0,c
  7732   0016D0  EC44  F00C         	call	_I2C1_SetDataCompleteCallback	;wreg free
  7733   0016D4                     
  7734                           ;mcc_generated_files/examples/i2c1_master_example.c: 195:     return I2C1_CONTINUE;
  7735   0016D4  0E04               	movlw	4
  7736   0016D6  0012               	return		;funcret
  7737   0016D8                     __end_of_wr2RegCompleteHandler:
  7738                           	callstack 0
  7739                           
  7740 ;; *************** function _I2C1_SetDataCompleteCallback *****************
  7741 ;; Defined at:
  7742 ;;		line 303 in file "mcc_generated_files/i2c1_master.c"
  7743 ;; Parameters:    Size  Location     Type
  7744 ;;  cb              2    7[COMRAM] PTR FTN(PTR void ,)enum 
  7745 ;;		 -> NULL(1), rdBlkRegCompleteHandler(1), wr2RegCompleteHandler(1), wr1RegCompleteHandler(1), 
  7746 ;;		 -> rd2RegCompleteHandler(1), rd1RegCompleteHandler(1), 
  7747 ;;  ptr             2    9[COMRAM] PTR void 
  7748 ;;		 -> I2C1_ReadDataBlock@bufferBlock(4), I2C1_Write2ByteRegister@data(2), I2C1_Write1ByteRegister@data(1), I2C1_Read2B
      +yteRegister@returnValue(2), 
  7749 ;;		 -> NULL(0), I2C1_Read1ByteRegister@returnValue(1), 
  7750 ;; Auto vars:     Size  Location     Type
  7751 ;;		None
  7752 ;; Return value:  Size  Location     Type
  7753 ;;                  1    wreg      void 
  7754 ;; Registers used:
  7755 ;;		wreg, fsr2l, fsr2h, status,2, status,0, prodl, prodh, cstack
  7756 ;; Tracked objects:
  7757 ;;		On entry : 0/0
  7758 ;;		On exit  : 0/0
  7759 ;;		Unchanged: 0/0
  7760 ;; Data sizes:     COMRAM   BANK0   BANK1   BANK2   BANK3   BANK4   BANK5   BANK6   BANK7   BANK8   BANK9  BANK10  BANK1
      +1  BANK12  BANK13  BANK14  BANK15
  7761 ;;      Params:         4       0       0       0       0       0       0       0       0       0       0       0       
      +0       0       0       0       0
  7762 ;;      Locals:         0       0       0       0       0       0       0       0       0       0       0       0       
      +0       0       0       0       0
  7763 ;;      Temps:          0       0       0       0       0       0       0       0       0       0       0       0       
      +0       0       0       0       0
  7764 ;;      Totals:         4       0       0       0       0       0       0       0       0       0       0       0       
      +0       0       0       0       0
  7765 ;;Total ram usage:        4 bytes
  7766 ;; Hardware stack levels used: 1
  7767 ;; Hardware stack levels required when called: 4
  7768 ;; This function calls:
  7769 ;;		_I2C1_SetCallback
  7770 ;; This function is called by:
  7771 ;;		_I2C1_Write1ByteRegister
  7772 ;;		_rd1RegCompleteHandler
  7773 ;;		_rd2RegCompleteHandler
  7774 ;;		_wr1RegCompleteHandler
  7775 ;;		_wr2RegCompleteHandler
  7776 ;;		_rdBlkRegCompleteHandler
  7777 ;;		_I2C1_Read1ByteRegister
  7778 ;;		_I2C1_Read2ByteRegister
  7779 ;;		_I2C1_Write2ByteRegister
  7780 ;;		_I2C1_ReadDataBlock
  7781 ;; This function uses a non-reentrant model
  7782 ;;
  7783                           
  7784                           	psect	text71
  7785   001888                     __ptext71:
  7786                           	callstack 0
  7787   001888                     _I2C1_SetDataCompleteCallback:
  7788                           	callstack 23
  7789   001888                     
  7790                           ;mcc_generated_files/i2c1_master.c: 303: void I2C1_SetDataCompleteCallback(i2c1_callback
      +                          _t cb, void *ptr);mcc_generated_files/i2c1_master.c: 304: {;mcc_generated_files/i2c1_mas
      +                          ter.c: 305:     I2C1_SetCallback(I2C1_DATA_COMPLETE, cb, ptr);
  7791   001888  C008  F003         	movff	I2C1_SetDataCompleteCallback@cb,I2C1_SetCallback@cb
  7792   00188C  C009  F004         	movff	I2C1_SetDataCompleteCallback@cb+1,I2C1_SetCallback@cb+1
  7793   001890  C00A  F005         	movff	I2C1_SetDataCompleteCallback@ptr,I2C1_SetCallback@ptr
  7794   001894  C00B  F006         	movff	I2C1_SetDataCompleteCallback@ptr+1,I2C1_SetCallback@ptr+1
  7795   001898  0E00               	movlw	0
  7796   00189A  ECC3  F007         	call	_I2C1_SetCallback
  7797   00189E  0012               	return		;funcret
  7798   0018A0                     __end_of_I2C1_SetDataCompleteCallback:
  7799                           	callstack 0
  7800                           
  7801 ;; *************** function _I2C1_SetCallback *****************
  7802 ;; Defined at:
  7803 ;;		line 328 in file "mcc_generated_files/i2c1_master.c"
  7804 ;; Parameters:    Size  Location     Type
  7805 ;;  idx             1    wreg     enum E22998
  7806 ;;  cb              2    2[COMRAM] PTR FTN(PTR void ,)enum 
  7807 ;;		 -> NULL(1), rdBlkRegCompleteHandler(1), wr2RegCompleteHandler(1), wr1RegCompleteHandler(1), 
  7808 ;;		 -> rd2RegCompleteHandler(1), rd1RegCompleteHandler(1), 
  7809 ;;  ptr             2    4[COMRAM] PTR void 
  7810 ;;		 -> I2C1_ReadDataBlock@bufferBlock(4), I2C1_Write2ByteRegister@data(2), I2C1_Write1ByteRegister@data(1), I2C1_Read2B
      +yteRegister@returnValue(2), 
  7811 ;;		 -> NULL(0), I2C1_Read1ByteRegister@returnValue(1), 
  7812 ;; Auto vars:     Size  Location     Type
  7813 ;;  idx             1    6[COMRAM] enum E22998
  7814 ;; Return value:  Size  Location     Type
  7815 ;;                  1    wreg      void 
  7816 ;; Registers used:
  7817 ;;		wreg, fsr2l, fsr2h, status,2, status,0, prodl, prodh
  7818 ;; Tracked objects:
  7819 ;;		On entry : 0/0
  7820 ;;		On exit  : 0/0
  7821 ;;		Unchanged: 0/0
  7822 ;; Data sizes:     COMRAM   BANK0   BANK1   BANK2   BANK3   BANK4   BANK5   BANK6   BANK7   BANK8   BANK9  BANK10  BANK1
      +1  BANK12  BANK13  BANK14  BANK15
  7823 ;;      Params:         4       0       0       0       0       0       0       0       0       0       0       0       
      +0       0       0       0       0
  7824 ;;      Locals:         1       0       0       0       0       0       0       0       0       0       0       0       
      +0       0       0       0       0
  7825 ;;      Temps:          0       0       0       0       0       0       0       0       0       0       0       0       
      +0       0       0       0       0
  7826 ;;      Totals:         5       0       0       0       0       0       0       0       0       0       0       0       
      +0       0       0       0       0
  7827 ;;Total ram usage:        5 bytes
  7828 ;; Hardware stack levels used: 1
  7829 ;; Hardware stack levels required when called: 3
  7830 ;; This function calls:
  7831 ;;		Nothing
  7832 ;; This function is called by:
  7833 ;;		_I2C1_SetDataCompleteCallback
  7834 ;;		_I2C1_SetAddressNackCallback
  7835 ;;		_I2C1_SetWriteCollisionCallback
  7836 ;;		_I2C1_SetDataNackCallback
  7837 ;;		_I2C1_SetTimeoutCallback
  7838 ;; This function uses a non-reentrant model
  7839 ;;
  7840                           
  7841                           	psect	text72
  7842   000F86                     __ptext72:
  7843                           	callstack 0
  7844   000F86                     _I2C1_SetCallback:
  7845                           	callstack 23
  7846                           
  7847                           ;incstack = 0
  7848                           ;I2C1_SetCallback@idx stored from wreg
  7849   000F86  6E07               	movwf	I2C1_SetCallback@idx^0,c
  7850   000F88                     
  7851                           ;mcc_generated_files/i2c1_master.c: 328: static void I2C1_SetCallback(i2c1_callbackIndex
      +                          _t idx, i2c1_callback_t cb, void *ptr);mcc_generated_files/i2c1_master.c: 329: {;mcc_gen
      +                          erated_files/i2c1_master.c: 330:     if(cb)
  7852   000F88  5003               	movf	I2C1_SetCallback@cb^0,w,c
  7853   000F8A  1004               	iorwf	(I2C1_SetCallback@cb+1)^0,w,c
  7854   000F8C  B4D8               	btfsc	status,2,c
  7855   000F8E  EFCB  F007         	goto	u1561
  7856   000F92  EFCD  F007         	goto	u1560
  7857   000F96                     u1561:
  7858   000F96  EFE7  F007         	goto	l3913
  7859   000F9A                     u1560:
  7860   000F9A                     
  7861                           ;mcc_generated_files/i2c1_master.c: 331:     {;mcc_generated_files/i2c1_master.c: 332:  
      +                                 I2C1_Status.callbackTable[idx] = cb;
  7862   000F9A  5007               	movf	I2C1_SetCallback@idx^0,w,c
  7863   000F9C  0D02               	mullw	2
  7864   000F9E  50F3               	movf	243,w,c
  7865   000FA0  0F60               	addlw	low _I2C1_Status
  7866   000FA2  6ED9               	movwf	fsr2l,c
  7867   000FA4  6ADA               	clrf	fsr2h,c
  7868   000FA6  0060  F00F  FFDE   	movff	I2C1_SetCallback@cb,postinc2
  7869   000FAC  0060  F013  FFDD   	movff	I2C1_SetCallback@cb+1,postdec2
  7870                           
  7871                           ;mcc_generated_files/i2c1_master.c: 333:         I2C1_Status.callbackPayload[idx] = ptr;
  7872   000FB2  5007               	movf	I2C1_SetCallback@idx^0,w,c
  7873   000FB4  0D02               	mullw	2
  7874   000FB6  50F3               	movf	243,w,c
  7875   000FB8  0F6C               	addlw	low (_I2C1_Status+12)
  7876   000FBA  6ED9               	movwf	fsr2l,c
  7877   000FBC  6ADA               	clrf	fsr2h,c
  7878   000FBE  0060  F017  FFDE   	movff	I2C1_SetCallback@ptr,postinc2
  7879   000FC4  0060  F01B  FFDD   	movff	I2C1_SetCallback@ptr+1,postdec2
  7880                           
  7881                           ;mcc_generated_files/i2c1_master.c: 334:     }
  7882   000FCA  EFF9  F007         	goto	l834
  7883   000FCE                     l3913:
  7884                           
  7885                           ;mcc_generated_files/i2c1_master.c: 336:     {;mcc_generated_files/i2c1_master.c: 337:  
      +                                 I2C1_Status.callbackTable[idx] = I2C1_CallbackReturnStop;
  7886   000FCE  5007               	movf	I2C1_SetCallback@idx^0,w,c
  7887   000FD0  0D02               	mullw	2
  7888   000FD2  50F3               	movf	243,w,c
  7889   000FD4  0F60               	addlw	low _I2C1_Status
  7890   000FD6  6ED9               	movwf	fsr2l,c
  7891   000FD8  6ADA               	clrf	fsr2h,c
  7892   000FDA  0E66               	movlw	low _I2C1_CallbackReturnStop
  7893   000FDC  6EDE               	movwf	postinc2,c
  7894   000FDE  0E1A               	movlw	high _I2C1_CallbackReturnStop
  7895   000FE0  6EDD               	movwf	postdec2,c
  7896                           
  7897                           ;mcc_generated_files/i2c1_master.c: 338:         I2C1_Status.callbackPayload[idx] = ((vo
      +                          id*)0);
  7898   000FE2  5007               	movf	I2C1_SetCallback@idx^0,w,c
  7899   000FE4  0D02               	mullw	2
  7900   000FE6  50F3               	movf	243,w,c
  7901   000FE8  0F6C               	addlw	low (_I2C1_Status+12)
  7902   000FEA  6ED9               	movwf	fsr2l,c
  7903   000FEC  6ADA               	clrf	fsr2h,c
  7904   000FEE  6ADE               	clrf	postinc2,c
  7905   000FF0  6ADD               	clrf	postdec2,c
  7906   000FF2                     l834:
  7907   000FF2  0012               	return		;funcret
  7908   000FF4                     __end_of_I2C1_SetCallback:
  7909                           	callstack 0
  7910                           
  7911 ;; *************** function _I2C1_SetBuffer *****************
  7912 ;; Defined at:
  7913 ;;		line 293 in file "mcc_generated_files/i2c1_master.c"
  7914 ;; Parameters:    Size  Location     Type
  7915 ;;  buffer          2    2[COMRAM] PTR void 
  7916 ;;		 -> I2C1_Read1ByteRegister@returnValue$data(3), I2C1_Read2ByteRegister@returnValue$data(3), I2C1_Write1ByteRegister@
      +data$data(3), I2C1_Write2ByteRegister@data$data(3), 
  7917 ;;		 -> I2C1_ReadDataBlock@reg(1), I2C1_ReadDataBlock@bufferBlock(4), bufferBlock$data(3), I2C1_Write2ByteRegister@reg(1
      +), 
  7918 ;;		 -> I2C1_Write2ByteRegister@data(2), I2C1_Write1ByteRegister@reg(1), I2C1_Write1ByteRegister@data(1), I2C1_Read2Byte
      +Register@reg(1), 
  7919 ;;		 -> I2C1_Read2ByteRegister@returnValue(2), NULL(0), I2C1_Read1ByteRegister@reg(1), I2C1_Read1ByteRegister@returnValu
      +e(1), 
  7920 ;;  bufferSize      2    4[COMRAM] unsigned int 
  7921 ;; Auto vars:     Size  Location     Type
  7922 ;;		None
  7923 ;; Return value:  Size  Location     Type
  7924 ;;                  1    wreg      void 
  7925 ;; Registers used:
  7926 ;;		wreg, status,2, status,0
  7927 ;; Tracked objects:
  7928 ;;		On entry : 0/0
  7929 ;;		On exit  : 0/0
  7930 ;;		Unchanged: 0/0
  7931 ;; Data sizes:     COMRAM   BANK0   BANK1   BANK2   BANK3   BANK4   BANK5   BANK6   BANK7   BANK8   BANK9  BANK10  BANK1
      +1  BANK12  BANK13  BANK14  BANK15
  7932 ;;      Params:         4       0       0       0       0       0       0       0       0       0       0       0       
      +0       0       0       0       0
  7933 ;;      Locals:         0       0       0       0       0       0       0       0       0       0       0       0       
      +0       0       0       0       0
  7934 ;;      Temps:          0       0       0       0       0       0       0       0       0       0       0       0       
      +0       0       0       0       0
  7935 ;;      Totals:         4       0       0       0       0       0       0       0       0       0       0       0       
      +0       0       0       0       0
  7936 ;;Total ram usage:        4 bytes
  7937 ;; Hardware stack levels used: 1
  7938 ;; Hardware stack levels required when called: 3
  7939 ;; This function calls:
  7940 ;;		Nothing
  7941 ;; This function is called by:
  7942 ;;		_I2C1_Write1ByteRegister
  7943 ;;		_rd1RegCompleteHandler
  7944 ;;		_rd2RegCompleteHandler
  7945 ;;		_wr1RegCompleteHandler
  7946 ;;		_wr2RegCompleteHandler
  7947 ;;		_rdBlkRegCompleteHandler
  7948 ;;		_I2C1_Read1ByteRegister
  7949 ;;		_I2C1_Read2ByteRegister
  7950 ;;		_I2C1_Write2ByteRegister
  7951 ;;		_I2C1_WriteNBytes
  7952 ;;		_I2C1_ReadNBytes
  7953 ;;		_I2C1_ReadDataBlock
  7954 ;; This function uses a non-reentrant model
  7955 ;;
  7956                           
  7957                           	psect	text73
  7958   001752                     __ptext73:
  7959                           	callstack 0
  7960   001752                     _I2C1_SetBuffer:
  7961                           	callstack 24
  7962   001752                     
  7963                           ;mcc_generated_files/i2c1_master.c: 293: void I2C1_SetBuffer(void *buffer, size_t buffer
      +                          Size);mcc_generated_files/i2c1_master.c: 294: {;mcc_generated_files/i2c1_master.c: 295: 
      +                              if(I2C1_Status.bufferFree)
  7964   001752  0100               	movlb	0	; () banked
  7965   001754  A983               	btfss	(_I2C1_Status+35)& (0+255),4,b
  7966   001756  EFAF  F00B         	goto	u1571
  7967   00175A  EFB1  F00B         	goto	u1570
  7968   00175E                     u1571:
  7969   00175E  EFBA  F00B         	goto	l814
  7970   001762                     u1570:
  7971   001762                     
  7972                           ; BSR set to: 0
  7973                           ;mcc_generated_files/i2c1_master.c: 296:     {;mcc_generated_files/i2c1_master.c: 297:  
      +                                 I2C1_Status.data_ptr = buffer;
  7974   001762  C003  F07D         	movff	I2C1_SetBuffer@buffer,_I2C1_Status+29
  7975   001766  C004  F07E         	movff	I2C1_SetBuffer@buffer+1,_I2C1_Status+30
  7976   00176A                     
  7977                           ; BSR set to: 0
  7978                           ;mcc_generated_files/i2c1_master.c: 298:         I2C1_Status.data_length = bufferSize;
  7979   00176A  C005  F07F         	movff	I2C1_SetBuffer@bufferSize,_I2C1_Status+31
  7980   00176E  C006  F080         	movff	I2C1_SetBuffer@bufferSize+1,_I2C1_Status+32
  7981   001772                     
  7982                           ; BSR set to: 0
  7983                           ;mcc_generated_files/i2c1_master.c: 299:         I2C1_Status.bufferFree = 0;
  7984   001772  9983               	bcf	(_I2C1_Status+35)& (0+255),4,b
  7985   001774                     l814:
  7986                           
  7987                           ; BSR set to: 0
  7988   001774  0012               	return		;funcret
  7989   001776                     __end_of_I2C1_SetBuffer:
  7990                           	callstack 0
  7991                           
  7992 ;; *************** function _I2C1_ClearInterruptFlags *****************
  7993 ;; Defined at:
  7994 ;;		line 362 in file "mcc_generated_files/i2c1_master.c"
  7995 ;; Parameters:    Size  Location     Type
  7996 ;;		None
  7997 ;; Auto vars:     Size  Location     Type
  7998 ;;		None
  7999 ;; Return value:  Size  Location     Type
  8000 ;;                  1    wreg      void 
  8001 ;; Registers used:
  8002 ;;		wreg, status,2, cstack
  8003 ;; Tracked objects:
  8004 ;;		On entry : 0/0
  8005 ;;		On exit  : 0/0
  8006 ;;		Unchanged: 0/0
  8007 ;; Data sizes:     COMRAM   BANK0   BANK1   BANK2   BANK3   BANK4   BANK5   BANK6   BANK7   BANK8   BANK9  BANK10  BANK1
      +1  BANK12  BANK13  BANK14  BANK15
  8008 ;;      Params:         0       0       0       0       0       0       0       0       0       0       0       0       
      +0       0       0       0       0
  8009 ;;      Locals:         0       0       0       0       0       0       0       0       0       0       0       0       
      +0       0       0       0       0
  8010 ;;      Temps:          0       0       0       0       0       0       0       0       0       0       0       0       
      +0       0       0       0       0
  8011 ;;      Totals:         0       0       0       0       0       0       0       0       0       0       0       0       
      +0       0       0       0       0
  8012 ;;Total ram usage:        0 bytes
  8013 ;; Hardware stack levels used: 1
  8014 ;; Hardware stack levels required when called: 4
  8015 ;; This function calls:
  8016 ;;		_I2C1_MasterClearCountFlag
  8017 ;;		_I2C1_MasterClearNackFlag
  8018 ;;		_I2C1_MasterClearStopFlag
  8019 ;;		_I2C1_MasterIsCountFlagSet
  8020 ;;		_I2C1_MasterIsNackFlagSet
  8021 ;;		_I2C1_MasterIsStopFlagSet
  8022 ;; This function is called by:
  8023 ;;		_I2C1_MasterFsm
  8024 ;; This function uses a non-reentrant model
  8025 ;;
  8026                           
  8027                           	psect	text74
  8028   001348                     __ptext74:
  8029                           	callstack 0
  8030   001348                     _I2C1_ClearInterruptFlags:
  8031                           	callstack 19
  8032   001348                     
  8033                           ;mcc_generated_files/i2c1_master.c: 364:     if(I2C1_MasterIsCountFlagSet())
  8034   001348  EC9E  F00C         	call	_I2C1_MasterIsCountFlagSet	;wreg free
  8035   00134C  0900               	iorlw	0
  8036   00134E  B4D8               	btfsc	status,2,c
  8037   001350  EFAC  F009         	goto	u1691
  8038   001354  EFAE  F009         	goto	u1690
  8039   001358                     u1691:
  8040   001358  EFB2  F009         	goto	l4153
  8041   00135C                     u1690:
  8042   00135C                     
  8043                           ;mcc_generated_files/i2c1_master.c: 365:     {;mcc_generated_files/i2c1_master.c: 366:  
      +                                 I2C1_MasterClearCountFlag();
  8044   00135C  EC2A  F00D         	call	_I2C1_MasterClearCountFlag	;wreg free
  8045                           
  8046                           ;mcc_generated_files/i2c1_master.c: 367:     }
  8047   001360  EFCC  F009         	goto	l852
  8048   001364                     l4153:
  8049   001364  EC88  F00C         	call	_I2C1_MasterIsStopFlagSet	;wreg free
  8050   001368  0900               	iorlw	0
  8051   00136A  B4D8               	btfsc	status,2,c
  8052   00136C  EFBA  F009         	goto	u1701
  8053   001370  EFBC  F009         	goto	u1700
  8054   001374                     u1701:
  8055   001374  EFC0  F009         	goto	l4157
  8056   001378                     u1700:
  8057   001378                     
  8058                           ;mcc_generated_files/i2c1_master.c: 369:     {;mcc_generated_files/i2c1_master.c: 370:  
      +                                 I2C1_MasterClearStopFlag();
  8059   001378  EC24  F00D         	call	_I2C1_MasterClearStopFlag	;wreg free
  8060                           
  8061                           ;mcc_generated_files/i2c1_master.c: 371:     }
  8062   00137C  EFCC  F009         	goto	l852
  8063   001380                     l4157:
  8064   001380  EC93  F00C         	call	_I2C1_MasterIsNackFlagSet	;wreg free
  8065   001384  0900               	iorlw	0
  8066   001386  B4D8               	btfsc	status,2,c
  8067   001388  EFC8  F009         	goto	u1711
  8068   00138C  EFCA  F009         	goto	u1710
  8069   001390                     u1711:
  8070   001390  EFCC  F009         	goto	l852
  8071   001394                     u1710:
  8072   001394                     
  8073                           ;mcc_generated_files/i2c1_master.c: 373:     {;mcc_generated_files/i2c1_master.c: 374:  
      +                                 I2C1_MasterClearNackFlag();
  8074   001394  EC27  F00D         	call	_I2C1_MasterClearNackFlag	;wreg free
  8075   001398                     l852:
  8076   001398  0012               	return		;funcret
  8077   00139A                     __end_of_I2C1_ClearInterruptFlags:
  8078                           	callstack 0
  8079                           
  8080 ;; *************** function _I2C1_MasterIsStopFlagSet *****************
  8081 ;; Defined at:
  8082 ;;		line 741 in file "mcc_generated_files/i2c1_master.c"
  8083 ;; Parameters:    Size  Location     Type
  8084 ;;		None
  8085 ;; Auto vars:     Size  Location     Type
  8086 ;;		None
  8087 ;; Return value:  Size  Location     Type
  8088 ;;                  1    wreg      _Bool 
  8089 ;; Registers used:
  8090 ;;		wreg
  8091 ;; Tracked objects:
  8092 ;;		On entry : 0/0
  8093 ;;		On exit  : 0/0
  8094 ;;		Unchanged: 0/0
  8095 ;; Data sizes:     COMRAM   BANK0   BANK1   BANK2   BANK3   BANK4   BANK5   BANK6   BANK7   BANK8   BANK9  BANK10  BANK1
      +1  BANK12  BANK13  BANK14  BANK15
  8096 ;;      Params:         0       0       0       0       0       0       0       0       0       0       0       0       
      +0       0       0       0       0
  8097 ;;      Locals:         0       0       0       0       0       0       0       0       0       0       0       0       
      +0       0       0       0       0
  8098 ;;      Temps:          0       0       0       0       0       0       0       0       0       0       0       0       
      +0       0       0       0       0
  8099 ;;      Totals:         0       0       0       0       0       0       0       0       0       0       0       0       
      +0       0       0       0       0
  8100 ;;Total ram usage:        0 bytes
  8101 ;; Hardware stack levels used: 1
  8102 ;; Hardware stack levels required when called: 3
  8103 ;; This function calls:
  8104 ;;		Nothing
  8105 ;; This function is called by:
  8106 ;;		_I2C1_ClearInterruptFlags
  8107 ;; This function uses a non-reentrant model
  8108 ;;
  8109                           
  8110                           	psect	text75
  8111   001910                     __ptext75:
  8112                           	callstack 0
  8113   001910                     _I2C1_MasterIsStopFlagSet:
  8114                           	callstack 19
  8115   001910                     
  8116                           ;mcc_generated_files/i2c1_master.c: 743:     return I2C1PIRbits.PCIF;
  8117   001910  013D               	movlb	61	; () banked
  8118   001912  B579               	btfsc	121,2,b	;volatile
  8119   001914  EF8E  F00C         	goto	u1631
  8120   001918  EF91  F00C         	goto	u1630
  8121   00191C                     u1631:
  8122   00191C  0E01               	movlw	1
  8123   00191E  EF92  F00C         	goto	u1636
  8124   001922                     u1630:
  8125   001922  0E00               	movlw	0
  8126   001924                     u1636:
  8127   001924                     
  8128                           ; BSR set to: 61
  8129   001924  0012               	return		;funcret
  8130   001926                     __end_of_I2C1_MasterIsStopFlagSet:
  8131                           	callstack 0
  8132                           
  8133 ;; *************** function _I2C1_MasterIsNackFlagSet *****************
  8134 ;; Defined at:
  8135 ;;		line 751 in file "mcc_generated_files/i2c1_master.c"
  8136 ;; Parameters:    Size  Location     Type
  8137 ;;		None
  8138 ;; Auto vars:     Size  Location     Type
  8139 ;;		None
  8140 ;; Return value:  Size  Location     Type
  8141 ;;                  1    wreg      _Bool 
  8142 ;; Registers used:
  8143 ;;		wreg
  8144 ;; Tracked objects:
  8145 ;;		On entry : 0/0
  8146 ;;		On exit  : 0/0
  8147 ;;		Unchanged: 0/0
  8148 ;; Data sizes:     COMRAM   BANK0   BANK1   BANK2   BANK3   BANK4   BANK5   BANK6   BANK7   BANK8   BANK9  BANK10  BANK1
      +1  BANK12  BANK13  BANK14  BANK15
  8149 ;;      Params:         0       0       0       0       0       0       0       0       0       0       0       0       
      +0       0       0       0       0
  8150 ;;      Locals:         0       0       0       0       0       0       0       0       0       0       0       0       
      +0       0       0       0       0
  8151 ;;      Temps:          0       0       0       0       0       0       0       0       0       0       0       0       
      +0       0       0       0       0
  8152 ;;      Totals:         0       0       0       0       0       0       0       0       0       0       0       0       
      +0       0       0       0       0
  8153 ;;Total ram usage:        0 bytes
  8154 ;; Hardware stack levels used: 1
  8155 ;; Hardware stack levels required when called: 3
  8156 ;; This function calls:
  8157 ;;		Nothing
  8158 ;; This function is called by:
  8159 ;;		_I2C1_ClearInterruptFlags
  8160 ;; This function uses a non-reentrant model
  8161 ;;
  8162                           
  8163                           	psect	text76
  8164   001926                     __ptext76:
  8165                           	callstack 0
  8166   001926                     _I2C1_MasterIsNackFlagSet:
  8167                           	callstack 19
  8168   001926                     
  8169                           ;mcc_generated_files/i2c1_master.c: 753:     return I2C1ERRbits.NACKIF;
  8170   001926  013D               	movlb	61	; () banked
  8171   001928  B976               	btfsc	118,4,b	;volatile
  8172   00192A  EF99  F00C         	goto	u1641
  8173   00192E  EF9C  F00C         	goto	u1640
  8174   001932                     u1641:
  8175   001932  0E01               	movlw	1
  8176   001934  EF9D  F00C         	goto	u1646
  8177   001938                     u1640:
  8178   001938  0E00               	movlw	0
  8179   00193A                     u1646:
  8180   00193A                     
  8181                           ; BSR set to: 61
  8182   00193A  0012               	return		;funcret
  8183   00193C                     __end_of_I2C1_MasterIsNackFlagSet:
  8184                           	callstack 0
  8185                           
  8186 ;; *************** function _I2C1_MasterIsCountFlagSet *****************
  8187 ;; Defined at:
  8188 ;;		line 746 in file "mcc_generated_files/i2c1_master.c"
  8189 ;; Parameters:    Size  Location     Type
  8190 ;;		None
  8191 ;; Auto vars:     Size  Location     Type
  8192 ;;		None
  8193 ;; Return value:  Size  Location     Type
  8194 ;;                  1    wreg      _Bool 
  8195 ;; Registers used:
  8196 ;;		wreg
  8197 ;; Tracked objects:
  8198 ;;		On entry : 0/0
  8199 ;;		On exit  : 0/0
  8200 ;;		Unchanged: 0/0
  8201 ;; Data sizes:     COMRAM   BANK0   BANK1   BANK2   BANK3   BANK4   BANK5   BANK6   BANK7   BANK8   BANK9  BANK10  BANK1
      +1  BANK12  BANK13  BANK14  BANK15
  8202 ;;      Params:         0       0       0       0       0       0       0       0       0       0       0       0       
      +0       0       0       0       0
  8203 ;;      Locals:         0       0       0       0       0       0       0       0       0       0       0       0       
      +0       0       0       0       0
  8204 ;;      Temps:          0       0       0       0       0       0       0       0       0       0       0       0       
      +0       0       0       0       0
  8205 ;;      Totals:         0       0       0       0       0       0       0       0       0       0       0       0       
      +0       0       0       0       0
  8206 ;;Total ram usage:        0 bytes
  8207 ;; Hardware stack levels used: 1
  8208 ;; Hardware stack levels required when called: 3
  8209 ;; This function calls:
  8210 ;;		Nothing
  8211 ;; This function is called by:
  8212 ;;		_I2C1_ClearInterruptFlags
  8213 ;; This function uses a non-reentrant model
  8214 ;;
  8215                           
  8216                           	psect	text77
  8217   00193C                     __ptext77:
  8218                           	callstack 0
  8219   00193C                     _I2C1_MasterIsCountFlagSet:
  8220                           	callstack 19
  8221   00193C                     
  8222                           ;mcc_generated_files/i2c1_master.c: 748:     return I2C1PIRbits.CNTIF;
  8223   00193C  013D               	movlb	61	; () banked
  8224   00193E  BF79               	btfsc	121,7,b	;volatile
  8225   001940  EFA4  F00C         	goto	u1621
  8226   001944  EFA7  F00C         	goto	u1620
  8227   001948                     u1621:
  8228   001948  0E01               	movlw	1
  8229   00194A  EFA8  F00C         	goto	u1626
  8230   00194E                     u1620:
  8231   00194E  0E00               	movlw	0
  8232   001950                     u1626:
  8233   001950                     
  8234                           ; BSR set to: 61
  8235   001950  0012               	return		;funcret
  8236   001952                     __end_of_I2C1_MasterIsCountFlagSet:
  8237                           	callstack 0
  8238                           
  8239 ;; *************** function _I2C1_MasterClearStopFlag *****************
  8240 ;; Defined at:
  8241 ;;		line 756 in file "mcc_generated_files/i2c1_master.c"
  8242 ;; Parameters:    Size  Location     Type
  8243 ;;		None
  8244 ;; Auto vars:     Size  Location     Type
  8245 ;;		None
  8246 ;; Return value:  Size  Location     Type
  8247 ;;                  1    wreg      void 
  8248 ;; Registers used:
  8249 ;;		None
  8250 ;; Tracked objects:
  8251 ;;		On entry : 0/0
  8252 ;;		On exit  : 0/0
  8253 ;;		Unchanged: 0/0
  8254 ;; Data sizes:     COMRAM   BANK0   BANK1   BANK2   BANK3   BANK4   BANK5   BANK6   BANK7   BANK8   BANK9  BANK10  BANK1
      +1  BANK12  BANK13  BANK14  BANK15
  8255 ;;      Params:         0       0       0       0       0       0       0       0       0       0       0       0       
      +0       0       0       0       0
  8256 ;;      Locals:         0       0       0       0       0       0       0       0       0       0       0       0       
      +0       0       0       0       0
  8257 ;;      Temps:          0       0       0       0       0       0       0       0       0       0       0       0       
      +0       0       0       0       0
  8258 ;;      Totals:         0       0       0       0       0       0       0       0       0       0       0       0       
      +0       0       0       0       0
  8259 ;;Total ram usage:        0 bytes
  8260 ;; Hardware stack levels used: 1
  8261 ;; Hardware stack levels required when called: 3
  8262 ;; This function calls:
  8263 ;;		Nothing
  8264 ;; This function is called by:
  8265 ;;		_I2C1_ClearInterruptFlags
  8266 ;; This function uses a non-reentrant model
  8267 ;;
  8268                           
  8269                           	psect	text78
  8270   001A48                     __ptext78:
  8271                           	callstack 0
  8272   001A48                     _I2C1_MasterClearStopFlag:
  8273                           	callstack 19
  8274   001A48                     
  8275                           ;mcc_generated_files/i2c1_master.c: 758:     I2C1PIRbits.PCIF = 0;
  8276   001A48  013D               	movlb	61	; () banked
  8277   001A4A  9579               	bcf	121,2,b	;volatile
  8278   001A4C                     
  8279                           ; BSR set to: 61
  8280   001A4C  0012               	return		;funcret
  8281   001A4E                     __end_of_I2C1_MasterClearStopFlag:
  8282                           	callstack 0
  8283                           
  8284 ;; *************** function _I2C1_MasterClearNackFlag *****************
  8285 ;; Defined at:
  8286 ;;		line 766 in file "mcc_generated_files/i2c1_master.c"
  8287 ;; Parameters:    Size  Location     Type
  8288 ;;		None
  8289 ;; Auto vars:     Size  Location     Type
  8290 ;;		None
  8291 ;; Return value:  Size  Location     Type
  8292 ;;                  1    wreg      void 
  8293 ;; Registers used:
  8294 ;;		None
  8295 ;; Tracked objects:
  8296 ;;		On entry : 0/0
  8297 ;;		On exit  : 0/0
  8298 ;;		Unchanged: 0/0
  8299 ;; Data sizes:     COMRAM   BANK0   BANK1   BANK2   BANK3   BANK4   BANK5   BANK6   BANK7   BANK8   BANK9  BANK10  BANK1
      +1  BANK12  BANK13  BANK14  BANK15
  8300 ;;      Params:         0       0       0       0       0       0       0       0       0       0       0       0       
      +0       0       0       0       0
  8301 ;;      Locals:         0       0       0       0       0       0       0       0       0       0       0       0       
      +0       0       0       0       0
  8302 ;;      Temps:          0       0       0       0       0       0       0       0       0       0       0       0       
      +0       0       0       0       0
  8303 ;;      Totals:         0       0       0       0       0       0       0       0       0       0       0       0       
      +0       0       0       0       0
  8304 ;;Total ram usage:        0 bytes
  8305 ;; Hardware stack levels used: 1
  8306 ;; Hardware stack levels required when called: 3
  8307 ;; This function calls:
  8308 ;;		Nothing
  8309 ;; This function is called by:
  8310 ;;		_I2C1_ClearInterruptFlags
  8311 ;; This function uses a non-reentrant model
  8312 ;;
  8313                           
  8314                           	psect	text79
  8315   001A4E                     __ptext79:
  8316                           	callstack 0
  8317   001A4E                     _I2C1_MasterClearNackFlag:
  8318                           	callstack 19
  8319   001A4E                     
  8320                           ;mcc_generated_files/i2c1_master.c: 768:     I2C1ERRbits.NACKIF = 0;
  8321   001A4E  013D               	movlb	61	; () banked
  8322   001A50  9976               	bcf	118,4,b	;volatile
  8323   001A52                     
  8324                           ; BSR set to: 61
  8325   001A52  0012               	return		;funcret
  8326   001A54                     __end_of_I2C1_MasterClearNackFlag:
  8327                           	callstack 0
  8328                           
  8329 ;; *************** function _I2C1_MasterClearCountFlag *****************
  8330 ;; Defined at:
  8331 ;;		line 761 in file "mcc_generated_files/i2c1_master.c"
  8332 ;; Parameters:    Size  Location     Type
  8333 ;;		None
  8334 ;; Auto vars:     Size  Location     Type
  8335 ;;		None
  8336 ;; Return value:  Size  Location     Type
  8337 ;;                  1    wreg      void 
  8338 ;; Registers used:
  8339 ;;		None
  8340 ;; Tracked objects:
  8341 ;;		On entry : 0/0
  8342 ;;		On exit  : 0/0
  8343 ;;		Unchanged: 0/0
  8344 ;; Data sizes:     COMRAM   BANK0   BANK1   BANK2   BANK3   BANK4   BANK5   BANK6   BANK7   BANK8   BANK9  BANK10  BANK1
      +1  BANK12  BANK13  BANK14  BANK15
  8345 ;;      Params:         0       0       0       0       0       0       0       0       0       0       0       0       
      +0       0       0       0       0
  8346 ;;      Locals:         0       0       0       0       0       0       0       0       0       0       0       0       
      +0       0       0       0       0
  8347 ;;      Temps:          0       0       0       0       0       0       0       0       0       0       0       0       
      +0       0       0       0       0
  8348 ;;      Totals:         0       0       0       0       0       0       0       0       0       0       0       0       
      +0       0       0       0       0
  8349 ;;Total ram usage:        0 bytes
  8350 ;; Hardware stack levels used: 1
  8351 ;; Hardware stack levels required when called: 3
  8352 ;; This function calls:
  8353 ;;		Nothing
  8354 ;; This function is called by:
  8355 ;;		_I2C1_ClearInterruptFlags
  8356 ;; This function uses a non-reentrant model
  8357 ;;
  8358                           
  8359                           	psect	text80
  8360   001A54                     __ptext80:
  8361                           	callstack 0
  8362   001A54                     _I2C1_MasterClearCountFlag:
  8363                           	callstack 19
  8364   001A54                     
  8365                           ;mcc_generated_files/i2c1_master.c: 763:     I2C1PIRbits.CNTIF = 0;
  8366   001A54  013D               	movlb	61	; () banked
  8367   001A56  9F79               	bcf	121,7,b	;volatile
  8368   001A58                     
  8369                           ; BSR set to: 61
  8370   001A58  0012               	return		;funcret
  8371   001A5A                     __end_of_I2C1_MasterClearCountFlag:
  8372                           	callstack 0
  8373                           
  8374 ;; *************** function _I2C1_Close *****************
  8375 ;; Defined at:
  8376 ;;		line 237 in file "mcc_generated_files/i2c1_master.c"
  8377 ;; Parameters:    Size  Location     Type
  8378 ;;		None
  8379 ;; Auto vars:     Size  Location     Type
  8380 ;;  returnValue     1    2[COMRAM] enum E358
  8381 ;; Return value:  Size  Location     Type
  8382 ;;                  1    wreg      enum E358
  8383 ;; Registers used:
  8384 ;;		wreg, status,2, cstack
  8385 ;; Tracked objects:
  8386 ;;		On entry : 0/0
  8387 ;;		On exit  : 0/0
  8388 ;;		Unchanged: 0/0
  8389 ;; Data sizes:     COMRAM   BANK0   BANK1   BANK2   BANK3   BANK4   BANK5   BANK6   BANK7   BANK8   BANK9  BANK10  BANK1
      +1  BANK12  BANK13  BANK14  BANK15
  8390 ;;      Params:         0       0       0       0       0       0       0       0       0       0       0       0       
      +0       0       0       0       0
  8391 ;;      Locals:         1       0       0       0       0       0       0       0       0       0       0       0       
      +0       0       0       0       0
  8392 ;;      Temps:          0       0       0       0       0       0       0       0       0       0       0       0       
      +0       0       0       0       0
  8393 ;;      Totals:         1       0       0       0       0       0       0       0       0       0       0       0       
      +0       0       0       0       0
  8394 ;;Total ram usage:        1 bytes
  8395 ;; Hardware stack levels used: 1
  8396 ;; Hardware stack levels required when called: 4
  8397 ;; This function calls:
  8398 ;;		_I2C1_MasterClearIrq
  8399 ;;		_I2C1_MasterClose
  8400 ;;		_I2C1_MasterDisableIrq
  8401 ;; This function is called by:
  8402 ;;		_I2C1_Write1ByteRegister
  8403 ;;		_I2C1_Read1ByteRegister
  8404 ;;		_I2C1_Read2ByteRegister
  8405 ;;		_I2C1_Write2ByteRegister
  8406 ;;		_I2C1_WriteNBytes
  8407 ;;		_I2C1_ReadNBytes
  8408 ;;		_I2C1_ReadDataBlock
  8409 ;; This function uses a non-reentrant model
  8410 ;;
  8411                           
  8412                           	psect	text81
  8413   0016D8                     __ptext81:
  8414                           	callstack 0
  8415   0016D8                     _I2C1_Close:
  8416                           	callstack 23
  8417   0016D8                     
  8418                           ;mcc_generated_files/i2c1_master.c: 239:     i2c1_error_t returnValue = I2C1_BUSY;
  8419   0016D8  0E01               	movlw	1
  8420   0016DA  6E03               	movwf	I2C1_Close@returnValue^0,c
  8421   0016DC                     
  8422                           ;mcc_generated_files/i2c1_master.c: 240:     if(!I2C1_Status.busy)
  8423   0016DC  0100               	movlb	0	; () banked
  8424   0016DE  B583               	btfsc	(_I2C1_Status+35)& (0+255),2,b
  8425   0016E0  EF74  F00B         	goto	u2231
  8426   0016E4  EF76  F00B         	goto	u2230
  8427   0016E8                     u2231:
  8428   0016E8  EF80  F00B         	goto	l4623
  8429   0016EC                     u2230:
  8430   0016EC                     
  8431                           ; BSR set to: 0
  8432                           ;mcc_generated_files/i2c1_master.c: 241:     {;mcc_generated_files/i2c1_master.c: 242:  
      +                                 I2C1_Status.inUse = 0;
  8433   0016EC  9783               	bcf	(_I2C1_Status+35)& (0+255),3,b
  8434                           
  8435                           ;mcc_generated_files/i2c1_master.c: 243:         I2C1_Status.address = 0xff;
  8436   0016EE  697C               	setf	(_I2C1_Status+28)& (0+255),b
  8437   0016F0                     
  8438                           ; BSR set to: 0
  8439                           ;mcc_generated_files/i2c1_master.c: 244:         I2C1_MasterClearIrq();
  8440   0016F0  EC0B  F00D         	call	_I2C1_MasterClearIrq	;wreg free
  8441   0016F4                     
  8442                           ;mcc_generated_files/i2c1_master.c: 245:         I2C1_MasterDisableIrq();
  8443   0016F4  EC0D  F00C         	call	_I2C1_MasterDisableIrq	;wreg free
  8444   0016F8                     
  8445                           ;mcc_generated_files/i2c1_master.c: 246:         I2C1_MasterClose();
  8446   0016F8  ECCD  F00C         	call	_I2C1_MasterClose	;wreg free
  8447   0016FC                     
  8448                           ;mcc_generated_files/i2c1_master.c: 247:         returnValue = I2C1_Status.error;
  8449   0016FC  C082  F003         	movff	_I2C1_Status+34,I2C1_Close@returnValue
  8450   001700                     l4623:
  8451                           
  8452                           ;mcc_generated_files/i2c1_master.c: 249:     return returnValue;
  8453   001700  5003               	movf	I2C1_Close@returnValue^0,w,c
  8454   001702  0012               	return		;funcret
  8455   001704                     __end_of_I2C1_Close:
  8456                           	callstack 0
  8457                           
  8458 ;; *************** function _I2C1_MasterDisableIrq *****************
  8459 ;; Defined at:
  8460 ;;		line 788 in file "mcc_generated_files/i2c1_master.c"
  8461 ;; Parameters:    Size  Location     Type
  8462 ;;		None
  8463 ;; Auto vars:     Size  Location     Type
  8464 ;;		None
  8465 ;; Return value:  Size  Location     Type
  8466 ;;                  1    wreg      void 
  8467 ;; Registers used:
  8468 ;;		None
  8469 ;; Tracked objects:
  8470 ;;		On entry : 0/0
  8471 ;;		On exit  : 0/0
  8472 ;;		Unchanged: 0/0
  8473 ;; Data sizes:     COMRAM   BANK0   BANK1   BANK2   BANK3   BANK4   BANK5   BANK6   BANK7   BANK8   BANK9  BANK10  BANK1
      +1  BANK12  BANK13  BANK14  BANK15
  8474 ;;      Params:         0       0       0       0       0       0       0       0       0       0       0       0       
      +0       0       0       0       0
  8475 ;;      Locals:         0       0       0       0       0       0       0       0       0       0       0       0       
      +0       0       0       0       0
  8476 ;;      Temps:          0       0       0       0       0       0       0       0       0       0       0       0       
      +0       0       0       0       0
  8477 ;;      Totals:         0       0       0       0       0       0       0       0       0       0       0       0       
      +0       0       0       0       0
  8478 ;;Total ram usage:        0 bytes
  8479 ;; Hardware stack levels used: 1
  8480 ;; Hardware stack levels required when called: 3
  8481 ;; This function calls:
  8482 ;;		Nothing
  8483 ;; This function is called by:
  8484 ;;		_I2C1_Close
  8485 ;;		_I2C1_SetTimeOut
  8486 ;; This function uses a non-reentrant model
  8487 ;;
  8488                           
  8489                           	psect	text82
  8490   00181A                     __ptext82:
  8491                           	callstack 0
  8492   00181A                     _I2C1_MasterDisableIrq:
  8493                           	callstack 23
  8494   00181A                     
  8495                           ;mcc_generated_files/i2c1_master.c: 790:     PIE3bits.I2C1IE = 0;
  8496   00181A  0139               	movlb	57	; () banked
  8497   00181C  9393               	bcf	147,1,b	;volatile
  8498                           
  8499                           ;mcc_generated_files/i2c1_master.c: 791:     PIE3bits.I2C1EIE = 0;
  8500   00181E  9593               	bcf	147,2,b	;volatile
  8501                           
  8502                           ;mcc_generated_files/i2c1_master.c: 792:     PIE2bits.I2C1RXIE = 0;
  8503   001820  9F92               	bcf	146,7,b	;volatile
  8504                           
  8505                           ;mcc_generated_files/i2c1_master.c: 793:     PIE3bits.I2C1TXIE = 0;
  8506   001822  9193               	bcf	147,0,b	;volatile
  8507                           
  8508                           ;mcc_generated_files/i2c1_master.c: 794:     I2C1PIEbits.SCIE = 0;
  8509   001824  013D               	movlb	61	; () banked
  8510   001826  917A               	bcf	122,0,b	;volatile
  8511                           
  8512                           ;mcc_generated_files/i2c1_master.c: 795:     I2C1PIEbits.PCIE = 0;
  8513   001828  957A               	bcf	122,2,b	;volatile
  8514                           
  8515                           ;mcc_generated_files/i2c1_master.c: 796:     I2C1PIEbits.CNTIE = 0;
  8516   00182A  9F7A               	bcf	122,7,b	;volatile
  8517                           
  8518                           ;mcc_generated_files/i2c1_master.c: 797:     I2C1PIEbits.ACKTIE = 0;
  8519   00182C  9D7A               	bcf	122,6,b	;volatile
  8520                           
  8521                           ;mcc_generated_files/i2c1_master.c: 798:     I2C1PIEbits.RSCIE = 0;
  8522   00182E  937A               	bcf	122,1,b	;volatile
  8523                           
  8524                           ;mcc_generated_files/i2c1_master.c: 799:     I2C1ERRbits.BCLIE = 0;
  8525   001830  9376               	bcf	118,1,b	;volatile
  8526                           
  8527                           ;mcc_generated_files/i2c1_master.c: 800:     I2C1ERRbits.BTOIE = 0;
  8528   001832  9576               	bcf	118,2,b	;volatile
  8529                           
  8530                           ;mcc_generated_files/i2c1_master.c: 801:     I2C1ERRbits.NACKIE = 0;
  8531   001834  9176               	bcf	118,0,b	;volatile
  8532   001836                     
  8533                           ; BSR set to: 61
  8534   001836  0012               	return		;funcret
  8535   001838                     __end_of_I2C1_MasterDisableIrq:
  8536                           	callstack 0
  8537                           
  8538 ;; *************** function _I2C1_MasterClose *****************
  8539 ;; Defined at:
  8540 ;;		line 651 in file "mcc_generated_files/i2c1_master.c"
  8541 ;; Parameters:    Size  Location     Type
  8542 ;;		None
  8543 ;; Auto vars:     Size  Location     Type
  8544 ;;		None
  8545 ;; Return value:  Size  Location     Type
  8546 ;;                  1    wreg      void 
  8547 ;; Registers used:
  8548 ;;		wreg, status,2
  8549 ;; Tracked objects:
  8550 ;;		On entry : 0/0
  8551 ;;		On exit  : 0/0
  8552 ;;		Unchanged: 0/0
  8553 ;; Data sizes:     COMRAM   BANK0   BANK1   BANK2   BANK3   BANK4   BANK5   BANK6   BANK7   BANK8   BANK9  BANK10  BANK1
      +1  BANK12  BANK13  BANK14  BANK15
  8554 ;;      Params:         0       0       0       0       0       0       0       0       0       0       0       0       
      +0       0       0       0       0
  8555 ;;      Locals:         0       0       0       0       0       0       0       0       0       0       0       0       
      +0       0       0       0       0
  8556 ;;      Temps:          0       0       0       0       0       0       0       0       0       0       0       0       
      +0       0       0       0       0
  8557 ;;      Totals:         0       0       0       0       0       0       0       0       0       0       0       0       
      +0       0       0       0       0
  8558 ;;Total ram usage:        0 bytes
  8559 ;; Hardware stack levels used: 1
  8560 ;; Hardware stack levels required when called: 3
  8561 ;; This function calls:
  8562 ;;		Nothing
  8563 ;; This function is called by:
  8564 ;;		_I2C1_Close
  8565 ;; This function uses a non-reentrant model
  8566 ;;
  8567                           
  8568                           	psect	text83
  8569   00199A                     __ptext83:
  8570                           	callstack 0
  8571   00199A                     _I2C1_MasterClose:
  8572                           	callstack 23
  8573   00199A                     
  8574                           ;mcc_generated_files/i2c1_master.c: 654:     I2C1CON0bits.EN = 0;
  8575   00199A  013D               	movlb	61	; () banked
  8576   00199C  9F73               	bcf	115,7,b	;volatile
  8577   00199E                     
  8578                           ; BSR set to: 61
  8579                           ;mcc_generated_files/i2c1_master.c: 656:     I2C1PIR = 0x00;
  8580   00199E  0E00               	movlw	0
  8581   0019A0  6F79               	movwf	121,b	;volatile
  8582   0019A2                     
  8583                           ; BSR set to: 61
  8584                           ;mcc_generated_files/i2c1_master.c: 658:     I2C1STAT1bits.CLRBF = 1;
  8585   0019A2  8578               	bsf	120,2,b	;volatile
  8586   0019A4                     
  8587                           ; BSR set to: 61
  8588   0019A4  0012               	return		;funcret
  8589   0019A6                     __end_of_I2C1_MasterClose:
  8590                           	callstack 0
  8591                           
  8592 ;; *************** function _I2C1_MasterClearIrq *****************
  8593 ;; Defined at:
  8594 ;;		line 804 in file "mcc_generated_files/i2c1_master.c"
  8595 ;; Parameters:    Size  Location     Type
  8596 ;;		None
  8597 ;; Auto vars:     Size  Location     Type
  8598 ;;		None
  8599 ;; Return value:  Size  Location     Type
  8600 ;;                  1    wreg      void 
  8601 ;; Registers used:
  8602 ;;		wreg, status,2
  8603 ;; Tracked objects:
  8604 ;;		On entry : 0/0
  8605 ;;		On exit  : 0/0
  8606 ;;		Unchanged: 0/0
  8607 ;; Data sizes:     COMRAM   BANK0   BANK1   BANK2   BANK3   BANK4   BANK5   BANK6   BANK7   BANK8   BANK9  BANK10  BANK1
      +1  BANK12  BANK13  BANK14  BANK15
  8608 ;;      Params:         0       0       0       0       0       0       0       0       0       0       0       0       
      +0       0       0       0       0
  8609 ;;      Locals:         0       0       0       0       0       0       0       0       0       0       0       0       
      +0       0       0       0       0
  8610 ;;      Temps:          0       0       0       0       0       0       0       0       0       0       0       0       
      +0       0       0       0       0
  8611 ;;      Totals:         0       0       0       0       0       0       0       0       0       0       0       0       
      +0       0       0       0       0
  8612 ;;Total ram usage:        0 bytes
  8613 ;; Hardware stack levels used: 1
  8614 ;; Hardware stack levels required when called: 3
  8615 ;; This function calls:
  8616 ;;		Nothing
  8617 ;; This function is called by:
  8618 ;;		_I2C1_Open
  8619 ;;		_I2C1_Close
  8620 ;;		_I2C1_DO_BUS_COLLISION
  8621 ;; This function uses a non-reentrant model
  8622 ;;
  8623                           
  8624                           	psect	text84
  8625   001A16                     __ptext84:
  8626                           	callstack 0
  8627   001A16                     _I2C1_MasterClearIrq:
  8628                           	callstack 23
  8629   001A16                     
  8630                           ;mcc_generated_files/i2c1_master.c: 806:     I2C1PIR = 0x00;
  8631   001A16  0E00               	movlw	0
  8632   001A18  013D               	movlb	61	; () banked
  8633   001A1A  6F79               	movwf	121,b	;volatile
  8634   001A1C                     
  8635                           ; BSR set to: 61
  8636   001A1C  0012               	return		;funcret
  8637   001A1E                     __end_of_I2C1_MasterClearIrq:
  8638                           	callstack 0
  8639                           
  8640 ;; *************** function _SYSTEM_Initialize *****************
  8641 ;; Defined at:
  8642 ;;		line 50 in file "mcc_generated_files/mcc.c"
  8643 ;; Parameters:    Size  Location     Type
  8644 ;;		None
  8645 ;; Auto vars:     Size  Location     Type
  8646 ;;		None
  8647 ;; Return value:  Size  Location     Type
  8648 ;;                  1    wreg      void 
  8649 ;; Registers used:
  8650 ;;		wreg, status,2, status,0, cstack
  8651 ;; Tracked objects:
  8652 ;;		On entry : 0/0
  8653 ;;		On exit  : 0/0
  8654 ;;		Unchanged: 0/0
  8655 ;; Data sizes:     COMRAM   BANK0   BANK1   BANK2   BANK3   BANK4   BANK5   BANK6   BANK7   BANK8   BANK9  BANK10  BANK1
      +1  BANK12  BANK13  BANK14  BANK15
  8656 ;;      Params:         0       0       0       0       0       0       0       0       0       0       0       0       
      +0       0       0       0       0
  8657 ;;      Locals:         0       0       0       0       0       0       0       0       0       0       0       0       
      +0       0       0       0       0
  8658 ;;      Temps:          0       0       0       0       0       0       0       0       0       0       0       0       
      +0       0       0       0       0
  8659 ;;      Totals:         0       0       0       0       0       0       0       0       0       0       0       0       
      +0       0       0       0       0
  8660 ;;Total ram usage:        0 bytes
  8661 ;; Hardware stack levels used: 1
  8662 ;; Hardware stack levels required when called: 5
  8663 ;; This function calls:
  8664 ;;		_ADCC_Initialize
  8665 ;;		_I2C1_Initialize
  8666 ;;		_INTERRUPT_Initialize
  8667 ;;		_OSCILLATOR_Initialize
  8668 ;;		_PIN_MANAGER_Initialize
  8669 ;;		_PMD_Initialize
  8670 ;;		_TMR0_Initialize
  8671 ;;		_TMR2_Initialize
  8672 ;;		_UART2_Initialize
  8673 ;; This function is called by:
  8674 ;;		_main
  8675 ;; This function uses a non-reentrant model
  8676 ;;
  8677                           
  8678                           	psect	text85
  8679   00172C                     __ptext85:
  8680                           	callstack 0
  8681   00172C                     _SYSTEM_Initialize:
  8682                           	callstack 25
  8683   00172C                     
  8684                           ;mcc_generated_files/mcc.c: 52:     INTERRUPT_Initialize();
  8685   00172C  EC35  F00D         	call	_INTERRUPT_Initialize	;wreg free
  8686   001730                     
  8687                           ;mcc_generated_files/mcc.c: 53:     PMD_Initialize();
  8688   001730  ECBB  F00B         	call	_PMD_Initialize	;wreg free
  8689   001734                     
  8690                           ;mcc_generated_files/mcc.c: 54:     I2C1_Initialize();
  8691   001734  ECDE  F00B         	call	_I2C1_Initialize	;wreg free
  8692   001738                     
  8693                           ;mcc_generated_files/mcc.c: 55:     PIN_MANAGER_Initialize();
  8694   001738  ECFA  F007         	call	_PIN_MANAGER_Initialize	;wreg free
  8695   00173C                     
  8696                           ;mcc_generated_files/mcc.c: 56:     OSCILLATOR_Initialize();
  8697   00173C  EC50  F00C         	call	_OSCILLATOR_Initialize	;wreg free
  8698   001740                     
  8699                           ;mcc_generated_files/mcc.c: 57:     ADCC_Initialize();
  8700   001740  ECF7  F008         	call	_ADCC_Initialize	;wreg free
  8701   001744                     
  8702                           ;mcc_generated_files/mcc.c: 58:     TMR2_Initialize();
  8703   001744  EC1C  F00C         	call	_TMR2_Initialize	;wreg free
  8704   001748                     
  8705                           ;mcc_generated_files/mcc.c: 59:     TMR0_Initialize();
  8706   001748  EC73  F00A         	call	_TMR0_Initialize	;wreg free
  8707   00174C                     
  8708                           ;mcc_generated_files/mcc.c: 60:     UART2_Initialize();
  8709   00174C  EC63  F008         	call	_UART2_Initialize	;wreg free
  8710   001750  0012               	return		;funcret
  8711   001752                     __end_of_SYSTEM_Initialize:
  8712                           	callstack 0
  8713                           
  8714 ;; *************** function _UART2_Initialize *****************
  8715 ;; Defined at:
  8716 ;;		line 66 in file "mcc_generated_files/uart2.c"
  8717 ;; Parameters:    Size  Location     Type
  8718 ;;		None
  8719 ;; Auto vars:     Size  Location     Type
  8720 ;;		None
  8721 ;; Return value:  Size  Location     Type
  8722 ;;                  1    wreg      void 
  8723 ;; Registers used:
  8724 ;;		wreg, status,2, status,0, cstack
  8725 ;; Tracked objects:
  8726 ;;		On entry : 0/0
  8727 ;;		On exit  : 0/0
  8728 ;;		Unchanged: 0/0
  8729 ;; Data sizes:     COMRAM   BANK0   BANK1   BANK2   BANK3   BANK4   BANK5   BANK6   BANK7   BANK8   BANK9  BANK10  BANK1
      +1  BANK12  BANK13  BANK14  BANK15
  8730 ;;      Params:         0       0       0       0       0       0       0       0       0       0       0       0       
      +0       0       0       0       0
  8731 ;;      Locals:         0       0       0       0       0       0       0       0       0       0       0       0       
      +0       0       0       0       0
  8732 ;;      Temps:          0       0       0       0       0       0       0       0       0       0       0       0       
      +0       0       0       0       0
  8733 ;;      Totals:         0       0       0       0       0       0       0       0       0       0       0       0       
      +0       0       0       0       0
  8734 ;;Total ram usage:        0 bytes
  8735 ;; Hardware stack levels used: 1
  8736 ;; Hardware stack levels required when called: 4
  8737 ;; This function calls:
  8738 ;;		_UART2_SetErrorHandler
  8739 ;;		_UART2_SetFramingErrorHandler
  8740 ;;		_UART2_SetOverrunErrorHandler
  8741 ;; This function is called by:
  8742 ;;		_SYSTEM_Initialize
  8743 ;; This function uses a non-reentrant model
  8744 ;;
  8745                           
  8746                           	psect	text86
  8747   0010C6                     __ptext86:
  8748                           	callstack 0
  8749   0010C6                     _UART2_Initialize:
  8750                           	callstack 25
  8751   0010C6                     
  8752                           ;mcc_generated_files/uart2.c: 73:     U2P1L = 0x00;
  8753   0010C6  0E00               	movlw	0
  8754   0010C8  013D               	movlb	61	; () banked
  8755   0010CA  6FD4               	movwf	212,b	;volatile
  8756                           
  8757                           ;mcc_generated_files/uart2.c: 76:     U2P1H = 0x00;
  8758   0010CC  0E00               	movlw	0
  8759   0010CE  6FD5               	movwf	213,b	;volatile
  8760                           
  8761                           ;mcc_generated_files/uart2.c: 79:     U2P2L = 0x00;
  8762   0010D0  0E00               	movlw	0
  8763   0010D2  6FD6               	movwf	214,b	;volatile
  8764                           
  8765                           ;mcc_generated_files/uart2.c: 82:     U2P2H = 0x00;
  8766   0010D4  0E00               	movlw	0
  8767   0010D6  6FD7               	movwf	215,b	;volatile
  8768                           
  8769                           ;mcc_generated_files/uart2.c: 85:     U2P3L = 0x00;
  8770   0010D8  0E00               	movlw	0
  8771   0010DA  6FD8               	movwf	216,b	;volatile
  8772                           
  8773                           ;mcc_generated_files/uart2.c: 88:     U2P3H = 0x00;
  8774   0010DC  0E00               	movlw	0
  8775   0010DE  6FD9               	movwf	217,b	;volatile
  8776                           
  8777                           ;mcc_generated_files/uart2.c: 91:     U2CON0 = 0xA0;
  8778   0010E0  0EA0               	movlw	160
  8779   0010E2  6FDA               	movwf	218,b	;volatile
  8780                           
  8781                           ;mcc_generated_files/uart2.c: 94:     U2CON1 = 0x80;
  8782   0010E4  0E80               	movlw	128
  8783   0010E6  6FDB               	movwf	219,b	;volatile
  8784                           
  8785                           ;mcc_generated_files/uart2.c: 97:     U2CON2 = 0x00;
  8786   0010E8  0E00               	movlw	0
  8787   0010EA  6FDC               	movwf	220,b	;volatile
  8788                           
  8789                           ;mcc_generated_files/uart2.c: 100:     U2BRGL = 0x08;
  8790   0010EC  0E08               	movlw	8
  8791   0010EE  6FDD               	movwf	221,b	;volatile
  8792                           
  8793                           ;mcc_generated_files/uart2.c: 103:     U2BRGH = 0x00;
  8794   0010F0  0E00               	movlw	0
  8795   0010F2  6FDE               	movwf	222,b	;volatile
  8796                           
  8797                           ;mcc_generated_files/uart2.c: 106:     U2FIFO = 0x00;
  8798   0010F4  0E00               	movlw	0
  8799   0010F6  6FDF               	movwf	223,b	;volatile
  8800                           
  8801                           ;mcc_generated_files/uart2.c: 109:     U2UIR = 0x00;
  8802   0010F8  0E00               	movlw	0
  8803   0010FA  6FE0               	movwf	224,b	;volatile
  8804                           
  8805                           ;mcc_generated_files/uart2.c: 112:     U2ERRIR = 0x00;
  8806   0010FC  0E00               	movlw	0
  8807   0010FE  6FE1               	movwf	225,b	;volatile
  8808                           
  8809                           ;mcc_generated_files/uart2.c: 115:     U2ERRIE = 0x00;
  8810   001100  0E00               	movlw	0
  8811   001102  6FE2               	movwf	226,b	;volatile
  8812   001104                     
  8813                           ; BSR set to: 61
  8814                           ;mcc_generated_files/uart2.c: 118:     UART2_SetFramingErrorHandler(UART2_DefaultFraming
      +                          ErrorHandler);
  8815   001104  0E00               	movlw	0
  8816   001106  6E03               	movwf	UART2_SetFramingErrorHandler@interruptHandler^0,c
  8817   001108  0E00               	movlw	0
  8818   00110A  6E04               	movwf	(UART2_SetFramingErrorHandler@interruptHandler+1)^0,c
  8819   00110C  ECEC  F00C         	call	_UART2_SetFramingErrorHandler	;wreg free
  8820   001110                     
  8821                           ;mcc_generated_files/uart2.c: 119:     UART2_SetOverrunErrorHandler(UART2_DefaultOverrun
      +                          ErrorHandler);
  8822   001110  0E00               	movlw	0
  8823   001112  6E03               	movwf	UART2_SetOverrunErrorHandler@interruptHandler^0,c
  8824   001114  0E00               	movlw	0
  8825   001116  6E04               	movwf	(UART2_SetOverrunErrorHandler@interruptHandler+1)^0,c
  8826   001118  ECE7  F00C         	call	_UART2_SetOverrunErrorHandler	;wreg free
  8827   00111C                     
  8828                           ;mcc_generated_files/uart2.c: 120:     UART2_SetErrorHandler(UART2_DefaultErrorHandler);
  8829   00111C  0E00               	movlw	0
  8830   00111E  6E03               	movwf	UART2_SetErrorHandler@interruptHandler^0,c
  8831   001120  0E00               	movlw	0
  8832   001122  6E04               	movwf	(UART2_SetErrorHandler@interruptHandler+1)^0,c
  8833   001124  ECF1  F00C         	call	_UART2_SetErrorHandler	;wreg free
  8834   001128                     
  8835                           ;mcc_generated_files/uart2.c: 122:     uart2RxLastError.status = 0;
  8836   001128  0E00               	movlw	0
  8837   00112A  6E53               	movwf	_uart2RxLastError^0,c	;volatile
  8838   00112C  0012               	return		;funcret
  8839   00112E                     __end_of_UART2_Initialize:
  8840                           	callstack 0
  8841                           
  8842 ;; *************** function _UART2_SetOverrunErrorHandler *****************
  8843 ;; Defined at:
  8844 ;;		line 204 in file "mcc_generated_files/uart2.c"
  8845 ;; Parameters:    Size  Location     Type
  8846 ;;  interruptHan    2    2[COMRAM] PTR FTN()void 
  8847 ;;		 -> UART2_DefaultOverrunErrorHandler(1), 
  8848 ;; Auto vars:     Size  Location     Type
  8849 ;;		None
  8850 ;; Return value:  Size  Location     Type
  8851 ;;                  1    wreg      void 
  8852 ;; Registers used:
  8853 ;;		wreg, status,2, status,0
  8854 ;; Tracked objects:
  8855 ;;		On entry : 0/0
  8856 ;;		On exit  : 0/0
  8857 ;;		Unchanged: 0/0
  8858 ;; Data sizes:     COMRAM   BANK0   BANK1   BANK2   BANK3   BANK4   BANK5   BANK6   BANK7   BANK8   BANK9  BANK10  BANK1
      +1  BANK12  BANK13  BANK14  BANK15
  8859 ;;      Params:         2       0       0       0       0       0       0       0       0       0       0       0       
      +0       0       0       0       0
  8860 ;;      Locals:         0       0       0       0       0       0       0       0       0       0       0       0       
      +0       0       0       0       0
  8861 ;;      Temps:          0       0       0       0       0       0       0       0       0       0       0       0       
      +0       0       0       0       0
  8862 ;;      Totals:         2       0       0       0       0       0       0       0       0       0       0       0       
      +0       0       0       0       0
  8863 ;;Total ram usage:        2 bytes
  8864 ;; Hardware stack levels used: 1
  8865 ;; Hardware stack levels required when called: 3
  8866 ;; This function calls:
  8867 ;;		Nothing
  8868 ;; This function is called by:
  8869 ;;		_UART2_Initialize
  8870 ;; This function uses a non-reentrant model
  8871 ;;
  8872                           
  8873                           	psect	text87
  8874   0019CE                     __ptext87:
  8875                           	callstack 0
  8876   0019CE                     _UART2_SetOverrunErrorHandler:
  8877                           	callstack 25
  8878   0019CE                     
  8879                           ;mcc_generated_files/uart2.c: 205:     UART2_OverrunErrorHandler = interruptHandler;
  8880   0019CE  C003  F0E6         	movff	UART2_SetOverrunErrorHandler@interruptHandler,_UART2_OverrunErrorHandler
  8881   0019D2  C004  F0E7         	movff	UART2_SetOverrunErrorHandler@interruptHandler+1,_UART2_OverrunErrorHandler+1
  8882   0019D6  0012               	return		;funcret
  8883   0019D8                     __end_of_UART2_SetOverrunErrorHandler:
  8884                           	callstack 0
  8885                           
  8886 ;; *************** function _UART2_SetFramingErrorHandler *****************
  8887 ;; Defined at:
  8888 ;;		line 200 in file "mcc_generated_files/uart2.c"
  8889 ;; Parameters:    Size  Location     Type
  8890 ;;  interruptHan    2    2[COMRAM] PTR FTN()void 
  8891 ;;		 -> UART2_DefaultFramingErrorHandler(1), 
  8892 ;; Auto vars:     Size  Location     Type
  8893 ;;		None
  8894 ;; Return value:  Size  Location     Type
  8895 ;;                  1    wreg      void 
  8896 ;; Registers used:
  8897 ;;		wreg, status,2, status,0
  8898 ;; Tracked objects:
  8899 ;;		On entry : 0/0
  8900 ;;		On exit  : 0/0
  8901 ;;		Unchanged: 0/0
  8902 ;; Data sizes:     COMRAM   BANK0   BANK1   BANK2   BANK3   BANK4   BANK5   BANK6   BANK7   BANK8   BANK9  BANK10  BANK1
      +1  BANK12  BANK13  BANK14  BANK15
  8903 ;;      Params:         2       0       0       0       0       0       0       0       0       0       0       0       
      +0       0       0       0       0
  8904 ;;      Locals:         0       0       0       0       0       0       0       0       0       0       0       0       
      +0       0       0       0       0
  8905 ;;      Temps:          0       0       0       0       0       0       0       0       0       0       0       0       
      +0       0       0       0       0
  8906 ;;      Totals:         2       0       0       0       0       0       0       0       0       0       0       0       
      +0       0       0       0       0
  8907 ;;Total ram usage:        2 bytes
  8908 ;; Hardware stack levels used: 1
  8909 ;; Hardware stack levels required when called: 3
  8910 ;; This function calls:
  8911 ;;		Nothing
  8912 ;; This function is called by:
  8913 ;;		_UART2_Initialize
  8914 ;; This function uses a non-reentrant model
  8915 ;;
  8916                           
  8917                           	psect	text88
  8918   0019D8                     __ptext88:
  8919                           	callstack 0
  8920   0019D8                     _UART2_SetFramingErrorHandler:
  8921                           	callstack 25
  8922   0019D8                     
  8923                           ;mcc_generated_files/uart2.c: 201:     UART2_FramingErrorHandler = interruptHandler;
  8924   0019D8  C003  F05A         	movff	UART2_SetFramingErrorHandler@interruptHandler,_UART2_FramingErrorHandler
  8925   0019DC  C004  F05B         	movff	UART2_SetFramingErrorHandler@interruptHandler+1,_UART2_FramingErrorHandler+1
  8926   0019E0  0012               	return		;funcret
  8927   0019E2                     __end_of_UART2_SetFramingErrorHandler:
  8928                           	callstack 0
  8929                           
  8930 ;; *************** function _UART2_SetErrorHandler *****************
  8931 ;; Defined at:
  8932 ;;		line 208 in file "mcc_generated_files/uart2.c"
  8933 ;; Parameters:    Size  Location     Type
  8934 ;;  interruptHan    2    2[COMRAM] PTR FTN()void 
  8935 ;;		 -> UART2_DefaultErrorHandler(1), 
  8936 ;; Auto vars:     Size  Location     Type
  8937 ;;		None
  8938 ;; Return value:  Size  Location     Type
  8939 ;;                  1    wreg      void 
  8940 ;; Registers used:
  8941 ;;		wreg, status,2, status,0
  8942 ;; Tracked objects:
  8943 ;;		On entry : 0/0
  8944 ;;		On exit  : 0/0
  8945 ;;		Unchanged: 0/0
  8946 ;; Data sizes:     COMRAM   BANK0   BANK1   BANK2   BANK3   BANK4   BANK5   BANK6   BANK7   BANK8   BANK9  BANK10  BANK1
      +1  BANK12  BANK13  BANK14  BANK15
  8947 ;;      Params:         2       0       0       0       0       0       0       0       0       0       0       0       
      +0       0       0       0       0
  8948 ;;      Locals:         0       0       0       0       0       0       0       0       0       0       0       0       
      +0       0       0       0       0
  8949 ;;      Temps:          0       0       0       0       0       0       0       0       0       0       0       0       
      +0       0       0       0       0
  8950 ;;      Totals:         2       0       0       0       0       0       0       0       0       0       0       0       
      +0       0       0       0       0
  8951 ;;Total ram usage:        2 bytes
  8952 ;; Hardware stack levels used: 1
  8953 ;; Hardware stack levels required when called: 3
  8954 ;; This function calls:
  8955 ;;		Nothing
  8956 ;; This function is called by:
  8957 ;;		_UART2_Initialize
  8958 ;; This function uses a non-reentrant model
  8959 ;;
  8960                           
  8961                           	psect	text89
  8962   0019E2                     __ptext89:
  8963                           	callstack 0
  8964   0019E2                     _UART2_SetErrorHandler:
  8965                           	callstack 25
  8966   0019E2                     
  8967                           ;mcc_generated_files/uart2.c: 209:     UART2_ErrorHandler = interruptHandler;
  8968   0019E2  C003  F0E4         	movff	UART2_SetErrorHandler@interruptHandler,_UART2_ErrorHandler
  8969   0019E6  C004  F0E5         	movff	UART2_SetErrorHandler@interruptHandler+1,_UART2_ErrorHandler+1
  8970   0019EA  0012               	return		;funcret
  8971   0019EC                     __end_of_UART2_SetErrorHandler:
  8972                           	callstack 0
  8973                           
  8974 ;; *************** function _TMR2_Initialize *****************
  8975 ;; Defined at:
  8976 ;;		line 62 in file "mcc_generated_files/tmr2.c"
  8977 ;; Parameters:    Size  Location     Type
  8978 ;;		None
  8979 ;; Auto vars:     Size  Location     Type
  8980 ;;		None
  8981 ;; Return value:  Size  Location     Type
  8982 ;;                  1    wreg      void 
  8983 ;; Registers used:
  8984 ;;		wreg, status,2
  8985 ;; Tracked objects:
  8986 ;;		On entry : 0/0
  8987 ;;		On exit  : 0/0
  8988 ;;		Unchanged: 0/0
  8989 ;; Data sizes:     COMRAM   BANK0   BANK1   BANK2   BANK3   BANK4   BANK5   BANK6   BANK7   BANK8   BANK9  BANK10  BANK1
      +1  BANK12  BANK13  BANK14  BANK15
  8990 ;;      Params:         0       0       0       0       0       0       0       0       0       0       0       0       
      +0       0       0       0       0
  8991 ;;      Locals:         0       0       0       0       0       0       0       0       0       0       0       0       
      +0       0       0       0       0
  8992 ;;      Temps:          0       0       0       0       0       0       0       0       0       0       0       0       
      +0       0       0       0       0
  8993 ;;      Totals:         0       0       0       0       0       0       0       0       0       0       0       0       
      +0       0       0       0       0
  8994 ;;Total ram usage:        0 bytes
  8995 ;; Hardware stack levels used: 1
  8996 ;; Hardware stack levels required when called: 3
  8997 ;; This function calls:
  8998 ;;		Nothing
  8999 ;; This function is called by:
  9000 ;;		_SYSTEM_Initialize
  9001 ;; This function uses a non-reentrant model
  9002 ;;
  9003                           
  9004                           	psect	text90
  9005   001838                     __ptext90:
  9006                           	callstack 0
  9007   001838                     _TMR2_Initialize:
  9008                           	callstack 26
  9009   001838                     
  9010                           ;mcc_generated_files/tmr2.c: 67:     T2CLKCON = 0x01;
  9011   001838  0E01               	movlw	1
  9012   00183A  6EAE               	movwf	174,c	;volatile
  9013                           
  9014                           ;mcc_generated_files/tmr2.c: 70:     T2HLT = 0x00;
  9015   00183C  0E00               	movlw	0
  9016   00183E  6EAD               	movwf	173,c	;volatile
  9017                           
  9018                           ;mcc_generated_files/tmr2.c: 73:     T2RST = 0x00;
  9019   001840  0E00               	movlw	0
  9020   001842  6EAF               	movwf	175,c	;volatile
  9021                           
  9022                           ;mcc_generated_files/tmr2.c: 76:     T2PR = 0xF9;
  9023   001844  0EF9               	movlw	249
  9024   001846  6EAB               	movwf	171,c	;volatile
  9025                           
  9026                           ;mcc_generated_files/tmr2.c: 79:     T2TMR = 0x00;
  9027   001848  0E00               	movlw	0
  9028   00184A  6EAA               	movwf	170,c	;volatile
  9029   00184C                     
  9030                           ;mcc_generated_files/tmr2.c: 82:     PIR4bits.TMR2IF = 0;
  9031   00184C  0139               	movlb	57	; () banked
  9032   00184E  95A4               	bcf	164,2,b	;volatile
  9033                           
  9034                           ;mcc_generated_files/tmr2.c: 85:     T2CON = 0xA0;
  9035   001850  0EA0               	movlw	160
  9036   001852  6EAC               	movwf	172,c	;volatile
  9037   001854                     
  9038                           ; BSR set to: 57
  9039   001854  0012               	return		;funcret
  9040   001856                     __end_of_TMR2_Initialize:
  9041                           	callstack 0
  9042                           
  9043 ;; *************** function _TMR0_Initialize *****************
  9044 ;; Defined at:
  9045 ;;		line 72 in file "mcc_generated_files/tmr0.c"
  9046 ;; Parameters:    Size  Location     Type
  9047 ;;		None
  9048 ;; Auto vars:     Size  Location     Type
  9049 ;;		None
  9050 ;; Return value:  Size  Location     Type
  9051 ;;                  1    wreg      void 
  9052 ;; Registers used:
  9053 ;;		wreg, status,2, status,0, cstack
  9054 ;; Tracked objects:
  9055 ;;		On entry : 0/0
  9056 ;;		On exit  : 0/0
  9057 ;;		Unchanged: 0/0
  9058 ;; Data sizes:     COMRAM   BANK0   BANK1   BANK2   BANK3   BANK4   BANK5   BANK6   BANK7   BANK8   BANK9  BANK10  BANK1
      +1  BANK12  BANK13  BANK14  BANK15
  9059 ;;      Params:         0       0       0       0       0       0       0       0       0       0       0       0       
      +0       0       0       0       0
  9060 ;;      Locals:         0       0       0       0       0       0       0       0       0       0       0       0       
      +0       0       0       0       0
  9061 ;;      Temps:          2       0       0       0       0       0       0       0       0       0       0       0       
      +0       0       0       0       0
  9062 ;;      Totals:         2       0       0       0       0       0       0       0       0       0       0       0       
      +0       0       0       0       0
  9063 ;;Total ram usage:        2 bytes
  9064 ;; Hardware stack levels used: 1
  9065 ;; Hardware stack levels required when called: 4
  9066 ;; This function calls:
  9067 ;;		_TMR0_SetInterruptHandler
  9068 ;; This function is called by:
  9069 ;;		_SYSTEM_Initialize
  9070 ;; This function uses a non-reentrant model
  9071 ;;
  9072                           
  9073                           	psect	text91
  9074   0014E6                     __ptext91:
  9075                           	callstack 0
  9076   0014E6                     _TMR0_Initialize:
  9077                           	callstack 25
  9078   0014E6                     
  9079                           ;mcc_generated_files/tmr0.c: 77:     T0CON1 = 0x53;
  9080   0014E6  0E53               	movlw	83
  9081   0014E8  6EB9               	movwf	185,c	;volatile
  9082                           
  9083                           ;mcc_generated_files/tmr0.c: 80:     TMR0H = 0xCF;
  9084   0014EA  0ECF               	movlw	207
  9085   0014EC  6EB7               	movwf	183,c	;volatile
  9086                           
  9087                           ;mcc_generated_files/tmr0.c: 83:     TMR0L = 0x2C;
  9088   0014EE  0E2C               	movlw	44
  9089   0014F0  6EB6               	movwf	182,c	;volatile
  9090   0014F2                     
  9091                           ;mcc_generated_files/tmr0.c: 86:     timer0ReloadVal16bit = (TMR0H << 8) | TMR0L;
  9092   0014F2  50B6               	movf	182,w,c	;volatile
  9093   0014F4  006F FEDC  F005    	movff	16311,??_TMR0_Initialize	;volatile
  9094   0014FA  6A06               	clrf	(??_TMR0_Initialize+1)^0,c
  9095   0014FC  C005  F006         	movff	??_TMR0_Initialize,??_TMR0_Initialize+1
  9096   001500  6A05               	clrf	??_TMR0_Initialize^0,c
  9097   001502  1005               	iorwf	??_TMR0_Initialize^0,w,c
  9098   001504  6E41               	movwf	_timer0ReloadVal16bit^0,c	;volatile
  9099   001506  5006               	movf	(??_TMR0_Initialize+1)^0,w,c
  9100   001508  6E42               	movwf	(_timer0ReloadVal16bit+1)^0,c	;volatile
  9101   00150A                     
  9102                           ;mcc_generated_files/tmr0.c: 89:     PIR3bits.TMR0IF = 0;
  9103   00150A  0139               	movlb	57	; () banked
  9104   00150C  9FA3               	bcf	163,7,b	;volatile
  9105   00150E                     
  9106                           ; BSR set to: 57
  9107                           ;mcc_generated_files/tmr0.c: 92:     PIE3bits.TMR0IE = 1;
  9108   00150E  8F93               	bsf	147,7,b	;volatile
  9109   001510                     
  9110                           ; BSR set to: 57
  9111                           ;mcc_generated_files/tmr0.c: 95:     TMR0_SetInterruptHandler(TMR0_DefaultInterruptHandl
      +                          er);
  9112   001510  0E6E               	movlw	low _TMR0_DefaultInterruptHandler
  9113   001512  6E03               	movwf	TMR0_SetInterruptHandler@InterruptHandler^0,c
  9114   001514  0E1A               	movlw	high _TMR0_DefaultInterruptHandler
  9115   001516  6E04               	movwf	(TMR0_SetInterruptHandler@InterruptHandler+1)^0,c
  9116   001518  ECF6  F00C         	call	_TMR0_SetInterruptHandler	;wreg free
  9117   00151C                     
  9118                           ;mcc_generated_files/tmr0.c: 98:     T0CON0 = 0x90;
  9119   00151C  0E90               	movlw	144
  9120   00151E  6EB8               	movwf	184,c	;volatile
  9121   001520  0012               	return		;funcret
  9122   001522                     __end_of_TMR0_Initialize:
  9123                           	callstack 0
  9124                           
  9125 ;; *************** function _TMR0_SetInterruptHandler *****************
  9126 ;; Defined at:
  9127 ;;		line 176 in file "mcc_generated_files/tmr0.c"
  9128 ;; Parameters:    Size  Location     Type
  9129 ;;  InterruptHan    2    2[COMRAM] PTR FTN()void 
  9130 ;;		 -> TMR0_DefaultInterruptHandler(1), 
  9131 ;; Auto vars:     Size  Location     Type
  9132 ;;		None
  9133 ;; Return value:  Size  Location     Type
  9134 ;;                  1    wreg      void 
  9135 ;; Registers used:
  9136 ;;		wreg, status,2, status,0
  9137 ;; Tracked objects:
  9138 ;;		On entry : 0/0
  9139 ;;		On exit  : 0/0
  9140 ;;		Unchanged: 0/0
  9141 ;; Data sizes:     COMRAM   BANK0   BANK1   BANK2   BANK3   BANK4   BANK5   BANK6   BANK7   BANK8   BANK9  BANK10  BANK1
      +1  BANK12  BANK13  BANK14  BANK15
  9142 ;;      Params:         2       0       0       0       0       0       0       0       0       0       0       0       
      +0       0       0       0       0
  9143 ;;      Locals:         0       0       0       0       0       0       0       0       0       0       0       0       
      +0       0       0       0       0
  9144 ;;      Temps:          0       0       0       0       0       0       0       0       0       0       0       0       
      +0       0       0       0       0
  9145 ;;      Totals:         2       0       0       0       0       0       0       0       0       0       0       0       
      +0       0       0       0       0
  9146 ;;Total ram usage:        2 bytes
  9147 ;; Hardware stack levels used: 1
  9148 ;; Hardware stack levels required when called: 3
  9149 ;; This function calls:
  9150 ;;		Nothing
  9151 ;; This function is called by:
  9152 ;;		_TMR0_Initialize
  9153 ;; This function uses a non-reentrant model
  9154 ;;
  9155                           
  9156                           	psect	text92
  9157   0019EC                     __ptext92:
  9158                           	callstack 0
  9159   0019EC                     _TMR0_SetInterruptHandler:
  9160                           	callstack 25
  9161   0019EC                     
  9162                           ;mcc_generated_files/tmr0.c: 177:     TMR0_InterruptHandler = InterruptHandler;
  9163   0019EC  C003  F058         	movff	TMR0_SetInterruptHandler@InterruptHandler,_TMR0_InterruptHandler
  9164   0019F0  C004  F059         	movff	TMR0_SetInterruptHandler@InterruptHandler+1,_TMR0_InterruptHandler+1
  9165   0019F4  0012               	return		;funcret
  9166   0019F6                     __end_of_TMR0_SetInterruptHandler:
  9167                           	callstack 0
  9168                           
  9169 ;; *************** function _PMD_Initialize *****************
  9170 ;; Defined at:
  9171 ;;		line 77 in file "mcc_generated_files/mcc.c"
  9172 ;; Parameters:    Size  Location     Type
  9173 ;;		None
  9174 ;; Auto vars:     Size  Location     Type
  9175 ;;		None
  9176 ;; Return value:  Size  Location     Type
  9177 ;;                  1    wreg      void 
  9178 ;; Registers used:
  9179 ;;		wreg, status,2
  9180 ;; Tracked objects:
  9181 ;;		On entry : 0/0
  9182 ;;		On exit  : 0/0
  9183 ;;		Unchanged: 0/0
  9184 ;; Data sizes:     COMRAM   BANK0   BANK1   BANK2   BANK3   BANK4   BANK5   BANK6   BANK7   BANK8   BANK9  BANK10  BANK1
      +1  BANK12  BANK13  BANK14  BANK15
  9185 ;;      Params:         0       0       0       0       0       0       0       0       0       0       0       0       
      +0       0       0       0       0
  9186 ;;      Locals:         0       0       0       0       0       0       0       0       0       0       0       0       
      +0       0       0       0       0
  9187 ;;      Temps:          0       0       0       0       0       0       0       0       0       0       0       0       
      +0       0       0       0       0
  9188 ;;      Totals:         0       0       0       0       0       0       0       0       0       0       0       0       
      +0       0       0       0       0
  9189 ;;Total ram usage:        0 bytes
  9190 ;; Hardware stack levels used: 1
  9191 ;; Hardware stack levels required when called: 3
  9192 ;; This function calls:
  9193 ;;		Nothing
  9194 ;; This function is called by:
  9195 ;;		_SYSTEM_Initialize
  9196 ;; This function uses a non-reentrant model
  9197 ;;
  9198                           
  9199                           	psect	text93
  9200   001776                     __ptext93:
  9201                           	callstack 0
  9202   001776                     _PMD_Initialize:
  9203                           	callstack 26
  9204   001776                     
  9205                           ;mcc_generated_files/mcc.c: 80:     PMD0 = 0x00;
  9206   001776  0E00               	movlw	0
  9207   001778  0139               	movlb	57	; () banked
  9208   00177A  6FC0               	movwf	192,b	;volatile
  9209                           
  9210                           ;mcc_generated_files/mcc.c: 82:     PMD1 = 0x00;
  9211   00177C  0E00               	movlw	0
  9212   00177E  6FC1               	movwf	193,b	;volatile
  9213                           
  9214                           ;mcc_generated_files/mcc.c: 84:     PMD2 = 0x00;
  9215   001780  0E00               	movlw	0
  9216   001782  6FC2               	movwf	194,b	;volatile
  9217                           
  9218                           ;mcc_generated_files/mcc.c: 86:     PMD3 = 0x00;
  9219   001784  0E00               	movlw	0
  9220   001786  6FC3               	movwf	195,b	;volatile
  9221                           
  9222                           ;mcc_generated_files/mcc.c: 88:     PMD4 = 0x00;
  9223   001788  0E00               	movlw	0
  9224   00178A  6FC4               	movwf	196,b	;volatile
  9225                           
  9226                           ;mcc_generated_files/mcc.c: 90:     PMD5 = 0x00;
  9227   00178C  0E00               	movlw	0
  9228   00178E  6FC5               	movwf	197,b	;volatile
  9229                           
  9230                           ;mcc_generated_files/mcc.c: 92:     PMD6 = 0x00;
  9231   001790  0E00               	movlw	0
  9232   001792  6FC6               	movwf	198,b	;volatile
  9233                           
  9234                           ;mcc_generated_files/mcc.c: 94:     PMD7 = 0x00;
  9235   001794  0E00               	movlw	0
  9236   001796  6FC7               	movwf	199,b	;volatile
  9237   001798                     
  9238                           ; BSR set to: 57
  9239   001798  0012               	return		;funcret
  9240   00179A                     __end_of_PMD_Initialize:
  9241                           	callstack 0
  9242                           
  9243 ;; *************** function _PIN_MANAGER_Initialize *****************
  9244 ;; Defined at:
  9245 ;;		line 55 in file "mcc_generated_files/pin_manager.c"
  9246 ;; Parameters:    Size  Location     Type
  9247 ;;		None
  9248 ;; Auto vars:     Size  Location     Type
  9249 ;;		None
  9250 ;; Return value:  Size  Location     Type
  9251 ;;                  1    wreg      void 
  9252 ;; Registers used:
  9253 ;;		wreg, status,2
  9254 ;; Tracked objects:
  9255 ;;		On entry : 0/0
  9256 ;;		On exit  : 0/0
  9257 ;;		Unchanged: 0/0
  9258 ;; Data sizes:     COMRAM   BANK0   BANK1   BANK2   BANK3   BANK4   BANK5   BANK6   BANK7   BANK8   BANK9  BANK10  BANK1
      +1  BANK12  BANK13  BANK14  BANK15
  9259 ;;      Params:         0       0       0       0       0       0       0       0       0       0       0       0       
      +0       0       0       0       0
  9260 ;;      Locals:         0       0       0       0       0       0       0       0       0       0       0       0       
      +0       0       0       0       0
  9261 ;;      Temps:          0       0       0       0       0       0       0       0       0       0       0       0       
      +0       0       0       0       0
  9262 ;;      Totals:         0       0       0       0       0       0       0       0       0       0       0       0       
      +0       0       0       0       0
  9263 ;;Total ram usage:        0 bytes
  9264 ;; Hardware stack levels used: 1
  9265 ;; Hardware stack levels required when called: 3
  9266 ;; This function calls:
  9267 ;;		Nothing
  9268 ;; This function is called by:
  9269 ;;		_SYSTEM_Initialize
  9270 ;; This function uses a non-reentrant model
  9271 ;;
  9272                           
  9273                           	psect	text94
  9274   000FF4                     __ptext94:
  9275                           	callstack 0
  9276   000FF4                     _PIN_MANAGER_Initialize:
  9277                           	callstack 26
  9278   000FF4                     
  9279                           ;mcc_generated_files/pin_manager.c: 60:     LATA = 0x00;
  9280   000FF4  0E00               	movlw	0
  9281   000FF6  6EBA               	movwf	186,c	;volatile
  9282                           
  9283                           ;mcc_generated_files/pin_manager.c: 61:     LATB = 0x00;
  9284   000FF8  0E00               	movlw	0
  9285   000FFA  6EBB               	movwf	187,c	;volatile
  9286                           
  9287                           ;mcc_generated_files/pin_manager.c: 62:     LATC = 0x00;
  9288   000FFC  0E00               	movlw	0
  9289   000FFE  6EBC               	movwf	188,c	;volatile
  9290                           
  9291                           ;mcc_generated_files/pin_manager.c: 67:     TRISA = 0xC3;
  9292   001000  0EC3               	movlw	195
  9293   001002  6EC2               	movwf	194,c	;volatile
  9294                           
  9295                           ;mcc_generated_files/pin_manager.c: 68:     TRISB = 0xDC;
  9296   001004  0EDC               	movlw	220
  9297   001006  6EC3               	movwf	195,c	;volatile
  9298                           
  9299                           ;mcc_generated_files/pin_manager.c: 69:     TRISC = 0x9C;
  9300   001008  0E9C               	movlw	156
  9301   00100A  6EC4               	movwf	196,c	;volatile
  9302                           
  9303                           ;mcc_generated_files/pin_manager.c: 74:     ANSELC = 0x67;
  9304   00100C  0E67               	movlw	103
  9305   00100E  013A               	movlb	58	; () banked
  9306   001010  6F60               	movwf	96,b	;volatile
  9307                           
  9308                           ;mcc_generated_files/pin_manager.c: 75:     ANSELB = 0x2C;
  9309   001012  0E2C               	movlw	44
  9310   001014  6F50               	movwf	80,b	;volatile
  9311   001016                     
  9312                           ; BSR set to: 58
  9313                           ;mcc_generated_files/pin_manager.c: 76:     ANSELA = 0xFF;
  9314   001016  6940               	setf	64,b	;volatile
  9315                           
  9316                           ;mcc_generated_files/pin_manager.c: 81:     WPUE = 0x00;
  9317   001018  0E00               	movlw	0
  9318   00101A  6F81               	movwf	129,b	;volatile
  9319                           
  9320                           ;mcc_generated_files/pin_manager.c: 82:     WPUB = 0x00;
  9321   00101C  0E00               	movlw	0
  9322   00101E  6F51               	movwf	81,b	;volatile
  9323                           
  9324                           ;mcc_generated_files/pin_manager.c: 83:     WPUA = 0x00;
  9325   001020  0E00               	movlw	0
  9326   001022  6F41               	movwf	65,b	;volatile
  9327                           
  9328                           ;mcc_generated_files/pin_manager.c: 84:     WPUC = 0x18;
  9329   001024  0E18               	movlw	24
  9330   001026  6F61               	movwf	97,b	;volatile
  9331                           
  9332                           ;mcc_generated_files/pin_manager.c: 89:     ODCONA = 0x00;
  9333   001028  0E00               	movlw	0
  9334   00102A  6F42               	movwf	66,b	;volatile
  9335                           
  9336                           ;mcc_generated_files/pin_manager.c: 90:     ODCONB = 0x03;
  9337   00102C  0E03               	movlw	3
  9338   00102E  6F52               	movwf	82,b	;volatile
  9339                           
  9340                           ;mcc_generated_files/pin_manager.c: 91:     ODCONC = 0x00;
  9341   001030  0E00               	movlw	0
  9342   001032  6F62               	movwf	98,b	;volatile
  9343   001034                     
  9344                           ; BSR set to: 58
  9345                           ;mcc_generated_files/pin_manager.c: 96:     SLRCONA = 0xFF;
  9346   001034  6943               	setf	67,b	;volatile
  9347   001036                     
  9348                           ; BSR set to: 58
  9349                           ;mcc_generated_files/pin_manager.c: 97:     SLRCONB = 0xFF;
  9350   001036  6953               	setf	83,b	;volatile
  9351   001038                     
  9352                           ; BSR set to: 58
  9353                           ;mcc_generated_files/pin_manager.c: 98:     SLRCONC = 0xFF;
  9354   001038  6963               	setf	99,b	;volatile
  9355   00103A                     
  9356                           ; BSR set to: 58
  9357                           ;mcc_generated_files/pin_manager.c: 103:     INLVLA = 0xFF;
  9358   00103A  6944               	setf	68,b	;volatile
  9359   00103C                     
  9360                           ; BSR set to: 58
  9361                           ;mcc_generated_files/pin_manager.c: 104:     INLVLB = 0xFF;
  9362   00103C  6954               	setf	84,b	;volatile
  9363   00103E                     
  9364                           ; BSR set to: 58
  9365                           ;mcc_generated_files/pin_manager.c: 105:     INLVLC = 0xFF;
  9366   00103E  6964               	setf	100,b	;volatile
  9367                           
  9368                           ;mcc_generated_files/pin_manager.c: 106:     INLVLE = 0x08;
  9369   001040  0E08               	movlw	8
  9370   001042  6F84               	movwf	132,b	;volatile
  9371                           
  9372                           ;mcc_generated_files/pin_manager.c: 115:     U2RXPPS = 0x0F;
  9373   001044  0E0F               	movlw	15
  9374   001046  6FEA               	movwf	234,b	;volatile
  9375                           
  9376                           ;mcc_generated_files/pin_manager.c: 116:     I2C1SDAPPS = 0x09;
  9377   001048  0E09               	movlw	9
  9378   00104A  6FE4               	movwf	228,b	;volatile
  9379                           
  9380                           ;mcc_generated_files/pin_manager.c: 117:     RB1PPS = 0x22;
  9381   00104C  0E22               	movlw	34
  9382   00104E  6F09               	movwf	9,b	;volatile
  9383                           
  9384                           ;mcc_generated_files/pin_manager.c: 118:     RB0PPS = 0x21;
  9385   001050  0E21               	movlw	33
  9386   001052  6F08               	movwf	8,b	;volatile
  9387                           
  9388                           ;mcc_generated_files/pin_manager.c: 119:     RB5PPS = 0x16;
  9389   001054  0E16               	movlw	22
  9390   001056  6F0D               	movwf	13,b	;volatile
  9391                           
  9392                           ;mcc_generated_files/pin_manager.c: 120:     I2C1SCLPPS = 0x08;
  9393   001058  0E08               	movlw	8
  9394   00105A  6FE3               	movwf	227,b	;volatile
  9395   00105C                     
  9396                           ; BSR set to: 58
  9397   00105C  0012               	return		;funcret
  9398   00105E                     __end_of_PIN_MANAGER_Initialize:
  9399                           	callstack 0
  9400                           
  9401 ;; *************** function _OSCILLATOR_Initialize *****************
  9402 ;; Defined at:
  9403 ;;		line 63 in file "mcc_generated_files/mcc.c"
  9404 ;; Parameters:    Size  Location     Type
  9405 ;;		None
  9406 ;; Auto vars:     Size  Location     Type
  9407 ;;		None
  9408 ;; Return value:  Size  Location     Type
  9409 ;;                  1    wreg      void 
  9410 ;; Registers used:
  9411 ;;		wreg, status,2
  9412 ;; Tracked objects:
  9413 ;;		On entry : 0/0
  9414 ;;		On exit  : 0/0
  9415 ;;		Unchanged: 0/0
  9416 ;; Data sizes:     COMRAM   BANK0   BANK1   BANK2   BANK3   BANK4   BANK5   BANK6   BANK7   BANK8   BANK9  BANK10  BANK1
      +1  BANK12  BANK13  BANK14  BANK15
  9417 ;;      Params:         0       0       0       0       0       0       0       0       0       0       0       0       
      +0       0       0       0       0
  9418 ;;      Locals:         0       0       0       0       0       0       0       0       0       0       0       0       
      +0       0       0       0       0
  9419 ;;      Temps:          0       0       0       0       0       0       0       0       0       0       0       0       
      +0       0       0       0       0
  9420 ;;      Totals:         0       0       0       0       0       0       0       0       0       0       0       0       
      +0       0       0       0       0
  9421 ;;Total ram usage:        0 bytes
  9422 ;; Hardware stack levels used: 1
  9423 ;; Hardware stack levels required when called: 3
  9424 ;; This function calls:
  9425 ;;		Nothing
  9426 ;; This function is called by:
  9427 ;;		_SYSTEM_Initialize
  9428 ;; This function uses a non-reentrant model
  9429 ;;
  9430                           
  9431                           	psect	text95
  9432   0018A0                     __ptext95:
  9433                           	callstack 0
  9434   0018A0                     _OSCILLATOR_Initialize:
  9435                           	callstack 26
  9436   0018A0                     
  9437                           ;mcc_generated_files/mcc.c: 66:     OSCCON1 = 0x62;
  9438   0018A0  0E62               	movlw	98
  9439   0018A2  0139               	movlb	57	; () banked
  9440   0018A4  6FD9               	movwf	217,b	;volatile
  9441                           
  9442                           ;mcc_generated_files/mcc.c: 68:     OSCCON3 = 0x00;
  9443   0018A6  0E00               	movlw	0
  9444   0018A8  6FDB               	movwf	219,b	;volatile
  9445                           
  9446                           ;mcc_generated_files/mcc.c: 70:     OSCEN = 0x00;
  9447   0018AA  0E00               	movlw	0
  9448   0018AC  6FDD               	movwf	221,b	;volatile
  9449                           
  9450                           ;mcc_generated_files/mcc.c: 72:     OSCFRQ = 0x05;
  9451   0018AE  0E05               	movlw	5
  9452   0018B0  6FDF               	movwf	223,b	;volatile
  9453                           
  9454                           ;mcc_generated_files/mcc.c: 74:     OSCTUNE = 0x00;
  9455   0018B2  0E00               	movlw	0
  9456   0018B4  6FDE               	movwf	222,b	;volatile
  9457   0018B6                     
  9458                           ; BSR set to: 57
  9459   0018B6  0012               	return		;funcret
  9460   0018B8                     __end_of_OSCILLATOR_Initialize:
  9461                           	callstack 0
  9462                           
  9463 ;; *************** function _INTERRUPT_Initialize *****************
  9464 ;; Defined at:
  9465 ;;		line 52 in file "mcc_generated_files/interrupt_manager.c"
  9466 ;; Parameters:    Size  Location     Type
  9467 ;;		None
  9468 ;; Auto vars:     Size  Location     Type
  9469 ;;		None
  9470 ;; Return value:  Size  Location     Type
  9471 ;;                  1    wreg      void 
  9472 ;; Registers used:
  9473 ;;		None
  9474 ;; Tracked objects:
  9475 ;;		On entry : 0/0
  9476 ;;		On exit  : 0/0
  9477 ;;		Unchanged: 0/0
  9478 ;; Data sizes:     COMRAM   BANK0   BANK1   BANK2   BANK3   BANK4   BANK5   BANK6   BANK7   BANK8   BANK9  BANK10  BANK1
      +1  BANK12  BANK13  BANK14  BANK15
  9479 ;;      Params:         0       0       0       0       0       0       0       0       0       0       0       0       
      +0       0       0       0       0
  9480 ;;      Locals:         0       0       0       0       0       0       0       0       0       0       0       0       
      +0       0       0       0       0
  9481 ;;      Temps:          0       0       0       0       0       0       0       0       0       0       0       0       
      +0       0       0       0       0
  9482 ;;      Totals:         0       0       0       0       0       0       0       0       0       0       0       0       
      +0       0       0       0       0
  9483 ;;Total ram usage:        0 bytes
  9484 ;; Hardware stack levels used: 1
  9485 ;; Hardware stack levels required when called: 3
  9486 ;; This function calls:
  9487 ;;		Nothing
  9488 ;; This function is called by:
  9489 ;;		_SYSTEM_Initialize
  9490 ;; This function uses a non-reentrant model
  9491 ;;
  9492                           
  9493                           	psect	text96
  9494   001A6A                     __ptext96:
  9495                           	callstack 0
  9496   001A6A                     _INTERRUPT_Initialize:
  9497                           	callstack 26
  9498   001A6A                     
  9499                           ;mcc_generated_files/interrupt_manager.c: 55:     INTCON0bits.IPEN = 0;
  9500   001A6A  9AD2               	bcf	210,5,c	;volatile
  9501   001A6C  0012               	return		;funcret
  9502   001A6E                     __end_of_INTERRUPT_Initialize:
  9503                           	callstack 0
  9504                           
  9505 ;; *************** function _I2C1_Initialize *****************
  9506 ;; Defined at:
  9507 ;;		line 183 in file "mcc_generated_files/i2c1_master.c"
  9508 ;; Parameters:    Size  Location     Type
  9509 ;;		None
  9510 ;; Auto vars:     Size  Location     Type
  9511 ;;		None
  9512 ;; Return value:  Size  Location     Type
  9513 ;;                  1    wreg      void 
  9514 ;; Registers used:
  9515 ;;		wreg, status,2
  9516 ;; Tracked objects:
  9517 ;;		On entry : 0/0
  9518 ;;		On exit  : 0/0
  9519 ;;		Unchanged: 0/0
  9520 ;; Data sizes:     COMRAM   BANK0   BANK1   BANK2   BANK3   BANK4   BANK5   BANK6   BANK7   BANK8   BANK9  BANK10  BANK1
      +1  BANK12  BANK13  BANK14  BANK15
  9521 ;;      Params:         0       0       0       0       0       0       0       0       0       0       0       0       
      +0       0       0       0       0
  9522 ;;      Locals:         0       0       0       0       0       0       0       0       0       0       0       0       
      +0       0       0       0       0
  9523 ;;      Temps:          0       0       0       0       0       0       0       0       0       0       0       0       
      +0       0       0       0       0
  9524 ;;      Totals:         0       0       0       0       0       0       0       0       0       0       0       0       
      +0       0       0       0       0
  9525 ;;Total ram usage:        0 bytes
  9526 ;; Hardware stack levels used: 1
  9527 ;; Hardware stack levels required when called: 3
  9528 ;; This function calls:
  9529 ;;		Nothing
  9530 ;; This function is called by:
  9531 ;;		_SYSTEM_Initialize
  9532 ;; This function uses a non-reentrant model
  9533 ;;
  9534                           
  9535                           	psect	text97
  9536   0017BC                     __ptext97:
  9537                           	callstack 0
  9538   0017BC                     _I2C1_Initialize:
  9539                           	callstack 26
  9540   0017BC                     
  9541                           ;mcc_generated_files/i2c1_master.c: 186:     I2C1CON0 = 0x04;
  9542   0017BC  0E04               	movlw	4
  9543   0017BE  013D               	movlb	61	; () banked
  9544   0017C0  6F73               	movwf	115,b	;volatile
  9545                           
  9546                           ;mcc_generated_files/i2c1_master.c: 188:     I2C1CON1 = 0x80;
  9547   0017C2  0E80               	movlw	128
  9548   0017C4  6F74               	movwf	116,b	;volatile
  9549                           
  9550                           ;mcc_generated_files/i2c1_master.c: 190:     I2C1CON2 = 0x18;
  9551   0017C6  0E18               	movlw	24
  9552   0017C8  6F75               	movwf	117,b	;volatile
  9553                           
  9554                           ;mcc_generated_files/i2c1_master.c: 192:     I2C1CLK = 0x03;
  9555   0017CA  0E03               	movlw	3
  9556   0017CC  6F7B               	movwf	123,b	;volatile
  9557                           
  9558                           ;mcc_generated_files/i2c1_master.c: 194:     I2C1PIR = 0x00;
  9559   0017CE  0E00               	movlw	0
  9560   0017D0  6F79               	movwf	121,b	;volatile
  9561                           
  9562                           ;mcc_generated_files/i2c1_master.c: 196:     I2C1PIE = 0x00;
  9563   0017D2  0E00               	movlw	0
  9564   0017D4  6F7A               	movwf	122,b	;volatile
  9565                           
  9566                           ;mcc_generated_files/i2c1_master.c: 198:     I2C1ERR = 0x00;
  9567   0017D6  0E00               	movlw	0
  9568   0017D8  6F76               	movwf	118,b	;volatile
  9569   0017DA                     
  9570                           ; BSR set to: 61
  9571                           ;mcc_generated_files/i2c1_master.c: 200:     I2C1CNT = 0xFF;
  9572   0017DA  696C               	setf	108,b	;volatile
  9573   0017DC                     
  9574                           ; BSR set to: 61
  9575   0017DC  0012               	return		;funcret
  9576   0017DE                     __end_of_I2C1_Initialize:
  9577                           	callstack 0
  9578                           
  9579 ;; *************** function _ADCC_Initialize *****************
  9580 ;; Defined at:
  9581 ;;		line 62 in file "mcc_generated_files/adcc.c"
  9582 ;; Parameters:    Size  Location     Type
  9583 ;;		None
  9584 ;; Auto vars:     Size  Location     Type
  9585 ;;		None
  9586 ;; Return value:  Size  Location     Type
  9587 ;;                  1    wreg      void 
  9588 ;; Registers used:
  9589 ;;		wreg, status,2
  9590 ;; Tracked objects:
  9591 ;;		On entry : 0/0
  9592 ;;		On exit  : 0/0
  9593 ;;		Unchanged: 0/0
  9594 ;; Data sizes:     COMRAM   BANK0   BANK1   BANK2   BANK3   BANK4   BANK5   BANK6   BANK7   BANK8   BANK9  BANK10  BANK1
      +1  BANK12  BANK13  BANK14  BANK15
  9595 ;;      Params:         0       0       0       0       0       0       0       0       0       0       0       0       
      +0       0       0       0       0
  9596 ;;      Locals:         0       0       0       0       0       0       0       0       0       0       0       0       
      +0       0       0       0       0
  9597 ;;      Temps:          0       0       0       0       0       0       0       0       0       0       0       0       
      +0       0       0       0       0
  9598 ;;      Totals:         0       0       0       0       0       0       0       0       0       0       0       0       
      +0       0       0       0       0
  9599 ;;Total ram usage:        0 bytes
  9600 ;; Hardware stack levels used: 1
  9601 ;; Hardware stack levels required when called: 3
  9602 ;; This function calls:
  9603 ;;		Nothing
  9604 ;; This function is called by:
  9605 ;;		_SYSTEM_Initialize
  9606 ;; This function uses a non-reentrant model
  9607 ;;
  9608                           
  9609                           	psect	text98
  9610   0011EE                     __ptext98:
  9611                           	callstack 0
  9612   0011EE                     _ADCC_Initialize:
  9613                           	callstack 26
  9614   0011EE                     
  9615                           ;mcc_generated_files/adcc.c: 66:     ADLTHL = 0x00;
  9616   0011EE  0E00               	movlw	0
  9617   0011F0  013E               	movlb	62	; () banked
  9618   0011F2  6FDE               	movwf	222,b	;volatile
  9619                           
  9620                           ;mcc_generated_files/adcc.c: 68:     ADLTHH = 0x00;
  9621   0011F4  0E00               	movlw	0
  9622   0011F6  6FDF               	movwf	223,b	;volatile
  9623                           
  9624                           ;mcc_generated_files/adcc.c: 70:     ADUTHL = 0x00;
  9625   0011F8  0E00               	movlw	0
  9626   0011FA  6FE0               	movwf	224,b	;volatile
  9627                           
  9628                           ;mcc_generated_files/adcc.c: 72:     ADUTHH = 0x00;
  9629   0011FC  0E00               	movlw	0
  9630   0011FE  6FE1               	movwf	225,b	;volatile
  9631                           
  9632                           ;mcc_generated_files/adcc.c: 74:     ADSTPTL = 0x00;
  9633   001200  0E00               	movlw	0
  9634   001202  6FE4               	movwf	228,b	;volatile
  9635                           
  9636                           ;mcc_generated_files/adcc.c: 76:     ADSTPTH = 0x00;
  9637   001204  0E00               	movlw	0
  9638   001206  6FE5               	movwf	229,b	;volatile
  9639                           
  9640                           ;mcc_generated_files/adcc.c: 78:     ADACCU = 0x00;
  9641   001208  0E00               	movlw	0
  9642   00120A  6FEA               	movwf	234,b	;volatile
  9643                           
  9644                           ;mcc_generated_files/adcc.c: 80:     ADRPT = 0x00;
  9645   00120C  0E00               	movlw	0
  9646   00120E  6FEC               	movwf	236,b	;volatile
  9647                           
  9648                           ;mcc_generated_files/adcc.c: 82:     ADPCH = 0x00;
  9649   001210  0E00               	movlw	0
  9650   001212  6FF1               	movwf	241,b	;volatile
  9651                           
  9652                           ;mcc_generated_files/adcc.c: 84:     ADACQL = 0x00;
  9653   001214  0E00               	movlw	0
  9654   001216  6FF3               	movwf	243,b	;volatile
  9655                           
  9656                           ;mcc_generated_files/adcc.c: 86:     ADACQH = 0x00;
  9657   001218  0E00               	movlw	0
  9658   00121A  6FF4               	movwf	244,b	;volatile
  9659                           
  9660                           ;mcc_generated_files/adcc.c: 88:     ADCAP = 0x00;
  9661   00121C  0E00               	movlw	0
  9662   00121E  6FF5               	movwf	245,b	;volatile
  9663                           
  9664                           ;mcc_generated_files/adcc.c: 90:     ADPREL = 0x00;
  9665   001220  0E00               	movlw	0
  9666   001222  6FF6               	movwf	246,b	;volatile
  9667                           
  9668                           ;mcc_generated_files/adcc.c: 92:     ADPREH = 0x00;
  9669   001224  0E00               	movlw	0
  9670   001226  6FF7               	movwf	247,b	;volatile
  9671                           
  9672                           ;mcc_generated_files/adcc.c: 94:     ADCON1 = 0x00;
  9673   001228  0E00               	movlw	0
  9674   00122A  6FF9               	movwf	249,b	;volatile
  9675                           
  9676                           ;mcc_generated_files/adcc.c: 96:     ADCON2 = 0x00;
  9677   00122C  0E00               	movlw	0
  9678   00122E  6FFA               	movwf	250,b	;volatile
  9679                           
  9680                           ;mcc_generated_files/adcc.c: 98:     ADCON3 = 0x00;
  9681   001230  0E00               	movlw	0
  9682   001232  6FFB               	movwf	251,b	;volatile
  9683                           
  9684                           ;mcc_generated_files/adcc.c: 100:     ADSTAT = 0x00;
  9685   001234  0E00               	movlw	0
  9686   001236  6FFC               	movwf	252,b	;volatile
  9687                           
  9688                           ;mcc_generated_files/adcc.c: 102:     ADREF = 0x00;
  9689   001238  0E00               	movlw	0
  9690   00123A  6FFD               	movwf	253,b	;volatile
  9691                           
  9692                           ;mcc_generated_files/adcc.c: 104:     ADACT = 0x00;
  9693   00123C  0E00               	movlw	0
  9694   00123E  6FFE               	movwf	254,b	;volatile
  9695                           
  9696                           ;mcc_generated_files/adcc.c: 106:     ADCLK = 0x01;
  9697   001240  0E01               	movlw	1
  9698   001242  6FFF               	movwf	255,b	;volatile
  9699                           
  9700                           ;mcc_generated_files/adcc.c: 108:     ADCON0 = 0x94;
  9701   001244  0E94               	movlw	148
  9702   001246  6FF8               	movwf	248,b	;volatile
  9703   001248                     
  9704                           ; BSR set to: 62
  9705   001248  0012               	return		;funcret
  9706   00124A                     __end_of_ADCC_Initialize:
  9707                           	callstack 0
  9708                           
  9709 ;; *************** function _INTERRUPT_InterruptManager *****************
  9710 ;; Defined at:
  9711 ;;		line 58 in file "mcc_generated_files/interrupt_manager.c"
  9712 ;; Parameters:    Size  Location     Type
  9713 ;;		None
  9714 ;; Auto vars:     Size  Location     Type
  9715 ;;		None
  9716 ;; Return value:  Size  Location     Type
  9717 ;;                  1    wreg      void 
  9718 ;; Registers used:
  9719 ;;		wreg, status,2, status,0, pcl, pclath, pclatu, tosl, cstack
  9720 ;; Tracked objects:
  9721 ;;		On entry : 0/0
  9722 ;;		On exit  : 0/0
  9723 ;;		Unchanged: 0/0
  9724 ;; Data sizes:     COMRAM   BANK0   BANK1   BANK2   BANK3   BANK4   BANK5   BANK6   BANK7   BANK8   BANK9  BANK10  BANK1
      +1  BANK12  BANK13  BANK14  BANK15
  9725 ;;      Params:         0       0       0       0       0       0       0       0       0       0       0       0       
      +0       0       0       0       0
  9726 ;;      Locals:         0       0       0       0       0       0       0       0       0       0       0       0       
      +0       0       0       0       0
  9727 ;;      Temps:          2       0       0       0       0       0       0       0       0       0       0       0       
      +0       0       0       0       0
  9728 ;;      Totals:         2       0       0       0       0       0       0       0       0       0       0       0       
      +0       0       0       0       0
  9729 ;;Total ram usage:        2 bytes
  9730 ;; Hardware stack levels used: 1
  9731 ;; Hardware stack levels required when called: 2
  9732 ;; This function calls:
  9733 ;;		_TMR0_ISR
  9734 ;; This function is called by:
  9735 ;;		Interrupt level 2
  9736 ;; This function uses a non-reentrant model
  9737 ;;
  9738                           
  9739                           	psect	text99
  9740   001522                     __ptext99:
  9741                           	callstack 0
  9742   001522                     _INTERRUPT_InterruptManager:
  9743                           	callstack 14
  9744                           
  9745                           ; BSR set to: 62
  9746                           ;incstack = 0
  9747   001522  006F FFE8  F001    	movff	pclath,??_INTERRUPT_InterruptManager
  9748   001528  006F FFEC  F002    	movff	pclatu,??_INTERRUPT_InterruptManager+1
  9749   00152E                     
  9750                           ;mcc_generated_files/interrupt_manager.c: 61:     if(PIE3bits.TMR0IE == 1 && PIR3bits.TM
      +                          R0IF == 1)
  9751   00152E  0139               	movlb	57	; () banked
  9752   001530  AF93               	btfss	147,7,b	;volatile
  9753   001532  EF9D  F00A         	goto	i2u292_41
  9754   001536  EF9F  F00A         	goto	i2u292_40
  9755   00153A                     i2u292_41:
  9756   00153A  EFA8  F00A         	goto	i2l585
  9757   00153E                     i2u292_40:
  9758   00153E                     
  9759                           ; BSR set to: 57
  9760   00153E  AFA3               	btfss	163,7,b	;volatile
  9761   001540  EFA4  F00A         	goto	i2u293_41
  9762   001544  EFA6  F00A         	goto	i2u293_40
  9763   001548                     i2u293_41:
  9764   001548  EFA8  F00A         	goto	i2l585
  9765   00154C                     i2u293_40:
  9766   00154C                     
  9767                           ; BSR set to: 57
  9768                           ;mcc_generated_files/interrupt_manager.c: 62:     {;mcc_generated_files/interrupt_manage
      +                          r.c: 63:         TMR0_ISR();
  9769   00154C  EC1B  F005         	call	_TMR0_ISR	;wreg free
  9770   001550                     i2l585:
  9771   001550  0060  F00B  FFFB   	movff	??_INTERRUPT_InterruptManager+1,pclatu
  9772   001556  0060  F007  FFFA   	movff	??_INTERRUPT_InterruptManager,pclath
  9773   00155C  0011               	retfie		f
  9774   00155E                     __end_of_INTERRUPT_InterruptManager:
  9775                           	callstack 0
  9776                           
  9777 ;; *************** function _TMR0_ISR *****************
  9778 ;; Defined at:
  9779 ;;		line 140 in file "mcc_generated_files/tmr0.c"
  9780 ;; Parameters:    Size  Location     Type
  9781 ;;		None
  9782 ;; Auto vars:     Size  Location     Type
  9783 ;;		None
  9784 ;; Return value:  Size  Location     Type
  9785 ;;                  1    wreg      void 
  9786 ;; Registers used:
  9787 ;;		wreg, status,2, status,0, pcl, pclath, pclatu, tosl, cstack
  9788 ;; Tracked objects:
  9789 ;;		On entry : 0/0
  9790 ;;		On exit  : 0/0
  9791 ;;		Unchanged: 0/0
  9792 ;; Data sizes:     COMRAM   BANK0   BANK1   BANK2   BANK3   BANK4   BANK5   BANK6   BANK7   BANK8   BANK9  BANK10  BANK1
      +1  BANK12  BANK13  BANK14  BANK15
  9793 ;;      Params:         0       0       0       0       0       0       0       0       0       0       0       0       
      +0       0       0       0       0
  9794 ;;      Locals:         0       0       0       0       0       0       0       0       0       0       0       0       
      +0       0       0       0       0
  9795 ;;      Temps:          0       0       0       0       0       0       0       0       0       0       0       0       
      +0       0       0       0       0
  9796 ;;      Totals:         0       0       0       0       0       0       0       0       0       0       0       0       
      +0       0       0       0       0
  9797 ;;Total ram usage:        0 bytes
  9798 ;; Hardware stack levels used: 1
  9799 ;; Hardware stack levels required when called: 1
  9800 ;; This function calls:
  9801 ;;		NULL
  9802 ;;		_TMR0_DefaultInterruptHandler
  9803 ;; This function is called by:
  9804 ;;		_INTERRUPT_InterruptManager
  9805 ;; This function uses a non-reentrant model
  9806 ;;
  9807                           
  9808                           	psect	text100
  9809   000A36                     __ptext100:
  9810                           	callstack 0
  9811   000A36                     _TMR0_ISR:
  9812                           	callstack 14
  9813   000A36                     
  9814                           ;mcc_generated_files/tmr0.c: 142:     static uint8_t counter_1s = 0;;mcc_generated_files
      +                          /tmr0.c: 145:     PIR3bits.TMR0IF = 0;
  9815   000A36  0139               	movlb	57	; () banked
  9816   000A38  9FA3               	bcf	163,7,b	;volatile
  9817   000A3A                     
  9818                           ; BSR set to: 57
  9819                           ;mcc_generated_files/tmr0.c: 147:     TMR0H = timer0ReloadVal16bit >> 8;
  9820   000A3A  5042               	movf	(_timer0ReloadVal16bit+1)^0,w,c	;volatile
  9821   000A3C  6EB7               	movwf	183,c	;volatile
  9822   000A3E                     
  9823                           ; BSR set to: 57
  9824                           ;mcc_generated_files/tmr0.c: 148:     TMR0L = (uint8_t) timer0ReloadVal16bit;
  9825   000A3E  0060  F107  FFB6   	movff	_timer0ReloadVal16bit,16310	;volatile
  9826   000A44                     
  9827                           ; BSR set to: 57
  9828                           ;mcc_generated_files/tmr0.c: 150:     if(TMR0_InterruptHandler)
  9829   000A44  5058               	movf	_TMR0_InterruptHandler^0,w,c
  9830   000A46  1059               	iorwf	(_TMR0_InterruptHandler+1)^0,w,c
  9831   000A48  B4D8               	btfsc	status,2,c
  9832   000A4A  EF29  F005         	goto	i2u260_41
  9833   000A4E  EF2B  F005         	goto	i2u260_40
  9834   000A52                     i2u260_41:
  9835   000A52  EF37  F005         	goto	i2l4915
  9836   000A56                     i2u260_40:
  9837   000A56                     
  9838                           ; BSR set to: 57
  9839                           ;mcc_generated_files/tmr0.c: 151:     {;mcc_generated_files/tmr0.c: 152:         TMR0_In
      +                          terruptHandler();
  9840   000A56  D802               	call	i2u261_48
  9841   000A58  EF37  F005         	goto	i2u261_49
  9842   000A5C                     i2u261_48:
  9843   000A5C  0005               	push	
  9844   000A5E  6EFA               	movwf	pclath,c
  9845   000A60  5058               	movf	_TMR0_InterruptHandler^0,w,c
  9846   000A62  6EFD               	movwf	tosl,c
  9847   000A64  5059               	movf	(_TMR0_InterruptHandler+1)^0,w,c
  9848   000A66  6EFE               	movwf	tosh,c
  9849   000A68  6AFF               	clrf	tosu,c
  9850   000A6A  50FA               	movf	pclath,w,c
  9851   000A6C  0012               	return		;indir
  9852   000A6E                     i2u261_49:
  9853   000A6E                     i2l4915:
  9854                           
  9855                           ;mcc_generated_files/tmr0.c: 157:     if(g_wait_time)
  9856   000A6E  5043               	movf	_g_wait_time^0,w,c
  9857   000A70  1044               	iorwf	(_g_wait_time+1)^0,w,c
  9858   000A72  B4D8               	btfsc	status,2,c
  9859   000A74  EF3E  F005         	goto	i2u262_41
  9860   000A78  EF40  F005         	goto	i2u262_40
  9861   000A7C                     i2u262_41:
  9862   000A7C  EF43  F005         	goto	i2l4919
  9863   000A80                     i2u262_40:
  9864   000A80                     
  9865                           ;mcc_generated_files/tmr0.c: 158:         g_wait_time--;
  9866   000A80  0643               	decf	_g_wait_time^0,f,c
  9867   000A82  A0D8               	btfss	status,0,c
  9868   000A84  0644               	decf	(_g_wait_time+1)^0,f,c
  9869   000A86                     i2l4919:
  9870                           
  9871                           ;mcc_generated_files/tmr0.c: 161:     g_flag_timer_100ms = !g_flag_timer_100ms;
  9872   000A86  5052               	movf	_g_flag_timer_100ms^0,w,c
  9873   000A88  B4D8               	btfsc	status,2,c
  9874   000A8A  EF49  F005         	goto	i2u263_41
  9875   000A8E  EF4C  F005         	goto	i2u263_40
  9876   000A92                     i2u263_41:
  9877   000A92  0E01               	movlw	1
  9878   000A94  EF4D  F005         	goto	i2u264_40
  9879   000A98                     i2u263_40:
  9880   000A98  0E00               	movlw	0
  9881   000A9A                     i2u264_40:
  9882   000A9A  6E52               	movwf	_g_flag_timer_100ms^0,c
  9883   000A9C                     
  9884                           ;mcc_generated_files/tmr0.c: 164:     if(counter_1s == 0)
  9885   000A9C  5050               	movf	TMR0_ISR@counter_1s^0,w,c
  9886   000A9E  A4D8               	btfss	status,2,c
  9887   000AA0  EF54  F005         	goto	i2u265_41
  9888   000AA4  EF56  F005         	goto	i2u265_40
  9889   000AA8                     i2u265_41:
  9890   000AA8  EF65  F005         	goto	i2l4925
  9891   000AAC                     i2u265_40:
  9892   000AAC                     
  9893                           ;mcc_generated_files/tmr0.c: 165:     {;mcc_generated_files/tmr0.c: 166:         counter
      +                          _1s = 9;
  9894   000AAC  0E09               	movlw	9
  9895   000AAE  6E50               	movwf	TMR0_ISR@counter_1s^0,c
  9896                           
  9897                           ;mcc_generated_files/tmr0.c: 169:         g_flag_timer_1s = !g_flag_timer_1s;
  9898   000AB0  5051               	movf	_g_flag_timer_1s^0,w,c
  9899   000AB2  B4D8               	btfsc	status,2,c
  9900   000AB4  EF5E  F005         	goto	i2u266_41
  9901   000AB8  EF61  F005         	goto	i2u266_40
  9902   000ABC                     i2u266_41:
  9903   000ABC  0E01               	movlw	1
  9904   000ABE  EF62  F005         	goto	i2u267_40
  9905   000AC2                     i2u266_40:
  9906   000AC2  0E00               	movlw	0
  9907   000AC4                     i2u267_40:
  9908   000AC4  6E51               	movwf	_g_flag_timer_1s^0,c
  9909                           
  9910                           ;mcc_generated_files/tmr0.c: 170:     }
  9911   000AC6  EF66  F005         	goto	i2l275
  9912   000ACA                     i2l4925:
  9913                           
  9914                           ;mcc_generated_files/tmr0.c: 172:         counter_1s--;
  9915   000ACA  0650               	decf	TMR0_ISR@counter_1s^0,f,c
  9916   000ACC                     i2l275:
  9917   000ACC  0012               	return		;funcret
  9918   000ACE                     __end_of_TMR0_ISR:
  9919                           	callstack 0
  9920                           
  9921 ;; *************** function _TMR0_DefaultInterruptHandler *****************
  9922 ;; Defined at:
  9923 ;;		line 180 in file "mcc_generated_files/tmr0.c"
  9924 ;; Parameters:    Size  Location     Type
  9925 ;;		None
  9926 ;; Auto vars:     Size  Location     Type
  9927 ;;		None
  9928 ;; Return value:  Size  Location     Type
  9929 ;;                  1    wreg      void 
  9930 ;; Registers used:
  9931 ;;		None
  9932 ;; Tracked objects:
  9933 ;;		On entry : 0/0
  9934 ;;		On exit  : 0/0
  9935 ;;		Unchanged: 0/0
  9936 ;; Data sizes:     COMRAM   BANK0   BANK1   BANK2   BANK3   BANK4   BANK5   BANK6   BANK7   BANK8   BANK9  BANK10  BANK1
      +1  BANK12  BANK13  BANK14  BANK15
  9937 ;;      Params:         0       0       0       0       0       0       0       0       0       0       0       0       
      +0       0       0       0       0
  9938 ;;      Locals:         0       0       0       0       0       0       0       0       0       0       0       0       
      +0       0       0       0       0
  9939 ;;      Temps:          0       0       0       0       0       0       0       0       0       0       0       0       
      +0       0       0       0       0
  9940 ;;      Totals:         0       0       0       0       0       0       0       0       0       0       0       0       
      +0       0       0       0       0
  9941 ;;Total ram usage:        0 bytes
  9942 ;; Hardware stack levels used: 1
  9943 ;; This function calls:
  9944 ;;		Nothing
  9945 ;; This function is called by:
  9946 ;;		_TMR0_Initialize
  9947 ;;		_TMR0_ISR
  9948 ;; This function uses a non-reentrant model
  9949 ;;
  9950                           
  9951                           	psect	text101
  9952   001A6E                     __ptext101:
  9953                           	callstack 0
  9954   001A6E                     _TMR0_DefaultInterruptHandler:
  9955                           	callstack 14
  9956   001A6E  0012               	return		;funcret
  9957   001A70                     __end_of_TMR0_DefaultInterruptHandler:
  9958                           	callstack 0
  9959                           
  9960                           ;
  9961                           ; Interrupt Vector Table @ 0x8
  9962                           ;
  9963                           
  9964                           	psect	ivt0x8
  9965   000008                     __pivt0x8:
  9966                           	callstack 0
  9967   000008                     ivt0x8_base:
  9968                           	callstack 0
  9969                           
  9970                           ; high-priority vector
  9971   000008  EF91  F00A         	goto	_INTERRUPT_InterruptManager
  9972   000018                     	org	16
  9973                           
  9974                           ; low-priority vector
  9975   000018  00FF               	reset	
  9976                           
  9977                           	psect	text102
  9978   000000                     __ptext102:
  9979                           	callstack 0
  9980   000000                     
  9981                           	psect	rparam
  9982   000000                     
  9983                           	psect	idloc
  9984                           
  9985                           ;Config register IDLOC0 @ 0x200000
  9986                           ;	unspecified, using default values
  9987   200000                     	org	2097152
  9988   200000  0FFF               	dw	4095
  9989                           
  9990                           ;Config register IDLOC1 @ 0x200002
  9991                           ;	unspecified, using default values
  9992   200002                     	org	2097154
  9993   200002  0FFF               	dw	4095
  9994                           
  9995                           ;Config register IDLOC2 @ 0x200004
  9996                           ;	unspecified, using default values
  9997   200004                     	org	2097156
  9998   200004  0FFF               	dw	4095
  9999                           
 10000                           ;Config register IDLOC3 @ 0x200006
 10001                           ;	unspecified, using default values
 10002   200006                     	org	2097158
 10003   200006  0FFF               	dw	4095
 10004                           
 10005                           ;Config register IDLOC4 @ 0x200008
 10006                           ;	unspecified, using default values
 10007   200008                     	org	2097160
 10008   200008  0FFF               	dw	4095
 10009                           
 10010                           ;Config register IDLOC5 @ 0x20000A
 10011                           ;	unspecified, using default values
 10012   20000A                     	org	2097162
 10013   20000A  0FFF               	dw	4095
 10014                           
 10015                           ;Config register IDLOC6 @ 0x20000C
 10016                           ;	unspecified, using default values
 10017   20000C                     	org	2097164
 10018   20000C  0FFF               	dw	4095
 10019                           
 10020                           ;Config register IDLOC7 @ 0x20000E
 10021                           ;	unspecified, using default values
 10022   20000E                     	org	2097166
 10023   20000E  0FFF               	dw	4095
 10024                           
 10025                           	psect	config
 10026                           
 10027                           ;Config register CONFIG1L @ 0x300000
 10028                           ;	External Oscillator Selection
 10029                           ;	FEXTOSC = OFF, Oscillator not enabled
 10030                           ;	Reset Oscillator Selection
 10031                           ;	RSTOSC = HFINTOSC_1MHZ, HFINTOSC with HFFRQ = 4 MHz and CDIV = 4:1
 10032   300000                     	org	3145728
 10033   300000  EC                 	db	236
 10034                           
 10035                           ;Config register CONFIG1H @ 0x300001
 10036                           ;	Clock out Enable bit
 10037                           ;	CLKOUTEN = OFF, CLKOUT function is disabled
 10038                           ;	PRLOCKED One-Way Set Enable bit
 10039                           ;	PR1WAY = ON, PRLOCK bit can be cleared and set only once
 10040                           ;	Clock Switch Enable bit
 10041                           ;	CSWEN = ON, Writing to NOSC and NDIV is allowed
 10042                           ;	Fail-Safe Clock Monitor Enable bit
 10043                           ;	FCMEN = ON, Fail-Safe Clock Monitor enabled
 10044   300001                     	org	3145729
 10045   300001  FF                 	db	255
 10046                           
 10047                           ;Config register CONFIG2L @ 0x300002
 10048                           ;	MCLR Enable bit
 10049                           ;	MCLRE = EXTMCLR, If LVP = 0, MCLR pin is MCLR; If LVP = 1, RE3 pin function is MCLR
 10050                           ;	Power-up timer selection bits
 10051                           ;	PWRTS = PWRT_OFF, PWRT is disabled
 10052                           ;	Multi-vector enable bit
 10053                           ;	MVECEN = OFF, Interrupt contoller does not use vector table to prioritze interrupts
 10054                           ;	IVTLOCK bit One-way set enable bit
 10055                           ;	IVT1WAY = ON, IVTLOCK bit can be cleared and set only once
 10056                           ;	Low Power BOR Enable bit
 10057                           ;	LPBOREN = OFF, ULPBOR disabled
 10058                           ;	Brown-out Reset Enable bits
 10059                           ;	BOREN = SBORDIS, Brown-out Reset enabled , SBOREN bit is ignored
 10060   300002                     	org	3145730
 10061   300002  F7                 	db	247
 10062                           
 10063                           ;Config register CONFIG2H @ 0x300003
 10064                           ;	Brown-out Reset Voltage Selection bits
 10065                           ;	BORV = VBOR_2P45, Brown-out Reset Voltage (VBOR) set to 2.45V
 10066                           ;	ZCD Disable bit
 10067                           ;	ZCD = OFF, ZCD disabled. ZCD can be enabled by setting the ZCDSEN bit of ZCDCON
 10068                           ;	PPSLOCK bit One-Way Set Enable bit
 10069                           ;	PPS1WAY = ON, PPSLOCK bit can be cleared and set only once; PPS registers remain locke
      +                          d after one clear/set cycle
 10070                           ;	Stack Full/Underflow Reset Enable bit
 10071                           ;	STVREN = ON, Stack full/underflow will cause Reset
 10072                           ;	Debugger Enable bit
 10073                           ;	DEBUG = OFF, Background debugger disabled
 10074                           ;	Extended Instruction Set Enable bit
 10075                           ;	XINST = OFF, Extended Instruction Set and Indexed Addressing Mode disabled
 10076   300003                     	org	3145731
 10077   300003  FF                 	db	255
 10078                           
 10079                           ;Config register CONFIG3L @ 0x300004
 10080                           ;	WDT Period selection bits
 10081                           ;	WDTCPS = WDTCPS_12, Divider ratio 1:131072
 10082                           ;	WDT operating mode
 10083                           ;	WDTE = NSLEEP, WDT enabled while sleep=0, suspended when sleep=1; SWDTEN ignored
 10084   300004                     	org	3145732
 10085   300004  CC                 	db	204
 10086                           
 10087                           ;Config register CONFIG3H @ 0x300005
 10088                           ;	WDT Window Select bits
 10089                           ;	WDTCWS = WDTCWS_7, window always open (100%); software control; keyed access not requi
      +                          red
 10090                           ;	WDT input clock selector
 10091                           ;	WDTCCS = LFINTOSC, WDT reference clock is the 31.0 kHz LFINTOSC
 10092   300005                     	org	3145733
 10093   300005  C7                 	db	199
 10094                           
 10095                           ;Config register CONFIG4L @ 0x300006
 10096                           ;	Boot Block Size selection bits
 10097                           ;	BBSIZE = BBSIZE_512, Boot Block size is 512 words
 10098                           ;	Boot Block enable bit
 10099                           ;	BBEN = OFF, Boot block disabled
 10100                           ;	Storage Area Flash enable bit
 10101                           ;	SAFEN = OFF, SAF disabled
 10102                           ;	Application Block write protection bit
 10103                           ;	WRTAPP = OFF, Application Block not write protected
 10104   300006                     	org	3145734
 10105   300006  FF                 	db	255
 10106                           
 10107                           ;Config register CONFIG4H @ 0x300007
 10108                           ;	Boot Block Write Protection bit
 10109                           ;	WRTB = OFF, Boot Block not write-protected
 10110                           ;	Configuration Register Write Protection bit
 10111                           ;	WRTC = OFF, Configuration registers (300000-30000Bh) not write-protected
 10112                           ;	Data EEPROM Write Protection bit
 10113                           ;	WRTD = OFF, Data EEPROM not write-protected
 10114                           ;	SAF Write protection bit
 10115                           ;	WRTSAF = OFF, SAF not Write Protected
 10116                           ;	Low Voltage Programming Enable bit
 10117                           ;	LVP = ON, Low voltage programming enabled. MCLR/VPP pin function is MCLR. MCLRE config
      +                          uration bit is ignored
 10118   300007                     	org	3145735
 10119   300007  FF                 	db	255
 10120                           
 10121                           ;Config register CONFIG5L @ 0x300008
 10122                           ;	PFM and Data EEPROM Code Protection bit
 10123                           ;	CP = ON, PFM and Data EEPROM code protection enabled
 10124   300008                     	org	3145736
 10125   300008  FE                 	db	254
 10126                           
 10127                           ;Config register CONFIG5H @ 0x300009
 10128                           ;	unspecified, using default values
 10129   300009                     	org	3145737
 10130   300009  FF                 	db	255
 10131                           tosu	equ	0x3FFF
 10132                           tosh	equ	0x3FFE
 10133                           tosl	equ	0x3FFD
 10134                           stkptr	equ	0x3FFC
 10135                           pclatu	equ	0x3FFB
 10136                           pclath	equ	0x3FFA
 10137                           pcl	equ	0x3FF9
 10138                           tblptru	equ	0x3FF8
 10139                           tblptrh	equ	0x3FF7
 10140                           tblptrl	equ	0x3FF6
 10141                           tablat	equ	0x3FF5
 10142                           prodh	equ	0x3FF4
 10143                           prodl	equ	0x3FF3
 10144                           indf0	equ	0x3FEF
 10145                           postinc0	equ	0x3FEE
 10146                           postdec0	equ	0x3FED
 10147                           preinc0	equ	0x3FEC
 10148                           plusw0	equ	0x3FEB
 10149                           fsr0h	equ	0x3FEA
 10150                           fsr0l	equ	0x3FE9
 10151                           wreg	equ	0x3FE8
 10152                           indf1	equ	0x3FE7
 10153                           postinc1	equ	0x3FE6
 10154                           postdec1	equ	0x3FE5
 10155                           preinc1	equ	0x3FE4
 10156                           plusw1	equ	0x3FE3
 10157                           fsr1h	equ	0x3FE2
 10158                           fsr1l	equ	0x3FE1
 10159                           bsr	equ	0x3FE0
 10160                           indf2	equ	0x3FDF
 10161                           postinc2	equ	0x3FDE
 10162                           postdec2	equ	0x3FDD
 10163                           preinc2	equ	0x3FDC
 10164                           plusw2	equ	0x3FDB
 10165                           fsr2h	equ	0x3FDA
 10166                           fsr2l	equ	0x3FD9
 10167                           status	equ	0x3FD8

Data Sizes:
    Strings     564
    Constant    38
    Data        0
    BSS         225
    Persistent  8
    Stack       0

Auto Spaces:
    Space          Size  Autos    Used
    COMRAM           95     48      91
    BANK0           160      0     136
    BANK1           256      0      54
    BANK2           256      0       0
    BANK3           256      0       0
    BANK4           256      0       0
    BANK5           256      0       0
    BANK6           256      0       0
    BANK7           256      0       0
    BANK8           256      0       0
    BANK9           256      0       0
    BANK10          256      0       0
    BANK11          256      0       0
    BANK12          256      0       0
    BANK13          256      0       0
    BANK14          256      0       0
    BANK15          256      0       0

Pointer List with Targets:

    bufferBlock$data	PTR unsigned char  size(2) Largest target is 0

    cb$0	PTR void  size(2) Largest target is 5
		 -> I2C1_Read1ByteRegister@returnValue(COMRAM[1]), I2C1_Read2ByteRegister@returnValue(COMRAM[2]), I2C1_ReadDataBlock@bufferBlock(COMRAM[4]), I2C1_Write1ByteRegister@data(COMRAM[1]), 
		 -> I2C1_Write2ByteRegister@data(COMRAM[2]), NULL(NULL[0]), 

    cb$0	PTR void  size(2) Largest target is 5
		 -> I2C1_Read1ByteRegister@returnValue(COMRAM[1]), I2C1_Read2ByteRegister@returnValue(COMRAM[2]), I2C1_ReadDataBlock@bufferBlock(COMRAM[4]), I2C1_Write1ByteRegister@data(COMRAM[1]), 
		 -> I2C1_Write2ByteRegister@data(COMRAM[2]), NULL(NULL[0]), 

    fputc@fp	PTR struct _IO_FILE size(2) Largest target is 0
		 -> NULL(NULL[0]), 

    fputc@fp$.$buffer	PTR unsigned char  size(2) Largest target is 0

    fputc@fp$.$source	PTR const unsigned char  size(2) Largest target is 0

    I2C1_CallbackReturnReset@funPtr	PTR void  size(2) Largest target is 5
		 -> I2C1_Read1ByteRegister@returnValue(COMRAM[1]), I2C1_Read2ByteRegister@returnValue(COMRAM[2]), I2C1_ReadDataBlock@bufferBlock(COMRAM[4]), I2C1_Write1ByteRegister@data(COMRAM[1]), 
		 -> I2C1_Write2ByteRegister@data(COMRAM[2]), NULL(NULL[0]), 

    I2C1_CallbackReturnStop@funPtr	PTR void  size(2) Largest target is 5
		 -> I2C1_Read1ByteRegister@returnValue(COMRAM[1]), I2C1_Read2ByteRegister@returnValue(COMRAM[2]), I2C1_ReadDataBlock@bufferBlock(COMRAM[4]), I2C1_Write1ByteRegister@data(COMRAM[1]), 
		 -> I2C1_Write2ByteRegister@data(COMRAM[2]), NULL(NULL[0]), 

    I2C1_DO_RX_EMPTY$3900	PTR FTN(PTR void ,)enum E363 size(2) Largest target is 1
		 -> I2C1_CallbackReturnReset(), I2C1_CallbackReturnStop(), rd1RegCompleteHandler(), rd2RegCompleteHandler(), 
		 -> rdBlkRegCompleteHandler(), wr1RegCompleteHandler(), wr2RegCompleteHandler(), NULL(), 

    I2C1_DO_RX_EMPTY$3900$0	PTR void  size(2) Largest target is 5
		 -> I2C1_Read1ByteRegister@returnValue(COMRAM[1]), I2C1_Read2ByteRegister@returnValue(COMRAM[2]), I2C1_ReadDataBlock@bufferBlock(COMRAM[4]), I2C1_Write1ByteRegister@data(COMRAM[1]), 
		 -> I2C1_Write2ByteRegister@data(COMRAM[2]), NULL(NULL[0]), 

    I2C1_DO_RX_EMPTY$3905	PTR void  size(2) Largest target is 5
		 -> I2C1_Read1ByteRegister@returnValue(COMRAM[1]), I2C1_Read2ByteRegister@returnValue(COMRAM[2]), I2C1_ReadDataBlock@bufferBlock(COMRAM[4]), I2C1_Write1ByteRegister@data(COMRAM[1]), 
		 -> I2C1_Write2ByteRegister@data(COMRAM[2]), NULL(NULL[0]), 

    I2C1_DO_TX$3888	PTR FTN(PTR void ,)enum E363 size(2) Largest target is 1
		 -> I2C1_CallbackReturnReset(), I2C1_CallbackReturnStop(), rd1RegCompleteHandler(), rd2RegCompleteHandler(), 
		 -> rdBlkRegCompleteHandler(), wr1RegCompleteHandler(), wr2RegCompleteHandler(), NULL(), 

    I2C1_DO_TX$3888$0	PTR void  size(2) Largest target is 5
		 -> I2C1_Read1ByteRegister@returnValue(COMRAM[1]), I2C1_Read2ByteRegister@returnValue(COMRAM[2]), I2C1_ReadDataBlock@bufferBlock(COMRAM[4]), I2C1_Write1ByteRegister@data(COMRAM[1]), 
		 -> I2C1_Write2ByteRegister@data(COMRAM[2]), NULL(NULL[0]), 

    I2C1_DO_TX$3893	PTR void  size(2) Largest target is 5
		 -> I2C1_Read1ByteRegister@returnValue(COMRAM[1]), I2C1_Read2ByteRegister@returnValue(COMRAM[2]), I2C1_ReadDataBlock@bufferBlock(COMRAM[4]), I2C1_Write1ByteRegister@data(COMRAM[1]), 
		 -> I2C1_Write2ByteRegister@data(COMRAM[2]), NULL(NULL[0]), 

    I2C1_DO_TX_EMPTY$3894	PTR FTN(PTR void ,)enum E363 size(2) Largest target is 1
		 -> I2C1_CallbackReturnReset(), I2C1_CallbackReturnStop(), rd1RegCompleteHandler(), rd2RegCompleteHandler(), 
		 -> rdBlkRegCompleteHandler(), wr1RegCompleteHandler(), wr2RegCompleteHandler(), NULL(), 

    I2C1_DO_TX_EMPTY$3894$0	PTR void  size(2) Largest target is 5
		 -> I2C1_Read1ByteRegister@returnValue(COMRAM[1]), I2C1_Read2ByteRegister@returnValue(COMRAM[2]), I2C1_ReadDataBlock@bufferBlock(COMRAM[4]), I2C1_Write1ByteRegister@data(COMRAM[1]), 
		 -> I2C1_Write2ByteRegister@data(COMRAM[2]), NULL(NULL[0]), 

    I2C1_DO_TX_EMPTY$3899	PTR void  size(2) Largest target is 5
		 -> I2C1_Read1ByteRegister@returnValue(COMRAM[1]), I2C1_Read2ByteRegister@returnValue(COMRAM[2]), I2C1_ReadDataBlock@bufferBlock(COMRAM[4]), I2C1_Write1ByteRegister@data(COMRAM[1]), 
		 -> I2C1_Write2ByteRegister@data(COMRAM[2]), NULL(NULL[0]), 

    i2c1_fsmStateTable	const PTR FTN()enum E22977[19] size(2) Largest target is 1
		 -> I2C1_DO_ADDRESS_NACK(), I2C1_DO_BUS_COLLISION(), I2C1_DO_BUS_ERROR(), I2C1_DO_IDLE(), 
		 -> I2C1_DO_RESET(), I2C1_DO_RX(), I2C1_DO_RX_ACK(), I2C1_DO_RX_EMPTY(), 
		 -> I2C1_DO_RX_NACK_RESTART(), I2C1_DO_RX_NACK_STOP(), I2C1_DO_SEND_ADR_READ(), I2C1_DO_SEND_ADR_WRITE(), 
		 -> I2C1_DO_SEND_RESTART(), I2C1_DO_SEND_RESTART_READ(), I2C1_DO_SEND_RESTART_WRITE(), I2C1_DO_SEND_STOP(), 
		 -> I2C1_DO_TX(), I2C1_DO_TX_ACK(), I2C1_DO_TX_EMPTY(), 

    I2C1_MasterFsm$3887	const PTR FTN()enum E22977 size(2) Largest target is 1
		 -> I2C1_DO_ADDRESS_NACK(), I2C1_DO_BUS_COLLISION(), I2C1_DO_BUS_ERROR(), I2C1_DO_IDLE(), 
		 -> I2C1_DO_RESET(), I2C1_DO_RX(), I2C1_DO_RX_ACK(), I2C1_DO_RX_EMPTY(), 
		 -> I2C1_DO_RX_NACK_RESTART(), I2C1_DO_RX_NACK_STOP(), I2C1_DO_SEND_ADR_READ(), I2C1_DO_SEND_ADR_WRITE(), 
		 -> I2C1_DO_SEND_RESTART(), I2C1_DO_SEND_RESTART_READ(), I2C1_DO_SEND_RESTART_WRITE(), I2C1_DO_SEND_STOP(), 
		 -> I2C1_DO_TX(), I2C1_DO_TX_ACK(), I2C1_DO_TX_EMPTY(), 

    I2C1_Read1ByteRegister@returnValue$data	PTR unsigned char  size(2) Largest target is 0

    I2C1_Read2ByteRegister@returnValue$data	PTR unsigned char  size(2) Largest target is 0

    I2C1_SetAddressNackCallback@cb	PTR FTN(PTR void ,)enum E363 size(2) Largest target is 1
		 -> NULL(), 

    I2C1_SetAddressNackCallback@ptr	PTR void  size(2) Largest target is 0
		 -> NULL(NULL[0]), 

    I2C1_SetBuffer@buffer	PTR void  size(2) Largest target is 5
		 -> bufferBlock$data(COMRAM[3]), I2C1_Read1ByteRegister@reg(COMRAM[1]), I2C1_Read1ByteRegister@returnValue(COMRAM[1]), I2C1_Read1ByteRegister@returnValue$data(COMRAM[3]), 
		 -> I2C1_Read2ByteRegister@reg(COMRAM[1]), I2C1_Read2ByteRegister@returnValue(COMRAM[2]), I2C1_Read2ByteRegister@returnValue$data(COMRAM[3]), I2C1_ReadDataBlock@bufferBlock(COMRAM[4]), 
		 -> I2C1_ReadDataBlock@reg(COMRAM[1]), I2C1_Write1ByteRegister@data(COMRAM[1]), I2C1_Write1ByteRegister@data$data(COMRAM[3]), I2C1_Write1ByteRegister@reg(COMRAM[1]), 
		 -> I2C1_Write2ByteRegister@data(COMRAM[2]), I2C1_Write2ByteRegister@data$data(COMRAM[3]), I2C1_Write2ByteRegister@reg(COMRAM[1]), NULL(NULL[0]), 

    I2C1_SetCallback@cb	PTR FTN(PTR void ,)enum E363 size(2) Largest target is 1
		 -> rd1RegCompleteHandler(), rd2RegCompleteHandler(), rdBlkRegCompleteHandler(), wr1RegCompleteHandler(), 
		 -> wr2RegCompleteHandler(), NULL(), 

    I2C1_SetCallback@ptr	PTR void  size(2) Largest target is 5
		 -> I2C1_Read1ByteRegister@returnValue(COMRAM[1]), I2C1_Read2ByteRegister@returnValue(COMRAM[2]), I2C1_ReadDataBlock@bufferBlock(COMRAM[4]), I2C1_Write1ByteRegister@data(COMRAM[1]), 
		 -> I2C1_Write2ByteRegister@data(COMRAM[2]), NULL(NULL[0]), 

    I2C1_SetDataCompleteCallback@cb	PTR FTN(PTR void ,)enum E363 size(2) Largest target is 1
		 -> rd1RegCompleteHandler(), rd2RegCompleteHandler(), rdBlkRegCompleteHandler(), wr1RegCompleteHandler(), 
		 -> wr2RegCompleteHandler(), NULL(), 

    I2C1_SetDataCompleteCallback@ptr	PTR void  size(2) Largest target is 5
		 -> I2C1_Read1ByteRegister@returnValue(COMRAM[1]), I2C1_Read2ByteRegister@returnValue(COMRAM[2]), I2C1_ReadDataBlock@bufferBlock(COMRAM[4]), I2C1_Write1ByteRegister@data(COMRAM[1]), 
		 -> I2C1_Write2ByteRegister@data(COMRAM[2]), NULL(NULL[0]), 

    I2C1_Status$callbackPayload	PTR void [6] size(2) Largest target is 5
		 -> I2C1_Read1ByteRegister@returnValue(COMRAM[1]), I2C1_Read2ByteRegister@returnValue(COMRAM[2]), I2C1_ReadDataBlock@bufferBlock(COMRAM[4]), I2C1_Write1ByteRegister@data(COMRAM[1]), 
		 -> I2C1_Write2ByteRegister@data(COMRAM[2]), NULL(NULL[0]), 

    I2C1_Status$callbackTable	PTR FTN(PTR void ,)enum E363[6] size(2) Largest target is 1
		 -> I2C1_CallbackReturnReset(), I2C1_CallbackReturnStop(), rd1RegCompleteHandler(), rd2RegCompleteHandler(), 
		 -> rdBlkRegCompleteHandler(), wr1RegCompleteHandler(), wr2RegCompleteHandler(), NULL(), 

    I2C1_Status$data_ptr	PTR unsigned char  size(2) Largest target is 5
		 -> bufferBlock$data(COMRAM[3]), I2C1_Read1ByteRegister@reg(COMRAM[1]), I2C1_Read1ByteRegister@returnValue(COMRAM[1]), I2C1_Read1ByteRegister@returnValue$data(COMRAM[3]), 
		 -> I2C1_Read2ByteRegister@reg(COMRAM[1]), I2C1_Read2ByteRegister@returnValue(COMRAM[2]), I2C1_Read2ByteRegister@returnValue$data(COMRAM[3]), I2C1_ReadDataBlock@bufferBlock(COMRAM[4]), 
		 -> I2C1_ReadDataBlock@reg(COMRAM[1]), I2C1_Write1ByteRegister@data(COMRAM[1]), I2C1_Write1ByteRegister@data$data(COMRAM[3]), I2C1_Write1ByteRegister@reg(COMRAM[1]), 
		 -> I2C1_Write2ByteRegister@data(COMRAM[2]), I2C1_Write2ByteRegister@data$data(COMRAM[3]), I2C1_Write2ByteRegister@reg(COMRAM[1]), NULL(NULL[0]), 

    I2C1_Write1ByteRegister@data$data	PTR unsigned char  size(2) Largest target is 0

    I2C1_Write2ByteRegister@data$data	PTR unsigned char  size(2) Largest target is 0

    IO_ConfigPorts@ioStruct	PTR struct . size(1) Largest target is 4
		 -> g_io_expander1(COMRAM[4]), 

    IO_ResetPin@ioStruct	PTR struct . size(1) Largest target is 4
		 -> g_io_expander1(COMRAM[4]), 

    IO_SetPin@ioStruct	PTR struct . size(1) Largest target is 4
		 -> g_io_expander1(COMRAM[4]), 

    printf@ap	PTR void [1] size(1) Largest target is 2
		 -> ?_printf(COMRAM[2]), 

    printf@fmt	PTR const unsigned char  size(2) Largest target is 43
		 -> STR_1(CODE[20]), STR_10(CODE[24]), STR_11(CODE[33]), STR_12(CODE[14]), 
		 -> STR_13(CODE[27]), STR_14(CODE[25]), STR_15(CODE[30]), STR_16(CODE[43]), 
		 -> STR_17(CODE[32]), STR_18(CODE[35]), STR_19(CODE[27]), STR_2(CODE[20]), 
		 -> STR_20(CODE[28]), STR_21(CODE[28]), STR_22(CODE[26]), STR_3(CODE[19]), 
		 -> STR_4(CODE[19]), STR_5(CODE[23]), STR_6(CODE[26]), STR_7(CODE[30]), 
		 -> STR_8(CODE[37]), STR_9(CODE[26]), 

    rd1RegCompleteHandler@ptr	PTR void  size(2) Largest target is 5
		 -> I2C1_Read1ByteRegister@returnValue(COMRAM[1]), I2C1_Read2ByteRegister@returnValue(COMRAM[2]), I2C1_ReadDataBlock@bufferBlock(COMRAM[4]), I2C1_Write1ByteRegister@data(COMRAM[1]), 
		 -> I2C1_Write2ByteRegister@data(COMRAM[2]), NULL(NULL[0]), 

    rd2RegCompleteHandler@ptr	PTR void  size(2) Largest target is 5
		 -> I2C1_Read1ByteRegister@returnValue(COMRAM[1]), I2C1_Read2ByteRegister@returnValue(COMRAM[2]), I2C1_ReadDataBlock@bufferBlock(COMRAM[4]), I2C1_Write1ByteRegister@data(COMRAM[1]), 
		 -> I2C1_Write2ByteRegister@data(COMRAM[2]), NULL(NULL[0]), 

    rdBlkRegCompleteHandler@ptr	PTR void  size(2) Largest target is 5
		 -> I2C1_Read1ByteRegister@returnValue(COMRAM[1]), I2C1_Read2ByteRegister@returnValue(COMRAM[2]), I2C1_ReadDataBlock@bufferBlock(COMRAM[4]), I2C1_Write1ByteRegister@data(COMRAM[1]), 
		 -> I2C1_Write2ByteRegister@data(COMRAM[2]), NULL(NULL[0]), 

    rdBlkRegCompleteHandler@ptr$data	PTR unsigned char  size(2) Largest target is 0

    S122$data	PTR unsigned char  size(2) Largest target is 0

    S1392$0$0	PTR void  size(2) Largest target is 5
		 -> I2C1_Read1ByteRegister@returnValue(COMRAM[1]), I2C1_Read2ByteRegister@returnValue(COMRAM[2]), I2C1_ReadDataBlock@bufferBlock(COMRAM[4]), I2C1_Write1ByteRegister@data(COMRAM[1]), 
		 -> I2C1_Write2ByteRegister@data(COMRAM[2]), NULL(NULL[0]), 

    S1392$callbackPayload	PTR void [6] size(2) Largest target is 5
		 -> I2C1_Read1ByteRegister@returnValue(COMRAM[1]), I2C1_Read2ByteRegister@returnValue(COMRAM[2]), I2C1_ReadDataBlock@bufferBlock(COMRAM[4]), I2C1_Write1ByteRegister@data(COMRAM[1]), 
		 -> I2C1_Write2ByteRegister@data(COMRAM[2]), NULL(NULL[0]), 

    S1392$callbackTable	PTR FTN(PTR void ,)enum E363[6] size(2) Largest target is 1
		 -> I2C1_CallbackReturnReset(), I2C1_CallbackReturnStop(), rd1RegCompleteHandler(), rd2RegCompleteHandler(), 
		 -> rdBlkRegCompleteHandler(), wr1RegCompleteHandler(), wr2RegCompleteHandler(), NULL(), 

    S1392$data_ptr	PTR unsigned char  size(2) Largest target is 5
		 -> I2C1_Read1ByteRegister@reg(COMRAM[1]), I2C1_Read1ByteRegister@returnValue(COMRAM[1]), I2C1_Read2ByteRegister@reg(COMRAM[1]), I2C1_Read2ByteRegister@returnValue(COMRAM[2]), 
		 -> I2C1_ReadDataBlock@bufferBlock(COMRAM[4]), I2C1_ReadDataBlock@reg(COMRAM[1]), I2C1_Write1ByteRegister@data(COMRAM[1]), I2C1_Write1ByteRegister@reg(COMRAM[1]), 
		 -> I2C1_Write2ByteRegister@data(COMRAM[2]), I2C1_Write2ByteRegister@reg(COMRAM[1]), NULL(NULL[0]), 

    S3355$buffer	PTR unsigned char  size(2) Largest target is 0

    S3355$source	PTR const unsigned char  size(2) Largest target is 0

    TMR0_InterruptHandler	PTR FTN()void  size(2) Largest target is 1
		 -> TMR0_DefaultInterruptHandler(), NULL(), 

    TMR0_SetInterruptHandler@InterruptHandler	PTR FTN()void  size(2) Largest target is 1
		 -> TMR0_DefaultInterruptHandler(), 

    UART2_ErrorHandler	PTR FTN()void  size(2) Largest target is 1
		 -> UART2_DefaultErrorHandler(), NULL(), 

    UART2_FramingErrorHandler	PTR FTN()void  size(2) Largest target is 1
		 -> UART2_DefaultFramingErrorHandler(), NULL(), 

    UART2_OverrunErrorHandler	PTR FTN()void  size(2) Largest target is 1
		 -> UART2_DefaultOverrunErrorHandler(), NULL(), 

    UART2_SetErrorHandler@interruptHandler	PTR FTN()void  size(2) Largest target is 1
		 -> UART2_DefaultErrorHandler(), 

    UART2_SetFramingErrorHandler@interruptHandler	PTR FTN()void  size(2) Largest target is 1
		 -> UART2_DefaultFramingErrorHandler(), 

    UART2_SetOverrunErrorHandler@interruptHandler	PTR FTN()void  size(2) Largest target is 1
		 -> UART2_DefaultOverrunErrorHandler(), 

    vfpfcnvrt@ap	PTR PTR void  size(1) Largest target is 1
		 -> printf@ap(COMRAM[1]), 

    vfpfcnvrt@cp	PTR unsigned char  size(2) Largest target is 43
		 -> STR_1(CODE[20]), STR_10(CODE[24]), STR_11(CODE[33]), STR_12(CODE[14]), 
		 -> STR_13(CODE[27]), STR_14(CODE[25]), STR_15(CODE[30]), STR_16(CODE[43]), 
		 -> STR_17(CODE[32]), STR_18(CODE[35]), STR_19(CODE[27]), STR_2(CODE[20]), 
		 -> STR_20(CODE[28]), STR_21(CODE[28]), STR_22(CODE[26]), STR_3(CODE[19]), 
		 -> STR_4(CODE[19]), STR_5(CODE[23]), STR_6(CODE[26]), STR_7(CODE[30]), 
		 -> STR_8(CODE[37]), STR_9(CODE[26]), 

    vfpfcnvrt@fmt	PTR PTR unsigned char  size(1) Largest target is 2
		 -> vfprintf@cfmt(COMRAM[2]), 

    vfpfcnvrt@fp	PTR struct _IO_FILE size(2) Largest target is 0
		 -> NULL(NULL[0]), 

    vfprintf@ap	PTR PTR void  size(1) Largest target is 1
		 -> printf@ap(COMRAM[1]), 

    vfprintf@cfmt	PTR unsigned char  size(2) Largest target is 43
		 -> STR_1(CODE[20]), STR_10(CODE[24]), STR_11(CODE[33]), STR_12(CODE[14]), 
		 -> STR_13(CODE[27]), STR_14(CODE[25]), STR_15(CODE[30]), STR_16(CODE[43]), 
		 -> STR_17(CODE[32]), STR_18(CODE[35]), STR_19(CODE[27]), STR_2(CODE[20]), 
		 -> STR_20(CODE[28]), STR_21(CODE[28]), STR_22(CODE[26]), STR_3(CODE[19]), 
		 -> STR_4(CODE[19]), STR_5(CODE[23]), STR_6(CODE[26]), STR_7(CODE[30]), 
		 -> STR_8(CODE[37]), STR_9(CODE[26]), 

    vfprintf@fmt	PTR const unsigned char  size(2) Largest target is 43
		 -> STR_1(CODE[20]), STR_10(CODE[24]), STR_11(CODE[33]), STR_12(CODE[14]), 
		 -> STR_13(CODE[27]), STR_14(CODE[25]), STR_15(CODE[30]), STR_16(CODE[43]), 
		 -> STR_17(CODE[32]), STR_18(CODE[35]), STR_19(CODE[27]), STR_2(CODE[20]), 
		 -> STR_20(CODE[28]), STR_21(CODE[28]), STR_22(CODE[26]), STR_3(CODE[19]), 
		 -> STR_4(CODE[19]), STR_5(CODE[23]), STR_6(CODE[26]), STR_7(CODE[30]), 
		 -> STR_8(CODE[37]), STR_9(CODE[26]), 

    vfprintf@fp	PTR struct _IO_FILE size(2) Largest target is 0
		 -> NULL(NULL[0]), 

    wr1RegCompleteHandler@ptr	PTR void  size(2) Largest target is 5
		 -> I2C1_Read1ByteRegister@returnValue(COMRAM[1]), I2C1_Read2ByteRegister@returnValue(COMRAM[2]), I2C1_ReadDataBlock@bufferBlock(COMRAM[4]), I2C1_Write1ByteRegister@data(COMRAM[1]), 
		 -> I2C1_Write2ByteRegister@data(COMRAM[2]), NULL(NULL[0]), 

    wr2RegCompleteHandler@ptr	PTR void  size(2) Largest target is 5
		 -> I2C1_Read1ByteRegister@returnValue(COMRAM[1]), I2C1_Read2ByteRegister@returnValue(COMRAM[2]), I2C1_ReadDataBlock@bufferBlock(COMRAM[4]), I2C1_Write1ByteRegister@data(COMRAM[1]), 
		 -> I2C1_Write2ByteRegister@data(COMRAM[2]), NULL(NULL[0]), 


Critical Paths under _main in COMRAM

    _main->_control_system
    _fx_system_start->_IO_ResetPin
    _IO_ConfigPorts->_I2C1_Write1ByteRegister
    _control_system->_IO_ResetPin
    _control_system->_IO_SetPin
    _fx_read_adc->___lwdiv
    _IO_SetPin->_printf
    _IO_ResetPin->_printf
    _printf->_vfprintf
    _vfprintf->_vfpfcnvrt
    _vfpfcnvrt->_fputc
    _fputc->_putch
    _putch->_UART2_Write
    _abs->___awmod
    _I2C1_SetAddressNackCallback->_I2C1_SetCallback
    _I2C1_MasterWrite->_I2C1_MasterOperation
    _I2C1_Poller->_I2C1_MasterFsm
    _I2C1_MasterFsm->_I2C1_DO_TX
    _I2C1_DO_TX->_rdBlkRegCompleteHandler
    _I2C1_DO_TX_EMPTY->_rdBlkRegCompleteHandler
    _I2C1_DO_SEND_STOP->_I2C1_MasterSendTxData
    _I2C1_DO_SEND_STOP->_I2C1_MasterSetCounter
    _I2C1_DO_RX->_I2C1_DO_RX_EMPTY
    _I2C1_DO_BUS_COLLISION->_rdBlkRegCompleteHandler
    _I2C1_DO_SEND_RESTART_READ->_I2C1_MasterSetCounter
    _I2C1_DO_RX_EMPTY->_rdBlkRegCompleteHandler
    _I2C1_DO_ADDRESS_NACK->_rdBlkRegCompleteHandler
    _wr2RegCompleteHandler->_I2C1_SetDataCompleteCallback
    _wr1RegCompleteHandler->_I2C1_SetDataCompleteCallback
    _rdBlkRegCompleteHandler->_I2C1_SetDataCompleteCallback
    _rd2RegCompleteHandler->_I2C1_SetDataCompleteCallback
    _rd1RegCompleteHandler->_I2C1_SetDataCompleteCallback
    _I2C1_SetDataCompleteCallback->_I2C1_SetCallback
    _SYSTEM_Initialize->_TMR0_Initialize
    _UART2_Initialize->_UART2_SetErrorHandler
    _UART2_Initialize->_UART2_SetFramingErrorHandler
    _UART2_Initialize->_UART2_SetOverrunErrorHandler
    _TMR0_Initialize->_TMR0_SetInterruptHandler

Critical Paths under _INTERRUPT_InterruptManager in COMRAM

    None.

Critical Paths under _main in BANK0

    None.

Critical Paths under _INTERRUPT_InterruptManager in BANK0

    None.

Critical Paths under _main in BANK1

    None.

Critical Paths under _INTERRUPT_InterruptManager in BANK1

    None.

Critical Paths under _main in BANK2

    None.

Critical Paths under _INTERRUPT_InterruptManager in BANK2

    None.

Critical Paths under _main in BANK3

    None.

Critical Paths under _INTERRUPT_InterruptManager in BANK3

    None.

Critical Paths under _main in BANK4

    None.

Critical Paths under _INTERRUPT_InterruptManager in BANK4

    None.

Critical Paths under _main in BANK5

    None.

Critical Paths under _INTERRUPT_InterruptManager in BANK5

    None.

Critical Paths under _main in BANK6

    None.

Critical Paths under _INTERRUPT_InterruptManager in BANK6

    None.

Critical Paths under _main in BANK7

    None.

Critical Paths under _INTERRUPT_InterruptManager in BANK7

    None.

Critical Paths under _main in BANK8

    None.

Critical Paths under _INTERRUPT_InterruptManager in BANK8

    None.

Critical Paths under _main in BANK9

    None.

Critical Paths under _INTERRUPT_InterruptManager in BANK9

    None.

Critical Paths under _main in BANK10

    None.

Critical Paths under _INTERRUPT_InterruptManager in BANK10

    None.

Critical Paths under _main in BANK11

    None.

Critical Paths under _INTERRUPT_InterruptManager in BANK11

    None.

Critical Paths under _main in BANK12

    None.

Critical Paths under _INTERRUPT_InterruptManager in BANK12

    None.

Critical Paths under _main in BANK13

    None.

Critical Paths under _INTERRUPT_InterruptManager in BANK13

    None.

Critical Paths under _main in BANK14

    None.

Critical Paths under _INTERRUPT_InterruptManager in BANK14

    None.

Critical Paths under _main in BANK15

    None.

Critical Paths under _INTERRUPT_InterruptManager in BANK15

    None.

Call Graph Tables:

 ---------------------------------------------------------------------------------
 (Depth) Function   	        Calls       Base Space   Used Autos Params    Refs
 ---------------------------------------------------------------------------------
 (0) _main                                                 0     0      0 1124539
                  _SYSTEM_Initialize
                     _control_system
                        _control_wdt
                        _fx_read_adc
                    _fx_system_start
                             _printf
 ---------------------------------------------------------------------------------
 (1) _fx_system_start                                      0     0      0  556763
                     _IO_ConfigPorts
                        _IO_ResetPin
                             _printf
 ---------------------------------------------------------------------------------
 (2) _IO_ConfigPorts                                       2     0      2  273447
                                             27 COMRAM     2     0      2
            _I2C1_Write1ByteRegister
 ---------------------------------------------------------------------------------
 (1) _control_wdt                                          1     1      0       0
                                              2 COMRAM     1     1      0
 ---------------------------------------------------------------------------------
 (1) _control_system                                       2     2      0  562096
                                             46 COMRAM     2     2      0
                        _IO_ResetPin
                          _IO_SetPin
                  _fx_led_green_fast
                  _fx_led_green_slow
                   _fx_led_show_fail
                        _fx_read_adc
                     _fx_read_button
                             _printf
 ---------------------------------------------------------------------------------
 (2) _fx_read_button                                       0     0      0       0
 ---------------------------------------------------------------------------------
 (1) _fx_read_adc                                          5     5      0     582
                                              9 COMRAM     5     5      0
           _ADCC_GetSingleConversion
                            ___lwdiv
 ---------------------------------------------------------------------------------
 (2) ___lwdiv                                              7     3      4     466
                                              2 COMRAM     7     3      4
 ---------------------------------------------------------------------------------
 (2) _ADCC_GetSingleConversion                             5     3      2      22
                                              2 COMRAM     5     3      2
 ---------------------------------------------------------------------------------
 (2) _fx_led_show_fail                                     1     1      0      44
                                              2 COMRAM     1     1      0
 ---------------------------------------------------------------------------------
 (2) _fx_led_green_slow                                    1     1      0       0
                                              2 COMRAM     1     1      0
 ---------------------------------------------------------------------------------
 (2) _fx_led_green_fast                                    1     1      0       0
                                              2 COMRAM     1     1      0
 ---------------------------------------------------------------------------------
 (2) _IO_SetPin                                            5     3      2  278154
                                             41 COMRAM     5     3      2
            _I2C1_Write1ByteRegister
                             _printf
 ---------------------------------------------------------------------------------
 (2) _IO_ResetPin                                          5     3      2  278610
                                             41 COMRAM     5     3      2
            _I2C1_Write1ByteRegister
                             _printf
 ---------------------------------------------------------------------------------
 (1) _printf                                               9     3      6    4706
                                             34 COMRAM     7     1      6
                           _vfprintf
 ---------------------------------------------------------------------------------
 (2) _vfprintf                                             7     2      5    2980
                                             27 COMRAM     7     2      5
                          _vfpfcnvrt
 ---------------------------------------------------------------------------------
 (3) _vfpfcnvrt                                           14    10      4    2630
                                             13 COMRAM    14    10      4
                            ___awdiv
                            ___awmod
                                _abs
                              _fputc
 ---------------------------------------------------------------------------------
 (4) _fputc                                                9     5      4     826
                                              4 COMRAM     9     5      4
                              _putch
 ---------------------------------------------------------------------------------
 (5) _putch                                                1     1      0      44
                                              3 COMRAM     1     1      0
                        _UART2_Write
 ---------------------------------------------------------------------------------
 (6) _UART2_Write                                          1     1      0      22
                                              2 COMRAM     1     1      0
 ---------------------------------------------------------------------------------
 (4) _abs                                                  4     2      2     142
                                              8 COMRAM     4     2      2
                            ___awmod (ARG)
 ---------------------------------------------------------------------------------
 (4) ___awmod                                              6     2      4     448
                                              2 COMRAM     6     2      4
 ---------------------------------------------------------------------------------
 (4) ___awdiv                                              8     4      4     452
                                              2 COMRAM     8     4      4
 ---------------------------------------------------------------------------------
 (3) _I2C1_Write1ByteRegister                              3     1      2  273141
                                             24 COMRAM     3     1      2
                         _I2C1_Close
                   _I2C1_MasterWrite
                          _I2C1_Open
        _I2C1_SetAddressNackCallback
                     _I2C1_SetBuffer
       _I2C1_SetDataCompleteCallback
 ---------------------------------------------------------------------------------
 (4) _I2C1_SetAddressNackCallback                          4     0      4    1870
                                              7 COMRAM     4     0      4
                   _I2C1_SetCallback
 ---------------------------------------------------------------------------------
 (4) _I2C1_Open                                            2     2      0      46
                                              2 COMRAM     2     2      0
                _I2C1_MasterClearIrq
                    _I2C1_MasterOpen
 ---------------------------------------------------------------------------------
 (5) _I2C1_MasterOpen                                      0     0      0       0
 ---------------------------------------------------------------------------------
 (4) _I2C1_MasterWrite                                     0     0      0  266169
               _I2C1_MasterOperation
 ---------------------------------------------------------------------------------
 (5) _I2C1_MasterOperation                                 2     2      0  266169
                                             22 COMRAM     2     2      0
              _I2C1_DO_SEND_ADR_READ
             _I2C1_DO_SEND_ADR_WRITE
              _I2C1_MasterSetCounter
                        _I2C1_Poller
 ---------------------------------------------------------------------------------
 (6) _I2C1_Poller                                          0     0      0  243908
                     _I2C1_MasterFsm
            _I2C1_MasterWaitForEvent
 ---------------------------------------------------------------------------------
 (7) _I2C1_MasterWaitForEvent                              0     0      0       0
 ---------------------------------------------------------------------------------
 (7) _I2C1_MasterFsm                                       2     2      0  243908
                                             20 COMRAM     2     2      0
           _I2C1_ClearInterruptFlags
               _I2C1_DO_ADDRESS_NACK *
              _I2C1_DO_BUS_COLLISION *
                  _I2C1_DO_BUS_ERROR *
                       _I2C1_DO_IDLE *
                      _I2C1_DO_RESET *
                         _I2C1_DO_RX *
                     _I2C1_DO_RX_ACK *
                   _I2C1_DO_RX_EMPTY *
            _I2C1_DO_RX_NACK_RESTART *
               _I2C1_DO_RX_NACK_STOP *
              _I2C1_DO_SEND_ADR_READ *
             _I2C1_DO_SEND_ADR_WRITE *
               _I2C1_DO_SEND_RESTART *
          _I2C1_DO_SEND_RESTART_READ *
         _I2C1_DO_SEND_RESTART_WRITE *
                  _I2C1_DO_SEND_STOP *
                         _I2C1_DO_TX *
                     _I2C1_DO_TX_ACK *
                   _I2C1_DO_TX_EMPTY *
                  _I2C1_MasterIsNack
 ---------------------------------------------------------------------------------
 (8) _I2C1_DO_TX_ACK                                       0     0      0       0
                 _I2C1_MasterSendAck
 ---------------------------------------------------------------------------------
 (8) _I2C1_DO_TX                                           6     6      0   66561
                                             14 COMRAM     6     6      0
                                NULL *
           _I2C1_CallbackReturnReset *
            _I2C1_CallbackReturnStop *
          _I2C1_DO_SEND_RESTART_READ
         _I2C1_DO_SEND_RESTART_WRITE
                   _I2C1_DO_TX_EMPTY
                  _I2C1_MasterIsNack
            _I2C1_MasterIsTxBufEmpty
              _I2C1_MasterSendTxData
              _rd1RegCompleteHandler *
              _rd2RegCompleteHandler *
            _rdBlkRegCompleteHandler *
              _wr1RegCompleteHandler *
              _wr2RegCompleteHandler *
 ---------------------------------------------------------------------------------
 (9) _I2C1_MasterIsTxBufEmpty                              0     0      0       0
 ---------------------------------------------------------------------------------
 (8) _I2C1_MasterIsNack                                    0     0      0       0
 ---------------------------------------------------------------------------------
 (8) _I2C1_DO_TX_EMPTY                                     2     2      0   22149
                                             14 COMRAM     2     2      0
                                NULL *
           _I2C1_CallbackReturnReset *
            _I2C1_CallbackReturnStop *
          _I2C1_MasterDisableRestart
           _I2C1_MasterEnableRestart
              _I2C1_MasterSetCounter
              _rd1RegCompleteHandler *
              _rd2RegCompleteHandler *
            _rdBlkRegCompleteHandler *
              _wr1RegCompleteHandler *
              _wr2RegCompleteHandler *
 ---------------------------------------------------------------------------------
 (8) _I2C1_DO_SEND_STOP                                    0     0      0      44
              _I2C1_MasterGetCounter
              _I2C1_MasterSendTxData
              _I2C1_MasterSetCounter
                    _I2C1_MasterStop
 ---------------------------------------------------------------------------------
 (9) _I2C1_MasterGetCounter                                0     0      0       0
 ---------------------------------------------------------------------------------
 (8) _I2C1_DO_SEND_ADR_WRITE                               0     0      0      22
              _I2C1_MasterSendTxData
 ---------------------------------------------------------------------------------
 (8) _I2C1_DO_RX_NACK_STOP                                 0     0      0       0
                       _I2C1_DO_IDLE
                _I2C1_MasterSendNack
                    _I2C1_MasterStop
 ---------------------------------------------------------------------------------
 (9) _I2C1_MasterStop                                      0     0      0       0
 ---------------------------------------------------------------------------------
 (9) _I2C1_DO_IDLE                                         0     0      0       0
 ---------------------------------------------------------------------------------
 (8) _I2C1_DO_RX_NACK_RESTART                              0     0      0       0
                _I2C1_MasterSendNack
 ---------------------------------------------------------------------------------
 (9) _I2C1_MasterSendNack                                  0     0      0       0
 ---------------------------------------------------------------------------------
 (8) _I2C1_DO_RX_ACK                                       0     0      0       0
                 _I2C1_MasterSendAck
 ---------------------------------------------------------------------------------
 (9) _I2C1_MasterSendAck                                   0     0      0       0
 ---------------------------------------------------------------------------------
 (8) _I2C1_DO_RX                                           3     3      0   22172
                                             16 COMRAM     3     3      0
                   _I2C1_DO_RX_EMPTY
               _I2C1_MasterGetRxData
             _I2C1_MasterIsRxBufFull
 ---------------------------------------------------------------------------------
 (9) _I2C1_MasterIsRxBufFull                               0     0      0       0
 ---------------------------------------------------------------------------------
 (9) _I2C1_MasterGetRxData                                 0     0      0       0
 ---------------------------------------------------------------------------------
 (8) _I2C1_DO_BUS_ERROR                                    0     0      0       0
                _I2C1_MasterResetBus
 ---------------------------------------------------------------------------------
 (8) _I2C1_DO_BUS_COLLISION                                2     2      0   44320
                                             14 COMRAM     2     2      0
                                NULL *
           _I2C1_CallbackReturnReset *
            _I2C1_CallbackReturnStop *
                      _I2C1_DO_RESET
          _I2C1_DO_SEND_RESTART_READ
         _I2C1_DO_SEND_RESTART_WRITE
                _I2C1_MasterClearIrq
              _rd1RegCompleteHandler *
              _rd2RegCompleteHandler *
            _rdBlkRegCompleteHandler *
              _wr1RegCompleteHandler *
              _wr2RegCompleteHandler *
 ---------------------------------------------------------------------------------
 (9) _I2C1_DO_SEND_RESTART_WRITE                           0     0      0       0
 ---------------------------------------------------------------------------------
 (9) _I2C1_DO_SEND_RESTART_READ                            0     0      0   22193
              _I2C1_DO_SEND_ADR_READ
              _I2C1_MasterSetCounter
 ---------------------------------------------------------------------------------
 (10) _I2C1_DO_SEND_ADR_READ                               0     0      0   22171
                   _I2C1_DO_RX_EMPTY
              _I2C1_MasterSendTxData
 ---------------------------------------------------------------------------------
 (9) _I2C1_MasterSendTxData                                1     1      0      22
                                              2 COMRAM     1     1      0
 ---------------------------------------------------------------------------------
 (11) _I2C1_DO_RX_EMPTY                                    2     2      0   22149
                                             14 COMRAM     2     2      0
                                NULL *
           _I2C1_CallbackReturnReset *
            _I2C1_CallbackReturnStop *
          _I2C1_MasterDisableRestart
           _I2C1_MasterEnableRestart
              _I2C1_MasterSetCounter
              _rd1RegCompleteHandler *
              _rd2RegCompleteHandler *
            _rdBlkRegCompleteHandler *
              _wr1RegCompleteHandler *
              _wr2RegCompleteHandler *
 ---------------------------------------------------------------------------------
 (9) _I2C1_MasterSetCounter                                1     1      0      22
                                              2 COMRAM     1     1      0
 ---------------------------------------------------------------------------------
 (9) _I2C1_MasterEnableRestart                             0     0      0       0
 ---------------------------------------------------------------------------------
 (9) _I2C1_MasterDisableRestart                            0     0      0       0
 ---------------------------------------------------------------------------------
 (8) _I2C1_DO_RESET                                        0     0      0       0
                _I2C1_MasterResetBus
 ---------------------------------------------------------------------------------
 (9) _I2C1_MasterResetBus                                  0     0      0       0
 ---------------------------------------------------------------------------------
 (8) _I2C1_DO_ADDRESS_NACK                                 2     2      0   22127
                                             14 COMRAM     2     2      0
                                NULL *
           _I2C1_CallbackReturnReset *
            _I2C1_CallbackReturnStop *
               _I2C1_DO_SEND_RESTART
              _rd1RegCompleteHandler *
              _rd2RegCompleteHandler *
            _rdBlkRegCompleteHandler *
              _wr1RegCompleteHandler *
              _wr2RegCompleteHandler *
 ---------------------------------------------------------------------------------
 (9) _wr2RegCompleteHandler                                2     0      2    4368
                                             11 COMRAM     2     0      2
                     _I2C1_SetBuffer
       _I2C1_SetDataCompleteCallback
 ---------------------------------------------------------------------------------
 (9) _wr1RegCompleteHandler                                2     0      2    4368
                                             11 COMRAM     2     0      2
                     _I2C1_SetBuffer
       _I2C1_SetDataCompleteCallback
 ---------------------------------------------------------------------------------
 (9) _rdBlkRegCompleteHandler                              3     1      2    4390
                                             11 COMRAM     3     1      2
                     _I2C1_SetBuffer
       _I2C1_SetDataCompleteCallback
 ---------------------------------------------------------------------------------
 (9) _rd2RegCompleteHandler                                2     0      2    4368
                                             11 COMRAM     2     0      2
                     _I2C1_SetBuffer
       _I2C1_SetDataCompleteCallback
 ---------------------------------------------------------------------------------
 (9) _rd1RegCompleteHandler                                2     0      2    4368
                                             11 COMRAM     2     0      2
                     _I2C1_SetBuffer
       _I2C1_SetDataCompleteCallback
 ---------------------------------------------------------------------------------
 (4) _I2C1_SetDataCompleteCallback                         4     0      4    2478
                                              7 COMRAM     4     0      4
                   _I2C1_SetCallback
 ---------------------------------------------------------------------------------
 (5) _I2C1_SetCallback                                     5     1      4     914
                                              2 COMRAM     5     1      4
 ---------------------------------------------------------------------------------
 (4) _I2C1_SetBuffer                                       4     0      4    1868
                                              2 COMRAM     4     0      4
 ---------------------------------------------------------------------------------
 (8) _I2C1_DO_SEND_RESTART                                 0     0      0       0
 ---------------------------------------------------------------------------------
 (9) _I2C1_CallbackReturnStop                              2     0      2       0
                                             11 COMRAM     2     0      2
 ---------------------------------------------------------------------------------
 (9) _I2C1_CallbackReturnReset                             2     0      2     265
                                             11 COMRAM     2     0      2
 ---------------------------------------------------------------------------------
 (17) NULL(Fake)                                           0     0      0       0
 ---------------------------------------------------------------------------------
 (8) _I2C1_ClearInterruptFlags                             0     0      0       0
          _I2C1_MasterClearCountFlag
           _I2C1_MasterClearNackFlag
           _I2C1_MasterClearStopFlag
          _I2C1_MasterIsCountFlagSet
           _I2C1_MasterIsNackFlagSet
           _I2C1_MasterIsStopFlagSet
 ---------------------------------------------------------------------------------
 (9) _I2C1_MasterIsStopFlagSet                             0     0      0       0
 ---------------------------------------------------------------------------------
 (9) _I2C1_MasterIsNackFlagSet                             0     0      0       0
 ---------------------------------------------------------------------------------
 (9) _I2C1_MasterIsCountFlagSet                            0     0      0       0
 ---------------------------------------------------------------------------------
 (9) _I2C1_MasterClearStopFlag                             0     0      0       0
 ---------------------------------------------------------------------------------
 (9) _I2C1_MasterClearNackFlag                             0     0      0       0
 ---------------------------------------------------------------------------------
 (9) _I2C1_MasterClearCountFlag                            0     0      0       0
 ---------------------------------------------------------------------------------
 (4) _I2C1_Close                                           1     1      0      24
                                              2 COMRAM     1     1      0
                _I2C1_MasterClearIrq
                   _I2C1_MasterClose
              _I2C1_MasterDisableIrq
 ---------------------------------------------------------------------------------
 (5) _I2C1_MasterDisableIrq                                0     0      0       0
 ---------------------------------------------------------------------------------
 (5) _I2C1_MasterClose                                     0     0      0       0
 ---------------------------------------------------------------------------------
 (5) _I2C1_MasterClearIrq                                  0     0      0       0
 ---------------------------------------------------------------------------------
 (1) _SYSTEM_Initialize                                    0     0      0     392
                    _ADCC_Initialize
                    _I2C1_Initialize
               _INTERRUPT_Initialize
              _OSCILLATOR_Initialize
             _PIN_MANAGER_Initialize
                     _PMD_Initialize
                    _TMR0_Initialize
                    _TMR2_Initialize
                   _UART2_Initialize
 ---------------------------------------------------------------------------------
 (2) _UART2_Initialize                                     0     0      0     294
              _UART2_SetErrorHandler
       _UART2_SetFramingErrorHandler
       _UART2_SetOverrunErrorHandler
 ---------------------------------------------------------------------------------
 (3) _UART2_SetOverrunErrorHandler                         2     0      2      98
                                              2 COMRAM     2     0      2
 ---------------------------------------------------------------------------------
 (3) _UART2_SetFramingErrorHandler                         2     0      2      98
                                              2 COMRAM     2     0      2
 ---------------------------------------------------------------------------------
 (3) _UART2_SetErrorHandler                                2     0      2      98
                                              2 COMRAM     2     0      2
 ---------------------------------------------------------------------------------
 (2) _TMR2_Initialize                                      0     0      0       0
 ---------------------------------------------------------------------------------
 (2) _TMR0_Initialize                                      2     2      0      98
                                              4 COMRAM     2     2      0
           _TMR0_SetInterruptHandler
 ---------------------------------------------------------------------------------
 (3) _TMR0_SetInterruptHandler                             2     0      2      98
                                              2 COMRAM     2     0      2
 ---------------------------------------------------------------------------------
 (2) _PMD_Initialize                                       0     0      0       0
 ---------------------------------------------------------------------------------
 (2) _PIN_MANAGER_Initialize                               0     0      0       0
 ---------------------------------------------------------------------------------
 (2) _OSCILLATOR_Initialize                                0     0      0       0
 ---------------------------------------------------------------------------------
 (2) _INTERRUPT_Initialize                                 0     0      0       0
 ---------------------------------------------------------------------------------
 (2) _I2C1_Initialize                                      0     0      0       0
 ---------------------------------------------------------------------------------
 (2) _ADCC_Initialize                                      0     0      0       0
 ---------------------------------------------------------------------------------
 Estimated maximum stack depth 17
 ---------------------------------------------------------------------------------
 (Depth) Function   	        Calls       Base Space   Used Autos Params    Refs
 ---------------------------------------------------------------------------------
 (15) _INTERRUPT_InterruptManager                          2     2      0       0
                                              0 COMRAM     2     2      0
                           _TMR0_ISR
 ---------------------------------------------------------------------------------
 (16) _TMR0_ISR                                            0     0      0       0
                                NULL *
       _TMR0_DefaultInterruptHandler *
 ---------------------------------------------------------------------------------
 (17) _TMR0_DefaultInterruptHandler                        0     0      0       0
 ---------------------------------------------------------------------------------
 (17) NULL(Fake)                                           0     0      0       0
 ---------------------------------------------------------------------------------
 Estimated maximum stack depth 17
 ---------------------------------------------------------------------------------

 Call Graph Graphs:

 _main (ROOT)
   _SYSTEM_Initialize
     _ADCC_Initialize
     _I2C1_Initialize
     _INTERRUPT_Initialize
     _OSCILLATOR_Initialize
     _PIN_MANAGER_Initialize
     _PMD_Initialize
     _TMR0_Initialize
       _TMR0_SetInterruptHandler
     _TMR2_Initialize
     _UART2_Initialize
       _UART2_SetErrorHandler
       _UART2_SetFramingErrorHandler
       _UART2_SetOverrunErrorHandler
   _control_system
     _IO_ResetPin
       _I2C1_Write1ByteRegister
         _I2C1_Close
           _I2C1_MasterClearIrq
           _I2C1_MasterClose
           _I2C1_MasterDisableIrq
         _I2C1_MasterWrite
           _I2C1_MasterOperation
             _I2C1_DO_SEND_ADR_READ
               _I2C1_DO_RX_EMPTY
                 NULL(Fake) *
                 _I2C1_CallbackReturnReset *
                 _I2C1_CallbackReturnStop *
                 _I2C1_MasterDisableRestart *
                 _I2C1_MasterEnableRestart *
                 _I2C1_MasterSetCounter *
                 _rd1RegCompleteHandler *
                   _I2C1_SetBuffer
                   _I2C1_SetDataCompleteCallback
                     _I2C1_SetCallback
                 _rd2RegCompleteHandler *
                   _I2C1_SetBuffer
                   _I2C1_SetDataCompleteCallback
                 _rdBlkRegCompleteHandler *
                   _I2C1_SetBuffer
                   _I2C1_SetDataCompleteCallback
                 _wr1RegCompleteHandler *
                   _I2C1_SetBuffer
                   _I2C1_SetDataCompleteCallback
                 _wr2RegCompleteHandler *
                   _I2C1_SetBuffer
                   _I2C1_SetDataCompleteCallback
               _I2C1_MasterSendTxData
             _I2C1_DO_SEND_ADR_WRITE
               _I2C1_MasterSendTxData
             _I2C1_MasterSetCounter
             _I2C1_Poller
               _I2C1_MasterFsm
                 _I2C1_ClearInterruptFlags
                   _I2C1_MasterClearCountFlag
                   _I2C1_MasterClearNackFlag
                   _I2C1_MasterClearStopFlag
                   _I2C1_MasterIsCountFlagSet
                   _I2C1_MasterIsNackFlagSet
                   _I2C1_MasterIsStopFlagSet
                 _I2C1_DO_ADDRESS_NACK *
                   NULL(Fake) *
                   _I2C1_CallbackReturnReset *
                   _I2C1_CallbackReturnStop *
                   _I2C1_DO_SEND_RESTART *
                   _rd1RegCompleteHandler *
                   _rd2RegCompleteHandler *
                   _rdBlkRegCompleteHandler *
                   _wr1RegCompleteHandler *
                   _wr2RegCompleteHandler *
                 _I2C1_DO_BUS_COLLISION *
                   NULL(Fake) *
                   _I2C1_CallbackReturnReset *
                   _I2C1_CallbackReturnStop *
                   _I2C1_DO_RESET *
                     _I2C1_MasterResetBus
                   _I2C1_DO_SEND_RESTART_READ *
                     _I2C1_DO_SEND_ADR_READ
                     _I2C1_MasterSetCounter
                   _I2C1_DO_SEND_RESTART_WRITE *
                   _I2C1_MasterClearIrq *
                   _rd1RegCompleteHandler *
                   _rd2RegCompleteHandler *
                   _rdBlkRegCompleteHandler *
                   _wr1RegCompleteHandler *
                   _wr2RegCompleteHandler *
                 _I2C1_DO_BUS_ERROR *
                   _I2C1_MasterResetBus
                 _I2C1_DO_IDLE *
                 _I2C1_DO_RESET *
                 _I2C1_DO_RX *
                   _I2C1_DO_RX_EMPTY
                   _I2C1_MasterGetRxData
                   _I2C1_MasterIsRxBufFull
                 _I2C1_DO_RX_ACK *
                   _I2C1_MasterSendAck
                 _I2C1_DO_RX_EMPTY *
                 _I2C1_DO_RX_NACK_RESTART *
                   _I2C1_MasterSendNack
                 _I2C1_DO_RX_NACK_STOP *
                   _I2C1_DO_IDLE
                   _I2C1_MasterSendNack
                   _I2C1_MasterStop
                 _I2C1_DO_SEND_ADR_READ *
                 _I2C1_DO_SEND_ADR_WRITE *
                 _I2C1_DO_SEND_RESTART *
                 _I2C1_DO_SEND_RESTART_READ *
                 _I2C1_DO_SEND_RESTART_WRITE *
                 _I2C1_DO_SEND_STOP *
                   _I2C1_MasterGetCounter
                   _I2C1_MasterSendTxData
                   _I2C1_MasterSetCounter
                   _I2C1_MasterStop
                 _I2C1_DO_TX *
                   NULL(Fake) *
                   _I2C1_CallbackReturnReset *
                   _I2C1_CallbackReturnStop *
                   _I2C1_DO_SEND_RESTART_READ *
                   _I2C1_DO_SEND_RESTART_WRITE *
                   _I2C1_DO_TX_EMPTY *
                     NULL(Fake) *
                     _I2C1_CallbackReturnReset *
                     _I2C1_CallbackReturnStop *
                     _I2C1_MasterDisableRestart *
                     _I2C1_MasterEnableRestart *
                     _I2C1_MasterSetCounter *
                     _rd1RegCompleteHandler *
                     _rd2RegCompleteHandler *
                     _rdBlkRegCompleteHandler *
                     _wr1RegCompleteHandler *
                     _wr2RegCompleteHandler *
                   _I2C1_MasterIsNack *
                   _I2C1_MasterIsTxBufEmpty *
                   _I2C1_MasterSendTxData *
                   _rd1RegCompleteHandler *
                   _rd2RegCompleteHandler *
                   _rdBlkRegCompleteHandler *
                   _wr1RegCompleteHandler *
                   _wr2RegCompleteHandler *
                 _I2C1_DO_TX_ACK *
                   _I2C1_MasterSendAck
                 _I2C1_DO_TX_EMPTY *
                 _I2C1_MasterIsNack *
               _I2C1_MasterWaitForEvent
         _I2C1_Open
           _I2C1_MasterClearIrq
           _I2C1_MasterOpen
         _I2C1_SetAddressNackCallback
           _I2C1_SetCallback
         _I2C1_SetBuffer
         _I2C1_SetDataCompleteCallback
       _printf
         _vfprintf
           _vfpfcnvrt
             ___awdiv
             ___awmod
             _abs
               ___awmod (ARG)
             _fputc
               _putch
                 _UART2_Write
     _IO_SetPin
       _I2C1_Write1ByteRegister
       _printf
     _fx_led_green_fast
     _fx_led_green_slow
     _fx_led_show_fail
     _fx_read_adc
       _ADCC_GetSingleConversion
       ___lwdiv
     _fx_read_button
     _printf
   _control_wdt
   _fx_read_adc
   _fx_system_start
     _IO_ConfigPorts
       _I2C1_Write1ByteRegister
     _IO_ResetPin
     _printf
   _printf

 _INTERRUPT_InterruptManager (ROOT)
   _TMR0_ISR
     NULL(Fake) *
     _TMR0_DefaultInterruptHandler *

 Address spaces:
Name               Size   Autos  Total    Cost      Usage
BIGRAM             FFF      0       0      71        0.0%
EEDATA             400      0       0       0        0.0%
BITBIGSFRlllll     292      0       0      69        0.0%
BITBIGSFRllhlhh    27F      0       0      50        0.0%
BITBANK15          100      0       0      34        0.0%
BANK15             100      0       0      35        0.0%
BITBANK14          100      0       0      32        0.0%
BANK14             100      0       0      33        0.0%
BITBANK13          100      0       0      30        0.0%
BANK13             100      0       0      31        0.0%
BITBANK12          100      0       0      28        0.0%
BANK12             100      0       0      29        0.0%
BITBANK11          100      0       0      26        0.0%
BANK11             100      0       0      27        0.0%
BITBANK10          100      0       0      24        0.0%
BANK10             100      0       0      25        0.0%
BITBANK9           100      0       0      22        0.0%
BANK9              100      0       0      23        0.0%
BITBANK8           100      0       0      20        0.0%
BANK8              100      0       0      21        0.0%
BITBANK7           100      0       0      18        0.0%
BANK7              100      0       0      19        0.0%
BITBANK6           100      0       0      16        0.0%
BANK6              100      0       0      17        0.0%
BITBANK5           100      0       0      14        0.0%
BANK5              100      0       0      15        0.0%
BITBANK4           100      0       0      12        0.0%
BANK4              100      0       0      13        0.0%
BITBANK3           100      0       0      10        0.0%
BANK3              100      0       0      11        0.0%
BITBANK2           100      0       0       8        0.0%
BANK2              100      0       0       9        0.0%
BITBANK1           100      0       0       6        0.0%
BANK1              100      0      36       7       21.1%
BITBIGSFRlhlll      FB      0       0      44        0.0%
BITBIGSFRlhllhh     AA      0       0      42        0.0%
BITBANK0            A0      0       0       4        0.0%
BANK0               A0      0      88       5       85.0%
BITCOMRAM           5F      0       0       0        0.0%
COMRAM              5F     30      5B       1       95.8%
BITBIGSFRllhlhh     5E      0       0      52        0.0%
BITBIGSFRllhlhh     54      0       0      47        0.0%
BITBIGSFRllhlhl     32      0       0      57        0.0%
BITBIGSFRhl         22      0       0      37        0.0%
BITBIGSFRllhlhl     21      0       0      59        0.0%
BITBIGSFRllhlhh     1C      0       0      54        0.0%
BITBIGSFRllhlll     18      0       0      65        0.0%
BITBIGSFRllhlll     11      0       0      64        0.0%
BITBIGSFRllllhl      C      0       0      68        0.0%
BITBIGSFRllhlhl      B      0       0      56        0.0%
BITBIGSFRllhlhl      B      0       0      55        0.0%
BITBIGSFRlhhhl       7      0       0      39        0.0%
BITBIGSFRhh          7      0       0      36        0.0%
BITBIGSFRlhllhh      6      0       0      41        0.0%
BITBIGSFRllhlhh      6      0       0      49        0.0%
BITBIGSFRlhhhh       5      0       0      38        0.0%
BITBIGSFRllhlhh      5      0       0      51        0.0%
BITBIGSFRlhhl        5      0       0      40        0.0%
BITBIGSFRllhlhl      3      0       0      58        0.0%
BITBIGSFRllhlhh      2      0       0      53        0.0%
BITBIGSFRlllh        2      0       0      66        0.0%
BITBIGSFRllhlhh      1      0       0      48        0.0%
BITBIGSFRllhlll      1      0       0      62        0.0%
BITBIGSFRllhlll      1      0       0      63        0.0%
BITBIGSFRllllhh      1      0       0      67        0.0%
BITBIGSFRllhllh      1      0       0      60        0.0%
BITBIGSFRllhllh      1      0       0      61        0.0%
BITBIGSFRlhllhh      1      0       0      43        0.0%
BITBIGSFRllhhh       1      0       0      45        0.0%
BITBIGSFRllhhl       1      0       0      46        0.0%
BIGSFR               0      0       0     200        0.0%
BITSFR_9             0      0       0     200        0.0%
SFR_9                0      0       0     200        0.0%
BITSFR_8             0      0       0     200        0.0%
SFR_8                0      0       0     200        0.0%
BITSFR_7             0      0       0     200        0.0%
SFR_7                0      0       0     200        0.0%
BITSFR_6             0      0       0     200        0.0%
SFR_6                0      0       0     200        0.0%
BITSFR_5             0      0       0     200        0.0%
SFR_5                0      0       0     200        0.0%
BITSFR_4             0      0       0     200        0.0%
SFR_4                0      0       0     200        0.0%
BITSFR_3             0      0       0     200        0.0%
SFR_3                0      0       0     200        0.0%
BITSFR_2             0      0       0     200        0.0%
SFR_2                0      0       0     200        0.0%
BITSFR_1             0      0       0     200        0.0%
SFR_1                0      0       0     200        0.0%
BITSFR               0      0       0     200        0.0%
SFR                  0      0       0     200        0.0%
STACK                0      0       0       2        0.0%
NULL                 0      0       0       0        0.0%
ABS                  0      0     119      70        0.0%
DATA                 0      0     119       3        0.0%
CODE                 0      0       0       0        0.0%


Microchip Technology PIC18 Macro Assembler V2.45 build 20230818022343 
Symbol Table                                                                                   Mon Oct 30 18:15:57 2023

                                          l52 0F82                                            l53 0F84  
                                          l92 16AA                                            l95 167E  
                                          l98 1652                                  ___awdiv@sign 0008  
                                         l101 16D6                                           l104 142E  
                                         l202 19AE                                           l220 19EA  
                                         l214 19E0                                           l217 19D6  
                                         l251 1520                                           l167 112C  
                                         l360 1248                                           l193 1858  
                                         l196 186E                                           l372 15D8  
                                         l278 19F4                                           l375 15F8  
                                         l632 1750                                           l801 1346  
                                         l635 18B6                                           l564 105C  
                                         l638 1798                                           l814 1774  
                                         l902 0996                                           l911 198C  
                                         l807 19FC                                           l823 1886  
                                         l840 1818                                           l817 189E  
                                         l921 172A                                           l578 1A6C  
                                         l834 0FF2                                           l914 1A60  
                                         l930 197E                                           l852 1398  
                                         l924 1A0C                                           l844 0D50  
                                         l917 1A5C                                           l933 1A04  
                                         l862 18CC                                           l942 10C4  
                                         l927 1A14                                           l855 1998  
                                         l791 0B5C                                           l936 1970  
                                         l961 1A68                                           l787 17DC  
                                         l795 1702                                           l859 1626  
                                         l955 1960                                           l964 1A64  
                                         l980 1A3A                                           l868 05D8  
                                         l885 0A34                                           l893 0CD6  
                                         l949 0F16                                           l886 09E0  
                                         l974 17BA                                           l983 19B8  
                                         l992 19CC                                           l977 19A4  
                                         l986 1A22                                           l995 1A40  
                                         l989 19C2                                           l998 1A46  
                                         _PR2 3FAB                   ??_I2C1_MasterClearCountFlag 0003  
                    fx_led_show_fail@flag_led 0047                         ?_I2C1_MasterOperation 0001  
                                         _abs 1594                        ?_I2C1_MasterSetCounter 0001  
                                ___awmod@sign 0008                               _TMR2_Initialize 1838  
                                         tosl 3FFD                                           wreg 3FE8  
                      ?_I2C1_MasterSendTxData 0001                          _I2C1_DO_RX_NACK_STOP 1972  
                   ?_I2C1_MasterEnableRestart 0001                      fp__I2C1_DO_SEND_ADR_READ 0000  
                     fp__I2C1_DO_SEND_RESTART 0000                          I2C1_SetBuffer@buffer 0003  
                  ??_I2C1_MasterIsStopFlagSet 0003                                          l1001 1A28  
                                        l1010 1A2E                                          l1004 18F8  
                                        l1022 1924                                          l1031 1A4C  
                                        l1007 1A34                                          l1016 190E  
                                        l1025 1950                                          l1034 1A58  
                                        l1051 1A1C                                          l1019 18E2  
                                        ?_abs 0009                                          l1028 193A  
                     ??_rd2RegCompleteHandler 000E                                          l1037 1A52  
                                        l1221 004E                                          l1062 11EC  
                                        l1054 1192                                          l2102 04B6  
                                        l1055 11A6                                          l1048 1836  
                                        l2112 15AE                                          l1240 01C2  
                                        l1057 11B8                                          l1305 14E4  
                                        l1313 14A8                                          l1217 0022  
                                        l1058 11CC                                          l1330 0742  
                                        l1242 01C4                                          l1059 11DE  
                                        l2115 15C6                                          l2108 13E4  
                                        l1260 02B6                                          l1333 0754  
                                        l1325 0780                                          l1245 01D8  
                                        l2127 06B0                                          l1247 01DA  
                                        l2064 17FA                                          l1089 1854  
                                        l4001 0934                                          l1370 0DE8  
                                        l4003 0938                                          l1371 0DE8  
                                        l1363 0E5A                                          l1267 146A  
                                        l1347 0BDE                                          l1364 0E5A  
                                        l1268 146C                                          l1356 12F4  
                                        l4021 1616                                          l1373 0E36  
                                        l1285 0C5A                                          l1630 08F4  
                                        l1366 0EA6                                          l4031 1A16  
                                        l4015 19B2                                          l4023 161A  
                                        l4041 1A54                                          l4105 18FA  
                                        l4033 18E4                                          l4025 1624  
                                        l4017 15FA                                          l4201 05D0  
                                        l4009 093E                                          l4113 1A5A  
                                        l1617 0844                                          l1297 12A2  
                                        l5001 00AA                                          l4043 1910  
                                        l4123 1A30                                          l4019 1604  
                                        l4131 196A                                          l5011 00F0  
                                        l5003 00AE                                          l4053 1A4E  
                                        l4037 193C                                          l4029 19C4  
                                        l4109 1A36                                          l4125 1A2A  
                                        l4117 1A24                                          l4141 18B8  
                                        l4221 09B2                                          l4133 196E  
                                        l4301 0EAC                                          l5021 0114  
                                        l5005 00C0                                          l4047 1A48  
                                        l4151 135C                                          l4119 1A1E  
                                        l4055 198E                                          l4143 18C2  
                                        l4207 05D6                                          l4223 09C8  
                                        l4215 0998                                          l4063 1980  
                                        l4127 1962                                          l4311 0EC6  
                                        l4303 0EB6                                          l5031 0132  
                                        l5023 0120                                          l5015 0100  
                                        l5007 00C4                                          l4049 1926  
                                        l4153 1364                                          l4073 18CE  
                                        l4057 1992                                          l4145 18CA  
                                        l4161 04B8                                          l4241 0A32  
                                        l4225 09F8                                          l4217 09AC  
                                        l4081 0C68                                          l4065 1988  
                                        l4129 1966                                          l4401 0834  
                                        l4137 1858                                          l5033 0144  
                                        l5025 0122                                          l5017 010C  
                                        l5009 00DA                                          l5201 113A  
                                        l4155 1378                                          l4059 1996  
                                        l4227 0A0A                                          l4235 0A14  
                                        l4091 0C7C                                          l4251 1728  
                                        l4307 0EBE                                          l4323 1952  
                                        l4403 083C                                          l4411 0858  
                                        l4139 1868                                          l5051 01A4  
                                        l5043 0184                                          l5035 0148  
                                        l5211 116E                                          l5203 1142  
                                        l4157 1380                                          l4149 1348  
                                        l4261 1A0E                                          l4173 04E0  
                                        l4165 04D0                                          l4181 0540  
                                        l4237 0A1A                                          l4093 0C80  
                                        l4085 0C6E                                          l4077 0C5C  
                                        l4069 1A5E                                          l4245 1704  
                                        l4317 0ECE                                          l4325 1956  
                                        l4501 1344                                          l4421 088C  
                                        l4413 0860                                          l4333 19A8  
                                        l5061 01DC                                          l5053 01AC  
                                        l5045 0190                                          l5037 015E  
                                        l5029 012E                                          l5205 1154  
                                        l4159 1394                                          l4263 1A12  
                                        l4191 0596                                          l4183 0554  
                                        l4239 0A2C                                          l4087 0C76  
                                        l4079 0C64                                          l4247 1708  
                                        l4255 1A06                                          l4327 195A  
                                        l4351 0D06                                          l4431 08C8  
                                        l4423 0894                                          l4415 0864  
                                        l4407 0846                                          l4511 02F8  
                                        l5071 0206                                          l5063 01E4  
                                        l5055 01B8                                          l5039 0174  
                                        l5207 1158                                          l4193 05AE  
                                        l4185 056A                                          l4169 04D8  
                                        l4249 171C                                          l4257 1A0A  
                                        l4273 19FE                                          l4281 1068  
                                        l4329 195E                                          l4353 0D0C  
                                        l4345 0CD8                                          l4361 1808  
                                        l4433 08CE                                          l4425 089C  
                                        l4417 0872                                          l4409 084A  
                                        l4521 036E                                          l4513 02FC  
                                        l4505 02B8                                          l5081 0234  
                                        l5073 0208                                          l5065 01F4  
                                        l5057 01BA                                          l5049 0198  
                                        l5209 116A                                          l4611 16DC  
                                        l4195 05BE                                          l4187 0582  
                                        l4179 04E6                                          l4099 0C86  
                                        l4267 1972                                          l4275 1A02  
                                        l4283 106E                                          l4347 0CDC  
                                        l4355 17FC                                          l4603 1870  
                                        l4371 07A0                                          l4363 0782  
                                        l4427 08AA                                          l4435 08D4  
                                        l4419 087A                                          l4451 0626  
                                        l4443 05DA                                          l4531 0402  
                                        l4523 038C                                          l4515 030E  
                                        l4507 02E0                                          l5067 01F8  
                                        l5075 020E                                          l5059 01C6  
                                        l1884 0DC4                                          l4701 1104  
                                        l4621 16FC                                          l4613 16EC  
                                        l4197 05C6                                          l4189 0592  
                                        l4269 197A                                          l4293 107C  
                                        l4349 0CF2                                          l4357 1800  
                                        l4605 19F6                                          l4461 179A  
                                        l4381 07D4                                          l4373 07AE  
                                        l4365 0786                                          l4437 08E4  
                                        l4429 08C0                                          l4453 065C  
                                        l4445 05EC                                          l4541 0462  
                                        l4533 0412                                          l4525 03A4  
                                        l4517 0330                                          l4509 02EC  
                                        l1877 0DBC                                          l5077 0214  
                                        l5069 01FA                                          l4711 14F2  
                                        l4703 1110                                          l4471 181A  
                                        l4615 16F0                                          l4623 1700  
                                        l3911 0F9A                                          l4199 05CA  
                                        l4287 1076                                          l4279 105E  
                                        l4359 1804                                          l4463 17AA  
                                        l4391 080E                                          l4383 07DC  
                                        l4375 07B6                                          l4367 0794  
                                        l4439 08EC                                          l4447 05FE  
                                        l4535 0422                                          l4543 0464  
                                        l4527 03D4                                          l4519 0352  
                                        l4631 13BA                                          l5351 0260  
                                        l5079 0228                                          l5087 024C  
                                        l4721 11EE                                          l4713 150A  
                                        l4705 111C                                          l4473 199A  
                                        l4617 16F4                                          l4609 16D8  
                                        l3921 176A                                          l3913 0FCE  
                                        l5361 051A                                          l5353 0F00  
                                        l4481 12FC                                          l4465 17B6  
                                        l4561 0AE8                                          l4641 0F32  
                                        l4393 0816                                          l4385 07E4  
                                        l4377 07BA                                          l4369 079C  
                                        l4457 1594                                          l4449 0608  
                                        l4537 0432                                          l4529 03F0  
                                        l4545 047A                                          l4633 13DC  
                                        l4801 0E5E                                          l5193 112E  
                                        l4731 1038                                          l4723 0FF4  
                                        l4715 150E                                          l4651 19D8  
                                        l4707 1128                                          l4475 199E  
                                        l4619 16F8                                          l3923 1772  
                                        l3915 1888                                          l5355 10AE  
                                        l4299 0EA8                                          l4491 1328  
                                        l4483 130C                                          l4467 17B8  
                                        l4571 0AFC                                          l4563 0AEA  
                                        l4555 0AD0                                          l4643 0F44  
                                        l4395 0818                                          l4387 07F2  
                                        l4379 07C2                                          l4459 15A2  
                                        l4539 0444                                          l4627 139A  
                                        l4803 0E7A                                          l4811 14C0  
                                        l5195 1132                                          l4733 103A  
                                        l4725 1016                                          l4741 1776  
                                        l4717 1510                                          l4709 14E6  
                                        l4653 19CE                                          l4477 19A2  
                                        l3917 1752                                          l3909 0F88  
                                        l3925 1680                                          l3933 1654  
                                        l3941 1628                                          l5357 0970  
                                        l4493 132E                                          l4485 130E  
                                        l4581 0B1E                                          l4573 0AFE  
                                        l4565 0AEC                                          l4557 0AD4  
                                        l4645 0F56                                          l4637 0F1A  
                                        l4397 081E                                          l4389 07F8  
                                        l4549 048A                                          l4629 13A6  
                                        l4821 0E18                                          l4813 0DC6  
                                        l4805 0E88                                          l4661 15D0  
                                        l5197 1134                                          l4743 17BC  
                                        l4735 103C                                          l4727 1034  
                                        l4719 151C                                          l4751 1838  
                                        l4655 19E2                                          l3919 1762  
                                        l3951 16C0                                          l3927 1694  
                                        l3935 1668                                          l3943 163C  
                                        l5359 0CB8                                          l4495 1336  
                                        l4487 1312                                          l4479 12F8  
                                        l4591 0B46                                          l4583 0B26  
                                        l4575 0B06                                          l4567 0AF0  
                                        l4559 0AE4                                          l4647 0F6A  
                                        l4639 0F1C                                          l4399 0824  
                                        l4671 17DE                                          l4815 0DD6  
                                        l4807 14AA                                          l4831 06EE  
                                        l4823 06B4                                          l4663 15D4  
                                        l5199 1138                                          l4745 17DA  
                                        l4737 103E                                          l4729 1036  
                                        l4657 19EC                                          l4753 184C  
                                        l3953 16D4                                          l3929 16A8  
                                        l3937 167C                                          l3945 1650  
                                        l3961 142C                                          l4497 133C  
                                        l4489 1318                                          l4593 0B4E  
                                        l4585 0B2E                                          l4577 0B0E  
                                        l4569 0AF4                                          l4649 0F6E  
                                        l4673 17E2                                          l4817 0DEC  
                                        l4809 14BC                                          l4841 0744  
                                        l4833 06F2                                          l4825 06C4  
                                        l4665 15D6                                          l4681 0D6C  
                                        l4761 0BF4                                          l4739 1A6A  
                                        l4931 1734                                          l3971 1A66  
                                        l4499 1340                                          l4595 0B52  
                                        l4587 0B36                                          l4579 0B16  
                                        l4819 0E0A                                          l4771 1480  
                                        l4843 0748                                          l4835 0704  
                                        l4667 15E6                                          l4659 15CA  
                                        l4691 0DA6                                          l4683 0D74  
                                        l4763 0C10                                          l4755 0BE0  
                                        l4851 12A4                                          l4749 18A0  
                                        l4941 1748                                          l4933 1738  
                                        l3949 16AC                                          l3957 13E6  
                                        l3965 19BC                                          l3981 08FE  
                                        l4597 0B56                                          l4589 0B3E  
                                        l4773 1484                                          l4845 0756  
                                        l4837 070A                                          l4829 06DC  
                                        l4693 0DAE                                          l4685 0D7C  
                                        l4677 0D52                                          l4765 0C12  
                                        l4781 1276                                          l4853 12AE  
                                        l4943 174C                                          l4935 173C  
                                        l4927 172C                                          l3959 1418  
                                        l3975 1A62                                          l3967 1A3C  
                                        l3983 0902                                          l4599 0B5A  
                                        l4839 071C                                          l4695 0DB0  
                                        l4687 0D8A                                          l4679 0D5A  
                                        l4767 0C22                                          l4783 127E  
                                        l4775 124A                                          l4855 12BA  
                                        l4951 0B9A                                          l4937 1740  
                                        l4929 1730                                          l3969 1A42  
                                        l3993 0912                                          l4769 146E  
                                        l4849 0770                                          l4697 0DB6  
                                        l4689 0D90                                          l4785 1286  
                                        l4793 12A0                                          l4777 1258  
                                        l4857 12C6                                          l4961 0BB8  
                                        l4953 0BA6                                          l4945 0B5E  
                                ?_control_wdt 0001                                          l4699 10C6  
                                        l4939 1744                                          l3995 091A  
                                        l3987 0908                                          l3979 08F6  
                                        l4787 1296                                          l4779 126E  
                                        l4971 1442                                          l4859 12D6  
                                        l4963 0BC4                                          l4955 0BA8  
                                        l4947 0B82                                          l3989 090C  
                                        l4797 0E38                                          l4789 129A  
                                        l4981 003E                                          l4973 1446  
                                        l4965 0BC6                                          l4957 0BAA  
                                        l4949 0B8E                                          l3999 0920  
                                        l4799 0E48                                          l4991 007E  
                                        l4983 005C                                          l4975 001E  
                                        l4967 0BD2                                          l4959 0BAC  
                                        l4993 0086                                          l4985 0068  
                                        l4977 0024                                          l4969 1430  
                                        l4995 0092                                          l4987 006E  
                                        l4979 003C                                          l4997 009E  
                                        l4989 007A                                          STR_1 FFA3  
                                        STR_2 FFB7                                          STR_3 FFDE  
                                        STR_4 FFCB                                          STR_5 FF8C  
                                        STR_6 FF41                                          STR_7 FE7F  
                                        STR_8 FDF6                                          STR_9 FF27  
                                        u2000 088C                                          u2001 0888  
                                        u2010 08AA                                          u2011 08A6  
                                        u2100 130C                                          u2020 08C0  
                                        u2101 1308                                          u2021 08BC  
                                        u2110 1328                                          u2030 08E4  
                                        u2111 1324                                          u2031 08E0  
                                        u2040 05EC                                          u2200 0432  
                                        u2120 02E0                                          u2041 05E8  
                                        u2201 042E                                          u2121 02DC  
                                        u2050 05FE                                          u2210 0476  
                                        u2130 0330                                          u2051 05FA  
                                        u2211 0472                                          u2131 032C  
                                        u2220 0AE4                                          u2060 0626  
                                        u2140 0352                                          u2300 0DA6  
                                        u2221 0AE0                                          u2061 0622  
                                        u2141 034E                                          u2301 0DA2  
                                        _LATA 3FBA                                          u2230 16EC  
                                        u2070 065C                                          u2150 03A0  
                                        u2310 0C22                                          _LATB 3FBB  
                                        u2231 16E8                                          u2071 0658  
                                        u2151 039A                                          u2311 0C1E  
                                        _LATC 3FBC                                          u1600 1616  
                                        u2080 15A2                                          u2160 03A2  
                                        u2240 13DC                                          u2400 14D0  
                                        u2320 1480                                          u1601 1612  
                                        u2081 159E                                          u2241 13D8  
                                        u2401 14CA                                          u2321 147C  
                                        u1610 18F6                                          u2090 17AA  
                                        u2250 0F32                                          u2170 0402  
                                        u2410 0DD6                                          u2330 1494  
                                        u1611 18F0                                          u2091 17A6  
                                        u2251 0F2E                                          u2171 03FE  
                                        u2411 0DD2                                          u2331 148E  
                                        u1620 194E                                          u1700 1378  
                                        u2260 0F82                                          u2180 0412  
                                        u2500 076C                                          u2340 1258  
                                        u1621 1948                                          u1701 1374  
                                        u2261 0F7E                                          u2181 040E  
                                        u2501 0768                                          u2341 1254  
                                        u1630 1922                                          u1710 1394  
                                        u2190 0422                                          u2406 14D2  
                                        u2430 06C4                                          u2270 15E6  
                                        u2350 126E                                          u1631 191C  
                                        u1711 1390                                          u2191 041E  
                                        u2431 06C0                                          u2271 15E2  
                                        u2351 126A                                          u1640 1938  
                                        u1560 0F9A                                          u1616 18F8  
                                        u1720 04CC                                          u1800 171C  
                                        u2424 0DFE                                          u2336 1496  
                                        u2440 06EE                                          u2280 0D6C  
                                        u2360 1296                                          u1641 1932  
                                        u1561 0F96                                          u1721 04C8  
                                        u1801 1718                                          u2425 0DFA  
                                        u2441 06EA                                          u2281 0D68  
                                        u2361 1292                                          u1626 1950  
                                        u1570 1762                                          u1650 18E0  
                                        u2370 0E48                                          u2450 0704  
                                        u2290 0D8A                                          _T2PR 3FAB  
                                        u1571 175E                                          u1651 18DA  
                                        u2371 0E44                                          u2451 0700  
                                        u2291 0D86                                          u1636 1924  
                                        u1740 0554                                          u1580 0934  
                                        u2460 071C                                          u2700 003C  
                                        u1741 0550                                          u1581 0930  
                                        u2461 0718                                          u2701 0038  
                                        u1646 193A                                          u1670 190C  
                                        u1750 056A                                          u1830 11A2  
                                        u1910 1818                                          u2390 14BC  
                                        u2470 072E                                          u2710 005C  
                                        u1671 1906                                          u1751 0566  
                                        u1831 119E                                          u1911 1814  
                                        u2391 14B8                                          u2471 0728  
                                        u2711 0058                                          u1656 18E2  
                                        u1760 05AE                                          u1840 11B4  
                                        u1920 0794                                          u1680 1868  
                                        u2384 0E70                                          u2480 0730  
                                        u2800 0228                                          u2720 00C0  
                                        u1761 05AA                                          u1841 11B0  
                                        u1921 0790                                          u1681 1864  
                                        u2385 0E6C                                          u2801 0224  
                                        u2721 00BC                                          u1690 135C  
                                        u1738 04F4                                          u1770 09AC  
                                        u1818 108A                                          u1850 11C8  
                                        u1930 07AE                                          u2490 0742  
                                        u2810 0248                                          u2730 00DA  
                                        u1691 1358                                          u1739 0508  
                                        u1771 09A8                                          u1819 109C  
                                        u1851 11C4                                          u1931 07AA  
                                        u2491 073E                                          u2811 0244  
                                        u2731 00D6                                          u1676 190E  
                                        u1780 09C8                                          u1668 0C94  
                                        u1828 0EDC                                          u1908 0D3A  
                                        u1860 11DA                                          u1940 07D4  
                                        u2740 00F0                                          u1781 09C4  
                                        u1669 0CA6                                          u1829 0EEE  
                                        u1909 0D4C                                          u1861 11D6  
                                        u1941 07D0                                          u2741 00EC  
                                        u1790 09F8                                          u1598 094C  
                                        u1870 11EC                                          u1950 07F2  
                                        u2750 0144                                          u1791 09F4  
                                        u1599 095E                                          u1871 11E8  
                                        u1951 07EE                                          u2751 0140  
                                        u1880 0CF2                                          u1960 080E  
                                        u2760 015E                                          u2680 1442  
                                        u1881 0CEE                                          u1961 080A  
                                        u2761 015A                                          u2681 143E  
                                        u1890 0D06                                          u1970 0834  
                                        u2770 0174                                          u2690 1456  
                                        u1891 0D02                                          u1971 0830  
                                        u2771 0170                                          u2691 1450  
                                        u1980 0858                                          u2780 01D8  
                                        u2940 1154                                          _PMD0 39C0  
                                        u1981 0854                                          u2781 01D4  
                                        u2941 1150                                          _PMD1 39C1  
                                        u1990 0872                                          u2790 01F4  
                                        _PMD2 39C2                                          u1991 086E  
                                        u2791 01F0                                          _PMD3 39C3  
                                        u2696 1458                                          _PMD4 39C4  
                                        _PMD5 39C5                                          _PMD6 39C6  
                                        _PMD7 39C7                                          _TMR2 3FAA  
                                        _WPUA 3A41                                          _WPUB 3A51  
                                        _WPUC 3A61                                          _WPUE 3A81  
                     ??_wr2RegCompleteHandler 000E                              ??_I2C1_MasterFsm 0015  
                   ??_I2C1_CallbackReturnStop 000E                                          abs@a 0009  
                                        _dbuf 0084                                          _main 112E  
                                        _prec 0033                                          fsr1h 3FE2  
                                        fsr2h 3FDA                                          indf2 3FDF  
                                        fsr1l 3FE1                                          fsr2l 3FD9  
                    fx_led_show_fail@time_led 0037                                          prodh 3FF4  
                                        prodl 3FF3                                          start 001A  
                            ??_I2C1_SetBuffer 0007                                  ___param_bank 0000  
                              _g_hall_current 00C9                 I2C1_CallbackReturnStop@funPtr 000C  
                                       ??_abs 000B                               _I2C1_DO_TX$1983 0011  
                                ?_fx_read_adc 0001                       __end_of_TMR0_Initialize 1522  
              ??_TMR0_DefaultInterruptHandler 0001                 __end_of_OSCILLATOR_Initialize 18B8  
                           __end_of_I2C1_Open 0B5E                                         _ADACT 3EFE  
                                       _ADCAP 3EF5                                         ?_main 0001  
                                       _ADCLK 3EFF                                         _ADCNT 3EEB  
                                       _ADPCH 3EF1                                         _ADREF 3EFD  
                             __end_of___awdiv 0846                                         STR_10 FF74  
                                       STR_11 FE3E                                         STR_12 FFF1  
                                       STR_20 FEBB                                         STR_21 FEBB  
                                       STR_13 FEF2                                         STR_14 FF5B  
                                       STR_22 FF0D                                         STR_15 FE9D  
                                       STR_16 FDCB                                         STR_17 FE5F  
                                       STR_18 FE1B                                         STR_19 FED7  
                             __end_of___awmod 08F6                                         _ADRPT 3EEC  
                             ___awdiv@divisor 0005                                         _T2CON 3FAC  
                                       _U2P1H 3DD5                                         _U2P2H 3DD7  
                                       _U2P3H 3DD9                                         _U2P1L 3DD4  
                                       _U2P2L 3DD6                                         _U2P3L 3DD8  
                                       _T2HLT 3FAD                               __end_of___lwdiv 0DC6  
                                       _T2TMR 3FAA                                         _T2RST 3FAF  
                                       _U2UIR 3DE0                                         _U2RXB 3DD0  
                                       _U2TXB 3DD2                                         i2l281 1A6E  
                                       i2l275 0ACC                                         i2l585 1550  
                             ___awdiv@counter 0007                    __end_of_i2c1_fsmStateTable FDCB  
                                       _OSCEN 39DD                                  vfpfcnvrt@fmt 0010  
                                       _TMR0H 3FB7                                         _TMR0L 3FB6  
                                       _TRISA 3FC2                                         _TRISB 3FC3  
                                       _TRISC 3FC4                        ??_I2C1_MasterGetRxData 0003  
                   _g_can_validation_messages 00BD                         ?_I2C1_DO_RX_NACK_STOP 0001  
                   ?_TMR0_SetInterruptHandler 0003                    ??_I2C1_CallbackReturnReset 000E  
                           ??_I2C1_MasterOpen 0003                 fx_led_show_fail@blink_counter 0035  
                           ??_I2C1_MasterStop 0003                             ??_I2C1_Initialize 0003  
                   ?_I2C1_MasterIsNackFlagSet 0001                              __end_of_TMR0_ISR 0ACE  
                            fx_read_adc@adc_1 000A                              fx_read_adc@adc_2 000C  
                                       _flags 0045                                         _fputc 05DA  
                                       _width 0031                                         _putch 19A6  
            __end_of_I2C1_MasterClearNackFlag 1A54                                         pclath 3FFA  
                                       pclatu 3FFB                                         tablat 3FF5  
                      IO_ConfigPorts@ioStruct 001C                                         status 3FD8  
                                ??_I2C1_DO_RX 0011                                  ??_I2C1_DO_TX 000F  
                   _I2C1_MasterClearCountFlag 1A54                        ??_I2C1_DO_ADDRESS_NACK 000F  
                                ??_I2C1_Close 0003                ??_UART2_SetOverrunErrorHandler 0005  
                    fp__rd1RegCompleteHandler 0000                               __initialization 155E  
                                __end_of_main 1192                      fp__wr1RegCompleteHandler 0000  
                  ?_I2C1_MasterDisableRestart 0001                       __end_of_TMR2_Initialize 1856  
                 ?_INTERRUPT_InterruptManager 0001                  I2C1_MasterSetCounter@counter 0003  
            __end_of_I2C1_MasterClearStopFlag 1A4E                                  ?_UART2_Write 0001  
                fp__I2C1_DO_SEND_RESTART_READ 0000                                _IO_ConfigPorts 12A4  
                      ??_I2C1_MasterOperation 0017                                        ??_main 0031  
                               __activetblptr 0003                            __end_of_I2C1_DO_RX 0A36  
                          __end_of_I2C1_DO_TX 05DA                               _g_flag_timer_1s 0051  
                          __end_of_I2C1_Close 1704                                        _ADACCH 3EE9  
                                      _ADACCL 3EE8                                        _ADACCU 3EEA  
                                      _ADACQH 3EF4                                        _ADACQL 3EF3  
                                      _ADCON0 3EF8                                        _ADCON1 3EF9  
                                      _ADCON2 3EFA                                        _ADCON3 3EFB  
                                      _ADERRH 3EE3                                        _ADERRL 3EE2  
                                      ?_fputc 0005                                        _ADLTHH 3EDF  
                                      _ADLTHL 3EDE                                        _ADRESH 3EF0  
                                      _ADRESL 3EEF                                        _ADPREH 3EF7  
                                      _ADPREL 3EF6                                        _ADSTAT 3EFC  
                                      _ADUTHH 3EE1                              ___awdiv@dividend 0003  
                                      _ADUTHL 3EE0                                        _ANSELA 3A40  
                                      ?_putch 0001                                        _ANSELB 3A50  
                                      _ANSELC 3A60                                        _T0CON0 3FB8  
                                      _T0CON1 3FB9                                        _U2CON0 3DDA  
                                      _U2CON1 3DDB                                        _U2CON2 3DDC  
                                      _U2BRGH 3DDE                                        _U2FIFO 3DDF  
                                      _U2BRGL 3DDD                                        _RB0PPS 3A08  
                                      _RB1PPS 3A09                                        _RB5PPS 3A0D  
                                      _ODCONA 3A42                                        _ODCONB 3A52  
                                      _ODCONC 3A62                                        i2l5171 154C  
                                      i2l5167 152E                                        i2l5169 153E  
                                      _INLVLA 3A44                                        _INLVLB 3A54  
                                      _INLVLC 3A64                                        _INLVLE 3A84  
                                      i2l4911 0A44                                        i2l4921 0A9C  
                                      i2l4913 0A56                                        i2l4905 0A36  
                                      i2l4923 0AAC                                        i2l4915 0A6E  
                                      i2l4907 0A3A                                        i2l4925 0ACA  
                                      i2l4917 0A80                                        i2l4909 0A3E  
                                      i2l4919 0A86                                        _TABLAT 3FF5  
                     ??_I2C1_MasterGetCounter 0003                                        _OSCFRQ 39DF  
                                ?_IO_ResetPin 002A                                 vfpfcnvrt@done 0014  
                                      _NVMDAT 39E3                             ?_I2C1_MasterClose 0001  
                            _I2C1_DO_RX_EMPTY 08F6                       ??_I2C1_MasterDisableIrq 0003  
                           ?_I2C1_MasterWrite 0001                      ?_I2C1_MasterWaitForEvent 0001  
                          ??_I2C1_MasterClose 0003                              _I2C1_DO_TX_EMPTY 0C5C  
                            _UART2_Initialize 10C6                             __end_of_IO_SetPin 0EA8  
                          ??_I2C1_MasterWrite 0019                     _UART2_OverrunErrorHandler 00E6  
                                vfprintf@cfmt 0021                      ?_I2C1_Write1ByteRegister 0019  
                                   ??___awdiv 0007                                     ??___awmod 0007  
                       fx_read_button@counter 0039                             ?_fx_led_show_fail 0001  
                                   ??___lwdiv 0007                        __end_of_IO_ConfigPorts 12F6  
                            ?_TMR0_Initialize 0001             __end_of_I2C1_MasterDisableRestart 1A48  
                                      clear_0 1564                                        clear_1 1570  
                                      clear_2 157C                              ___awdiv@quotient 0009  
                             ___awmod@divisor 0005                                        isa$std 0001  
                          ??_fx_led_show_fail 0003                               ___awmod@counter 0007  
                                      _printf 17DE                      ??_I2C1_DO_SEND_ADR_WRITE 0003  
                           ?_I2C1_SetCallback 0003                        ??_I2C1_DO_RX_NACK_STOP 0003  
                         IO_ResetPin@ioStruct 002A                       ??_I2C1_DO_BUS_COLLISION 000F  
                             _ADCC_Initialize 11EE                         _I2C1_DO_SEND_ADR_READ 15FA  
                                      fputc@c 0005                                _PMD_Initialize 1776  
                              IO_ResetPin@pin 002B                                _control_system 001E  
               ?_I2C1_SetDataCompleteCallback 0008                            ??_I2C1_SetCallback 0007  
                                __mediumconst FDA4                                        tblptrh 3FF7  
                                      tblptrl 3FF6                                        tblptru 3FF8  
                            __end_of_vfprintf 13E6                     ?_ADCC_GetSingleConversion 0003  
    TMR0_SetInterruptHandler@InterruptHandler 0003                       _I2C1_DO_RX_NACK_RESTART 19FE  
                  fp__I2C1_DO_RX_NACK_RESTART 0000                             _SYSTEM_Initialize 172C  
              I2C1_SetDataCompleteCallback@cb 0008                                    __accesstop 0060  
                     __end_of__initialization 158E                                _g_io_expander1 0054  
             I2C1_MasterOperation@returnValue 0018                            ?_SYSTEM_Initialize 0001  
                               ___rparam_used 0001                      _I2C1_MasterClearNackFlag 1A4E  
                               ??_I2C1_Poller 0017                       _rdBlkRegCompleteHandler 13E6  
                  fp__rdBlkRegCompleteHandler 0000                                __pcstackCOMRAM 0001  
                       _UART2_SetErrorHandler 19E2                                  _g_hall_start 00D3  
                         ??_SYSTEM_Initialize 0007              __end_of_I2C1_MasterEnableRestart 1A42  
                                   ?_TMR0_ISR 0001                                 __end_of_fputc 06B2  
                             ?_IO_ConfigPorts 001C                                 __end_of_putch 19B0  
                            ?_TMR2_Initialize 0001                       ??_I2C1_MasterSetCounter 0003  
                      __end_of_PMD_Initialize 179A                        __end_of_control_system 02B8  
                ??_I2C1_DO_SEND_RESTART_WRITE 0003                       ??_I2C1_MasterSendTxData 0003  
                  ?_I2C1_MasterIsCountFlagSet 0001                      _I2C1_MasterClearStopFlag 1A48  
                   fx_led_green_fast@flag_led 0049                         __end_of_I2C1_DO_RESET 1972  
                           _I2C1_DO_BUS_ERROR 1952                                       ??_fputc 0009  
                   __end_of_SYSTEM_Initialize 1752                                       ??_putch 0004  
                   ?_I2C1_ClearInterruptFlags 0001                                    __pbssBANK0 0060  
                                  __pbssBANK1 0100                            ?_I2C1_DO_BUS_ERROR 0001  
                              main@flag_debug 004D               __end_of_I2C1_MasterWaitForEvent 11EE  
               __end_of_rd2RegCompleteHandler 1680                             _fx_led_green_fast 14AA  
                        I2C1_Open@returnValue 0004                             _fx_led_green_slow 146E  
                                  __pnvCOMRAM 0058                 __end_of_wr2RegCompleteHandler 16D8  
             __end_of_I2C1_Write1ByteRegister 0F86                            ?_fx_led_green_fast 0001  
                       _rd1RegCompleteHandler 1680                                       IVTBASEH 3FD6  
                                     IVTBASEL 3FD5                                       IVTBASEU 3FD7  
                          ?_fx_led_green_slow 0001                            _g_flag_timer_100ms 0052  
                         ??_I2C1_DO_BUS_ERROR 0003                             _I2C1_DO_SEND_STOP 1704  
                       _wr1RegCompleteHandler 1628                      rd1RegCompleteHandler@ptr 000C  
                               fp__I2C1_DO_RX 0000                                 fp__I2C1_DO_TX 0000  
                             fp__I2C1_DO_IDLE 0000                       fp__I2C1_DO_ADDRESS_NACK 0000  
            __end_of_TMR0_SetInterruptHandler 19F6                            ?_I2C1_DO_SEND_STOP 0001  
                                     _I2C1CLK 3D7B                                       _I2C1CNT 3D6C  
                                     _I2C1ERR 3D76                                       _I2C1PIE 3D7A  
                                     _I2C1PIR 3D79                                       _I2C1RXB 3D6A  
                                  ??_TMR0_ISR 0001                                       _I2C1TXB 3D6B  
        __end_of_UART2_SetFramingErrorHandler 19E2                  _UART2_SetFramingErrorHandler 19D8  
            __end_of_I2C1_MasterIsNackFlagSet 193C                       __end_of_ADCC_Initialize 124A  
                         ??_fx_led_green_fast 0003                               _I2C1_MasterOpen 179A  
                     _I2C1_MasterIsTxBufEmpty 18CE                               _I2C1_MasterStop 1A24  
                         ??_fx_led_green_slow 0003                               _I2C1_Initialize 17BC  
                         __end_of_I2C1_Poller 181A                                       _ADFLTRH 3EE7  
                                     _ADFLTRL 3EE6                                       _ADPREVH 3EEE  
                                     _ADPREVL 3EED                                       _ADSTPTH 3EE5  
                                     _ADSTPTL 3EE4                             fp__I2C1_DO_RX_ACK 0000  
                           fp__I2C1_DO_TX_ACK 0000                                       ?_printf 0023  
                             ?_PMD_Initialize 0001                               ?_control_system 0001  
                      ?_I2C1_DO_SEND_ADR_READ 0001                           ??_I2C1_DO_SEND_STOP 0004  
                                     _U2ERRIE 3DE2                                       _U2ERRIR 3DE1  
                           IO_SetPin@ioStruct 002A                                       _U2RXPPS 3AEA  
                   __end_of_I2C1_DO_BUS_ERROR 1962                             _I2C1_MasterIsNack 18E4  
           __end_of_I2C1_MasterIsCountFlagSet 1952                                       _OSCCON1 39D9  
                                     _OSCCON3 39DB                                     _I2C1_Open 0ACE  
                                     _TBLPTRH 3FF7                                       _TBLPTRL 3FF6  
                                     _TBLPTRU 3FF8                     ??_I2C1_DO_RX_NACK_RESTART 0003  
                                     _NVMADRH 39E1                                       _NVMADRL 39E0  
                                     _OSCTUNE 39DE                                       _NVMCON2 39E6  
                           ??_fx_system_start 002F                                       _SLRCONA 3A43  
                                     _SLRCONB 3A53                                       _SLRCONC 3A63  
                       I2C1_DO_RX@retFsmState 0013                            ?_I2C1_MasterIsNack 0001  
                  ?_I2C1_DO_SEND_RESTART_READ 0001                ??_I2C1_SetDataCompleteCallback 000C  
                   __end_of_fx_led_green_fast 14E6                     __end_of_fx_led_green_slow 14AA  
                                fx_read_adc@i 000E                            _i2c1_fsmStateTable FDA5  
                         ??_I2C1_MasterIsNack 0003                     __end_of_I2C1_DO_SEND_STOP 172C  
                   ??_rdBlkRegCompleteHandler 000E                            I2C1_SetCallback@cb 0003  
                                     __Hparam 0000                        ?_UART2_SetErrorHandler 0003  
                                     __Lparam 0000                           fp__I2C1_DO_RX_EMPTY 0000  
                                     ___awdiv 0782                           fp__I2C1_DO_TX_EMPTY 0000  
                   ?_I2C1_MasterIsStopFlagSet 0001                                       ___awmod 0846  
                             _g_state_machine 004E                                       ___lwdiv 0D52  
                                   ?_vfprintf 001C                   ??_I2C1_MasterDisableRestart 0003  
                                     _g_adc_1 003D                                       _g_adc_2 003B  
               ?_UART2_SetFramingErrorHandler 0003                                       __pcinit 155E  
                               ?_I2C1_DO_IDLE 0001                                       __ramtop 1000  
                                     __ptext0 112E                                       __ptext1 0B5E  
                                     __ptext2 12A4                                       __ptext3 1430  
                                     __ptext4 001E                                       __ptext5 124A  
                                     __ptext6 0BE0                                       __ptext7 0D52  
                                     __ptext8 15C8                                       __ptext9 06B2  
                    _I2C1_MasterEnableRestart 1A3C                     __end_of_I2C1_MasterIsNack 18FA  
                ?_I2C1_SetAddressNackCallback 0008                      __end_of_I2C1_DO_RX_EMPTY 0998  
            _UART2_DefaultOverrunErrorHandler 0000                         _OSCILLATOR_Initialize 18A0  
                                   _T2CONbits 3FAC                                   _I2C1ERRbits 3D76  
                    __end_of_I2C1_DO_TX_EMPTY 0CD8                              ___awmod@dividend 0003  
                    ??_I2C1_MasterIsRxBufFull 0003                      ??_PIN_MANAGER_Initialize 0003  
                                 _I2C1PIEbits 3D7A                                     _T2HLTbits 3FAD  
                    wr1RegCompleteHandler@ptr 000C                                    ?_I2C1_Open 0001  
                    __end_of_UART2_Initialize 112E                                   _I2C1PIRbits 3D79  
                     fp__I2C1_DO_RX_NACK_STOP 0000                      ?_I2C1_CallbackReturnStop 000C  
           __end_of_I2C1_DO_SEND_RESTART_READ 198E                          end_of_initialization 158E  
                  __end_of_I2C1_MasterSendAck 1A36                                     _T2RSTbits 3FAF  
                         _I2C1_MasterClearIrq 1A16                                       fputc@fp 0007  
                             IO_ResetPin@mask 002E                        ?_rd1RegCompleteHandler 000C  
                      _I2C1_DO_SEND_ADR_WRITE 18B8                 __end_of_I2C1_MasterGetCounter 1A24  
                __end_of_I2C1_DO_SEND_RESTART 1A5E                       __end_of_I2C1_MasterOpen 17BC  
                      ?_wr1RegCompleteHandler 000C                       __end_of_I2C1_MasterStop 1A2A  
                     __end_of_I2C1_Initialize 17DE                                   _I2C1_Poller 17FC  
                   ?_I2C1_CallbackReturnReset 000C                 __end_of_I2C1_MasterDisableIrq 1838  
                                 _I2C1_Status 0060                     ??_I2C1_MasterIsTxBufEmpty 0003  
                    fp__rd2RegCompleteHandler 0000                             __end_of_vfpfcnvrt 04B8  
                                     postdec2 3FDD                      fp__wr2RegCompleteHandler 0000  
                                     postinc0 3FEE                                       postinc1 3FE6  
                                     postinc2 3FDE                              vfpfcnvrt@convarg 0017  
                         _I2C1_MasterSendNack 1A2A           __end_of_I2C1_SetAddressNackCallback 1888  
                 _I2C1_SetAddressNackCallback 1870                              ?_ADCC_Initialize 0001  
                                  ??_vfprintf 0021              __end_of_ADCC_GetSingleConversion 15FA  
                        ?_I2C1_MasterClearIrq 0001                                ??_I2C1_DO_IDLE 0003  
                                   _IO_SetPin 0E38                           _I2C1_MasterResetBus 19C4  
          __end_of_I2C1_DO_SEND_RESTART_WRITE 1A62                    _I2C1_DO_SEND_RESTART_WRITE 1A5E  
                    _TMR0_SetInterruptHandler 19EC                                     _PORTCbits 3FCC  
             __end_of_rdBlkRegCompleteHandler 1430                      _I2C1_MasterIsNackFlagSet 1926  
                               _g_bike_status 003F                 ??_I2C1_SetAddressNackCallback 000C  
               __end_of_I2C1_DO_BUS_COLLISION 0F18               I2C1_SetDataCompleteCallback@ptr 000A  
                 I2C1_Write1ByteRegister@data 001A                                _fx_read_button 124A  
              I2C1_CallbackReturnReset@funPtr 000C                    ??_I2C1_MasterClearNackFlag 0003  
                        ?_I2C1_MasterSendNack 0001                     _I2C1_MasterDisableRestart 1A42  
                   fx_led_green_slow@flag_led 0048                            IO_ConfigPorts@port 001D  
                        ?_I2C1_MasterResetBus 0001                    rdBlkRegCompleteHandler@ptr 000C  
                            ??_IO_ConfigPorts 001E                          _timer0ReloadVal16bit 0041  
                __end_of_INTERRUPT_Initialize 1A6E                         ??_I2C1_MasterClearIrq 0003  
                            I2C1_DO_TX@dataTx 0013                    ??_I2C1_MasterClearStopFlag 0003  
                                  ?_IO_SetPin 002A                                   vfpfcnvrt@ap 0011  
                                 vfpfcnvrt@cp 0015                                   vfpfcnvrt@fp 000E  
                              _I2C1_DO_RX_ACK 1A06                                _I2C1_DO_TX_ACK 1A0E  
            __end_of_I2C1_ClearInterruptFlags 139A                        ?_OSCILLATOR_Initialize 0001  
             __end_of_I2C1_CallbackReturnStop 1A6A                 __end_of_I2C1_MasterSetCounter 19C4  
                              __end_of_printf 17FC                 __end_of_I2C1_MasterSendTxData 19BA  
                 ??_I2C1_MasterIsCountFlagSet 0003                ??_UART2_SetFramingErrorHandler 0005  
                         start_initialization 155E                        __end_of_fx_read_button 12A4  
                                 ??_I2C1_Open 0003                            TMR0_ISR@counter_1s 0050  
                                 __end_of_abs 15C8                         ??_I2C1_MasterSendNack 0003  
                   _UART2_DefaultErrorHandler 0000                         ??_I2C1_MasterResetBus 0003  
                               ??_control_wdt 0003                                   putch@txData 0004  
                                  ivt0x8_base 0008                                 IO_SetPin@mask 002E  
                    I2C1_SetBuffer@bufferSize 0005                              ?_I2C1_MasterOpen 0001  
                            ?_I2C1_MasterStop 0001                I2C1_Write1ByteRegister@address 001B  
                            ?_I2C1_Initialize 0001                                   vfprintf@fmt 001E  
                            ??_PMD_Initialize 0003                              ??_control_system 002F  
                      __end_of_I2C1_DO_RX_ACK 1A0E                        __end_of_I2C1_DO_TX_ACK 1A16  
                     ??_I2C1_DO_SEND_ADR_READ 0003                                 ??_fx_read_adc 000A  
                             _fx_system_start 0B5E                             UART2_Write@txData 0003  
                                    ??_printf 0029                                   _g_fail_code 004F  
                            I2C1_Open@address 0003                      _ADCC_GetSingleConversion 15C8  
                   fx_led_show_fail@fail_code 0003                                   __pbssCOMRAM 0031  
                        _I2C1_DO_SEND_RESTART 1A5A                               ?_fx_read_button 0001  
                   _UART2_FramingErrorHandler 005A                   ??_I2C1_DO_SEND_RESTART_READ 0004  
                       I2C1_DO_TX@retFsmState 0014                     fx_led_show_fail@flag_time 0046  
            __end_of_I2C1_MasterIsStopFlagSet 1926                      fp__I2C1_DO_BUS_COLLISION 0000  
                        __end_of_I2C1_DO_IDLE 199A                       ??_UART2_SetErrorHandler 0005  
               I2C1_SetAddressNackCallback@cb 0008                         _TMR0_InterruptHandler 0058  
                                   __pnvBANK0 00E4                     _I2C1_MasterIsCountFlagSet 193C  
                       _rd2RegCompleteHandler 1654                     fp__I2C1_DO_SEND_ADR_WRITE 0000  
                         __end_of_control_wdt 146E                        _I2C1_MasterIsRxBufFull 18FA  
                            ___lwdiv@dividend 0003                        _PIN_MANAGER_Initialize 0FF4  
                       _wr2RegCompleteHandler 16AC                    ??_I2C1_MasterEnableRestart 0003  
                    rd2RegCompleteHandler@ptr 000C                                _I2C1_MasterFsm 0CD8  
                               __pmediumconst FDA4               ADCC_GetSingleConversion@channel 0007  
                            fp__I2C1_DO_RESET 0000                  fx_read_button@button_pressed 004A  
                             ?_I2C1_DO_RX_ACK 0001                                      ?___awdiv 0003  
                                   __ptext100 0A36                                     __ptext101 1A6E  
                                   __ptext102 0000                                      ?___awmod 0003  
                             ?_I2C1_DO_TX_ACK 0001                                      ?___lwdiv 0003  
                                    _I2C1CON0 3D73                                      _I2C1CON1 3D74  
                                    _I2C1CON2 3D75                                   ??_IO_SetPin 002C  
                               _g_lock_config 00A4                       _I2C1_MasterWaitForEvent 1192  
                            _I2C1_MasterClose 199A                                 ??_UART2_Write 0003  
                              _I2C1_SetBuffer 1752                  ??_INTERRUPT_InterruptManager 0001  
                               _g_lock_serial 00DD                              _I2C1_MasterWrite 19F6  
                               _g_lock_status 0100                          control_wdt@last_flag 004B  
                     _I2C1_Write1ByteRegister 0F18                         ?_I2C1_DO_SEND_RESTART 0001  
                           ?_I2C1_DO_RX_EMPTY 0001                           __end_of_fx_read_adc 0C5C  
                    _I2C1_ClearInterruptFlags 1348                             ?_I2C1_DO_TX_EMPTY 0001  
                                 _g_wait_time 0043                            ??_I2C1_DO_RX_EMPTY 000F  
                           ?_UART2_Initialize 0001              __end_of_I2C1_CallbackReturnReset 1A66  
                            ___lwdiv@quotient 0007                              _fx_led_show_fail 06B2  
                          ??_I2C1_DO_TX_EMPTY 000F                                      _T2CLKCON 3FAE  
                     ??_rd1RegCompleteHandler 000E                       ?_I2C1_DO_SEND_ADR_WRITE 0001  
                          ??_UART2_Initialize 0005                     I2C1_MasterSendTxData@data 0003  
                        _INTERRUPT_Initialize 1A6A                                    _I2C1SDAPPS 3AE4  
                                  _I2C1SCLPPS 3AE3                              _uart2RxLastError 0053  
                     ??_wr1RegCompleteHandler 000E                                 ??_IO_ResetPin 002C  
                           ??_TMR0_Initialize 0005                                   _U2ERRIRbits 3DE1  
                            _I2C1_SetCallback 0F86                                      _LATAbits 3FBA  
       UART2_SetErrorHandler@interruptHandler 0003                                      _LATCbits 3FBC  
                                  _I2C1_DO_RX 0998                                    _I2C1_DO_TX 04B8  
                                    _PIE2bits 3992                                      _PIE3bits 3993  
                                  _I2C1_Close 16D8                                  ?_I2C1_Poller 0001  
                      __end_of_I2C1_MasterFsm 0D52                          fp__I2C1_DO_BUS_ERROR 0000  
                     __end_of_fx_system_start 0BE0                  __end_of_I2C1_MasterGetRxData 1A3C  
                                    i2u260_40 0A56                                      i2u260_41 0A52  
                  ??_TMR0_SetInterruptHandler 0005                                      i2u262_40 0A80  
                                    i2u261_48 0A5C                                      i2u262_41 0A7C  
                                    i2u261_49 0A6E                                      i2u263_40 0A98  
                                    i2u263_41 0A92                                 _I2C1STAT1bits 3D78  
                                    _PIR0bits 39A0                                      i2u264_40 0A9A  
                                    i2u265_40 0AAC                                      i2u265_41 0AA8  
                                    i2u266_40 0AC2                                      i2u266_41 0ABC  
                                    i2u267_40 0AC4                                      _PIR2bits 39A2  
                                    i2u292_40 153E                                      i2u292_41 153A  
                                    i2u293_40 154C                                      i2u293_41 1548  
                                    _PIR3bits 39A3                                      _PIR4bits 39A4  
                                    _PIR7bits 39A7                    ??_I2C1_MasterIsNackFlagSet 0003  
                          _I2C1_MasterSendAck 1A30                     _I2C1_DO_SEND_RESTART_READ 1980  
                                    _TMR0_ISR 0A36                        __end_of_I2C1_SetBuffer 1776  
        __end_of_I2C1_SetDataCompleteCallback 18A0                  _I2C1_SetDataCompleteCallback 1888  
                                   _vfpfcnvrt 02B8                   ?_I2C1_DO_SEND_RESTART_WRITE 0001  
                  I2C1_Write1ByteRegister@reg 0019                           ?_I2C1_MasterSendAck 0001  
                                  _ADCON0bits 3EF8                                    _ADCON1bits 3EF9  
                                  _ADCON2bits 3EFA                                    _ADCON3bits 3EFB  
                    ?_I2C1_DO_RX_NACK_RESTART 0001                          fp__I2C1_DO_SEND_STOP 0000  
                  ?_I2C1_MasterClearCountFlag 0001                  __end_of_I2C1_DO_ADDRESS_NACK 10C6  
                    wr2RegCompleteHandler@ptr 000C                            _UART2_ErrorHandler 00E4  
                         __end_of_UART2_Write 1870                __end_of_I2C1_DO_SEND_ADR_WRITE 18CE  
                               _I2C1_DO_RESET 1962                                    vfpfcnvrt@c 001B  
                                 _INTCON0bits 3FD2                         ?_INTERRUPT_Initialize 0001  
                       I2C1_Close@returnValue 0003                      ?_rdBlkRegCompleteHandler 000C  
                                 _control_wdt 1430                           I2C1_SetCallback@idx 0007  
                         I2C1_SetCallback@ptr 0005                          ??_I2C1_MasterSendAck 0003  
                           ??_TMR2_Initialize 0003                        ?_rd2RegCompleteHandler 000C  
                __end_of_I2C1_MasterOperation 1348                                  IO_SetPin@pin 002B  
                      ?_wr2RegCompleteHandler 000C                                    _ADSTATbits 3EFC  
                    _I2C1_MasterIsStopFlagSet 1910                                      __Hrparam 0000  
                             ?_I2C1_MasterFsm 0001                         _I2C1_MasterGetCounter 1A1E  
                                  vfprintf@ap 0020                                      __Lrparam 0000  
                         __end_of_IO_ResetPin 0E38                                    vfprintf@fp 001C  
                   ??_I2C1_MasterWaitForEvent 0003                         _I2C1_MasterDisableIrq 181A  
                     ??_OSCILLATOR_Initialize 0003                               ?_I2C1_SetBuffer 0003  
                                 _fx_read_adc 0BE0                                    ?_vfpfcnvrt 000E  
                   ??_I2C1_Write1ByteRegister 001B                        ??_I2C1_DO_SEND_RESTART 0003  
           __end_of_I2C1_MasterClearCountFlag 1A5A                                    _T0CON0bits 3FB8  
                                _I2C1CON0bits 3D73                                  _I2C1CON1bits 3D74  
                                    __pivt0x8 0008                               ___lwdiv@divisor 0005  
                              ?_I2C1_DO_RESET 0001                               ___lwdiv@counter 0009  
                                    __ptext10 146E                                      __ptext11 14AA  
                                    __ptext20 1594                                      __ptext12 0E38  
                                    __ptext21 0846                                      __ptext13 0DC6  
                                    __ptext30 1192                                      __ptext22 0782  
                                    __ptext14 17DE                                      __ptext31 0CD8  
                                    __ptext23 0F18                                      __ptext15 139A  
                                    __ptext40 1A5A                                      __ptext32 1952  
                                    __ptext24 1870                                      __ptext16 02B8  
                                    __ptext41 1A5E                                      __ptext33 0EA8  
                                    __ptext25 0ACE                                      __ptext17 05DA  
                                    __ptext50 1A0E                                      __ptext42 1980  
                                    __ptext34 105E                                      __ptext26 179A  
                                    __ptext18 19A6                                      __ptext51 18CE  
                                    __ptext43 08F6                                      __ptext35 1962  
                                    __ptext27 19F6                                      __ptext19 1856  
                                    __ptext60 19BA                                      __ptext52 18E4  
                                    __ptext44 0C5C                                      __ptext36 19FE  
                                    __ptext28 12F6                                      __ptext61 1A3C  
                                    __ptext53 1A1E                                      __ptext45 0998  
                                    __ptext37 1972                                      __ptext29 17FC  
                                    __ptext70 16AC                                      __ptext62 1A42  
                                    __ptext54 1A24                                      __ptext46 04B8  
                                    __ptext38 1A06                                      __ptext71 1888  
                                    __ptext63 19C4                                      __ptext55 1A2A  
                                    __ptext47 18B8                                      __ptext39 1704  
                                    __ptext80 1A54                                      __ptext72 0F86  
                                    __ptext64 1A62                                      __ptext56 1A30  
                                    __ptext48 15FA                                      __ptext81 16D8  
                                    __ptext73 1752                                      __ptext65 1A66  
                                    __ptext57 18FA                                      __ptext49 198E  
                                    __ptext90 1838                                      __ptext82 181A  
                                    __ptext74 1348                                      __ptext66 13E6  
                                    __ptext58 1A36                                      __ptext91 14E6  
                                    __ptext83 199A                                      __ptext75 1910  
                                    __ptext67 1628                                      __ptext59 19B0  
                                    __ptext92 19EC                                      __ptext84 1A16  
                                    __ptext76 1926                                      __ptext68 1654  
                                    __ptext93 1776                                      __ptext85 172C  
                                    __ptext77 193C                                      __ptext69 1680  
                                    __ptext94 0FF4                                      __ptext86 10C6  
                                    __ptext78 1A48                                      __ptext95 18A0  
                                    __ptext87 19CE                                      __ptext79 1A4E  
                                    __ptext96 1A6A                                      __ptext88 19D8  
                                    __ptext97 17BC                                      __ptext89 19E2  
                                    __ptext98 11EE                                      __ptext99 1522  
                       _I2C1_DO_BUS_COLLISION 0EA8                                    _U2CON0bits 3DDA  
                    _I2C1_CallbackReturnReset 1A62                   fp__I2C1_CallbackReturnReset 0000  
                    ?_I2C1_MasterIsTxBufEmpty 0001                                   ?_I2C1_DO_RX 0001  
                                 ?_I2C1_DO_TX 0001              _UART2_DefaultFramingErrorHandler 0000  
        __end_of_TMR0_DefaultInterruptHandler 1A70                  _TMR0_DefaultInterruptHandler 1A6E  
                 __end_of_I2C1_MasterClearIrq 1A1E                  __end_of_I2C1_DO_RX_NACK_STOP 1980  
                                 ?_I2C1_Close 0001                              ?_fx_system_start 0001  
UART2_SetOverrunErrorHandler@interruptHandler 0003                                      isa$xinst 0000  
                  ??_ADCC_GetSingleConversion 0005                     ?_I2C1_MasterClearNackFlag 0001  
             __end_of_I2C1_DO_RX_NACK_RESTART 1A06                      I2C1_MasterOperation@read 0017  
                                    _vfprintf 139A            __end_of_INTERRUPT_InterruptManager 155E  
                  _INTERRUPT_InterruptManager 1522                                     printf@fmt 0023  
                            ??_fx_read_button 0003                 __end_of_I2C1_DO_SEND_ADR_READ 1628  
                                _I2C1_DO_IDLE 198E                                   _UART2_Write 1856  
                 __end_of_I2C1_MasterSendNack 1A30                                _g_can_messages 011C  
                 __end_of_I2C1_MasterResetBus 19CE                 fp__I2C1_DO_SEND_RESTART_WRITE 0000  
                                 _NVMCON1bits 39E5                I2C1_SetAddressNackCallback@ptr 000A  
                       _I2C1_MasterSetCounter 19BA                          _I2C1_MasterGetRxData 1A36  
                       _I2C1_MasterSendTxData 19B0                        ??_INTERRUPT_Initialize 0003  
        __end_of_UART2_SetOverrunErrorHandler 19D8                  _UART2_SetOverrunErrorHandler 19CE  
                   ?_I2C1_MasterClearStopFlag 0001                                      intlevel2 0000  
                    __end_of_I2C1_MasterClose 19A6                                   _IO_ResetPin 0DC6  
                     ?_I2C1_MasterIsRxBufFull 0001                       ?_PIN_MANAGER_Initialize 0001  
                    __end_of_I2C1_MasterWrite 19FE                              ??_I2C1_DO_RX_ACK 0003  
                            ??_I2C1_DO_TX_ACK 0003                        ?_I2C1_MasterGetCounter 0001  
                     _I2C1_CallbackReturnStop 1A66                    fp__I2C1_CallbackReturnStop 0000  
               __end_of_UART2_SetErrorHandler 19EC               fp__TMR0_DefaultInterruptHandler 0000  
               ?_TMR0_DefaultInterruptHandler 0001                          _I2C1_DO_ADDRESS_NACK 105E  
                      ?_I2C1_MasterDisableIrq 0001                       control_system@flag_fail 004C  
                    __end_of_fx_led_show_fail 0782                                      printf@ap 0029  
UART2_SetFramingErrorHandler@interruptHandler 0003                    ??_I2C1_ClearInterruptFlags 0003  
                                 ??_vfpfcnvrt 0012                      __end_of_I2C1_SetCallback 0FF4  
                             ??_I2C1_DO_RESET 0003                          _I2C1_MasterOperation 12F6  
                             _TMR0_Initialize 14E6                         ?_I2C1_MasterGetRxData 0001  
                      ?_I2C1_DO_BUS_COLLISION 0001               __end_of_I2C1_MasterIsTxBufEmpty 18E4  
              __end_of_I2C1_MasterIsRxBufFull 1910                __end_of_PIN_MANAGER_Initialize 105E  
                           ??_ADCC_Initialize 0003                 __end_of_rd1RegCompleteHandler 16AC  
               ?_UART2_SetOverrunErrorHandler 0003                 __end_of_wr1RegCompleteHandler 1654  
                       ?_I2C1_DO_ADDRESS_NACK 0001  
